EXPORTS
 "_ZN13DgAddressBaseD0Ev"
 "_ZN13DgAddressBaseD1Ev"
 "_ZN13DgAddressBaseD2Ev"
 "_ZTI13DgAddressBase"
 "_ZTS13DgAddressBase"
 "_ZTV13DgAddressBase"
 "_ZN6DgBase10testArgMinEiPPciRKNSt7__cxx1112basic_stringIcSt11char_traitsIcESaIcEEE"
 "_ZN6DgBase10testArgMinEiiRKNSt7__cxx1112basic_stringIcSt11char_traitsIcESaIcEEENS_13DgReportLevelE"
 "_ZN6DgBase11defaultNameB5cxx11E"
 "_ZN6DgBase12testArgEqualEiPPciRKNSt7__cxx1112basic_stringIcSt11char_traitsIcESaIcEEE"
 "_ZN6DgBase12testArgEqualEiiRKNSt7__cxx1112basic_stringIcSt11char_traitsIcESaIcEEENS_13DgReportLevelE"
 "_ZN6DgBase15minReportLevel_E"
 "_ZN6DgBaseC1EPKNSt7__cxx1112basic_stringIcSt11char_traitsIcESaIcEEE"
 "_ZN6DgBaseC1ERKNSt7__cxx1112basic_stringIcSt11char_traitsIcESaIcEEE"
 "_ZN6DgBaseC2EPKNSt7__cxx1112basic_stringIcSt11char_traitsIcESaIcEEE"
 "_ZN6DgBaseC2ERKNSt7__cxx1112basic_stringIcSt11char_traitsIcESaIcEEE"
 "_ZN6DgBaseD0Ev"
 "_ZN6DgBaseD1Ev"
 "_ZN6DgBaseD2Ev"
 "_ZNK6DgBase6reportERKNSt7__cxx1112basic_stringIcSt11char_traitsIcESaIcEEENS_13DgReportLevelE"
 "_ZNSt7__cxx1112basic_stringIcSt11char_traitsIcESaIcEE12_M_constructIPKcEEvT_S8_St20forward_iterator_tag"
 "_ZNSt7__cxx1112basic_stringIcSt11char_traitsIcESaIcEE12_M_constructIPcEEvT_S7_St20forward_iterator_tag"
 "_ZStplIcSt11char_traitsIcESaIcEENSt7__cxx1112basic_stringIT_T0_T1_EERKS8_SA_"
 "_ZTI6DgBase"
 "_ZTISt13runtime_error"
 "_ZTISt9exception"
 "_ZTS6DgBase"
 "_ZTSSt13runtime_error"
 "_ZTSSt9exception"
 "_ZTV6DgBase"
 "report"
 "_ZN10DgLocation12clearAddressEv"
 "_ZN11DgLocVector9convertToERK8DgRFBase"
 "_ZN18DgBoundedHexC2RF2DC1ERK8DgDiscRFI8DgIVec2D8DgDVec2DeERKS1_S7_"
 "_ZN18DgBoundedHexC2RF2DC2ERK8DgDiscRFI8DgIVec2D8DgDVec2DeERKS1_S7_"
 "_ZN18DgBoundedHexC2RF2DD0Ev"
 "_ZN18DgBoundedHexC2RF2DD1Ev"
 "_ZN3dgg4util9to_stringIxEENSt7__cxx1112basic_stringIcSt11char_traitsIcESaIcEEERKT_"
 "_ZN9DgPolygonD0Ev"
 "_ZN9DgPolygonD1Ev"
 "_ZNK11DgBoundedRFI8DgIVec2D8DgDVec2DeE11setVerticesERK10DgLocationR9DgPolygon"
 "_ZNK11DgBoundedRFI8DgIVec2D8DgDVec2DeE11setVerticesERK10DgLocationRK8DgRFBaseR9DgPolygon"
 "_ZNK11DgBoundedRFI8DgIVec2D8DgDVec2DeE11setVerticesERKS0_R9DgPolygon"
 "_ZNK11DgBoundedRFI8DgIVec2D8DgDVec2DeE11setVerticesERKS0_RK8DgRFBaseR9DgPolygon"
 "_ZNK11DgBoundedRFI8DgIVec2D8DgDVec2DeE12makeVerticesERK10DgLocation"
 "_ZNK11DgBoundedRFI8DgIVec2D8DgDVec2DeE12setNeighborsERK10DgLocationR11DgLocVector"
 "_ZNK11DgBoundedRFI8DgIVec2D8DgDVec2DeE12setNeighborsERKS0_R11DgLocVector"
 "_ZNK11DgBoundedRFI8DgIVec2D8DgDVec2DeE12setNeighborsERKS0_RK8DgRFBaseR11DgLocVector"
 "_ZNK11DgBoundedRFI8DgIVec2D8DgDVec2DeE13locFromSeqNumEy"
 "_ZNK11DgBoundedRFI8DgIVec2D8DgDVec2DeE13makeNeighborsERK10DgLocation"
 "_ZNK11DgBoundedRFI8DgIVec2D8DgDVec2DeE13validLocationERK10DgLocationb"
 "_ZNK11DgBoundedRFI8DgIVec2D8DgDVec2DeE15lessThanAddressERKS0_S4_"
 "_ZNK11DgBoundedRFI8DgIVec2D8DgDVec2DeE17decrementLocationER10DgLocationb"
 "_ZNK11DgBoundedRFI8DgIVec2D8DgDVec2DeE17incrementLocationER10DgLocationb"
 "_ZNK11DgBoundedRFI8DgIVec2D8DgDVec2DeE6seqNumERK10DgLocationb"
 "_ZNK11DgBoundedRFI8DgIVec2D8DgDVec2DeE8dist2dblERKx"
 "_ZNK11DgBoundedRFI8DgIVec2D8DgDVec2DeE8dist2intERKx"
 "_ZNK11DgBoundedRFI8DgIVec2D8DgDVec2DeE8dist2strB5cxx11ERKx"
 "_ZNK11DgBoundedRFI8DgIVec2D8DgDVec2DeE8setPointERK10DgLocationRK8DgRFBaseRS3_"
 "_ZNK11DgBoundedRFI8DgIVec2D8DgDVec2DeE8setPointERK10DgLocationRS3_"
 "_ZNK11DgBoundedRFI8DgIVec2D8DgDVec2DeE8setPointERKS0_R10DgLocation"
 "_ZNK11DgBoundedRFI8DgIVec2D8DgDVec2DeE8setPointERKS0_RK8DgRFBaseR10DgLocation"
 "_ZNK11DgBoundedRFI8DgIVec2D8DgDVec2DeE9backFrameEv"
 "_ZNK11DgBoundedRFI8DgIVec2D8DgDVec2DeE9makePointERK10DgLocation"
 "_ZNK11DgLocVector11cardinalityEv"
 "_ZNK11DgLocVector15asAddressStringB5cxx11Ec"
 "_ZNK11DgLocVector15asAddressStringB5cxx11Ev"
 "_ZNK11DgLocVector8asStringB5cxx11Ec"
 "_ZNK11DgLocVector8asStringB5cxx11Ev"
 "_ZNK15DgBoundedRFBaseI8DgDVec2DeE8lessThanERK10DgLocationS4_b"
 "_ZNK18DgBoundedHexC2RF2D12validAddressERK8DgIVec2D"
 "_ZNK18DgBoundedHexC2RF2D13addFromSeqNumEy"
 "_ZNK18DgBoundedHexC2RF2D13seqNumAddressERK8DgIVec2D"
 "_ZNK18DgBoundedHexC2RF2D16decrementAddressER8DgIVec2D"
 "_ZNK18DgBoundedHexC2RF2D16incrementAddressER8DgIVec2D"
 "_ZNK4DgRFI8DgIVec2DxE10getAddressERK10DgLocation"
 "_ZNK8DgDiscRFI8DgIVec2D8DgDVec2DeE11setVerticesERKS0_R9DgPolygon"
 "_ZNK8DgDiscRFI8DgIVec2D8DgDVec2DeE11setVerticesERKS0_RK8DgRFBaseR9DgPolygon"
 "_ZNK8DgDiscRFI8DgIVec2D8DgDVec2DeE12makeVerticesERK10DgLocation"
 "_ZNK8DgDiscRFI8DgIVec2D8DgDVec2DeE12setNeighborsERKS0_R11DgLocVector"
 "_ZNK8DgDiscRFI8DgIVec2D8DgDVec2DeE12setNeighborsERKS0_RK8DgRFBaseR11DgLocVector"
 "_ZNK8DgDiscRFI8DgIVec2D8DgDVec2DeE13makeNeighborsERK10DgLocation"
 "_ZNK8DgDiscRFI8DgIVec2D8DgDVec2DeE8dist2dblERKx"
 "_ZNK8DgDiscRFI8DgIVec2D8DgDVec2DeE8dist2intERKx"
 "_ZNK8DgDiscRFI8DgIVec2D8DgDVec2DeE8dist2strB5cxx11ERKx"
 "_ZNK8DgDiscRFI8DgIVec2D8DgDVec2DeE8setPointERKS0_R10DgLocation"
 "_ZNK8DgDiscRFI8DgIVec2D8DgDVec2DeE8setPointERKS0_RK8DgRFBaseR10DgLocation"
 "_ZNK8DgDiscRFI8DgIVec2D8DgDVec2DeE9makePointERK10DgLocation"
 "_ZNK8DgRFBaseeqERKS_"
 "_ZNK8DgRFBaseneERKS_"
 "_ZNSt7__cxx1112basic_stringIcSt11char_traitsIcESaIcEE12_M_constructIPKcEEvT_S8_St20forward_iterator_tag"
 "_ZTI11DgBoundedRFI8DgIVec2D8DgDVec2DeE"
 "_ZTI11DgLocVector"
 "_ZTI13DgBoundedRF2D"
 "_ZTI15DgBoundedRFBaseI8DgDVec2DeE"
 "_ZTI18DgBoundedHexC2RF2D"
 "_ZTI9DgLocBase"
 "_ZTI9DgPolygon"
 "_ZTS11DgBoundedRFI8DgIVec2D8DgDVec2DeE"
 "_ZTS11DgLocVector"
 "_ZTS13DgBoundedRF2D"
 "_ZTS15DgBoundedRFBaseI8DgDVec2DeE"
 "_ZTS18DgBoundedHexC2RF2D"
 "_ZTS9DgLocBase"
 "_ZTS9DgPolygon"
 "_ZTV15DgBoundedRFBaseI8DgDVec2DeE"
 "_ZTV18DgBoundedHexC2RF2D"
 "_ZTV9DgPolygon"
 "_ZN10DgLocation12clearAddressEv"
 "_ZN11DgLocVector9convertToERK8DgRFBase"
 "_ZN13DgBoundedIDGGC1ERK6DgIDGG"
 "_ZN13DgBoundedIDGGC2ERK6DgIDGG"
 "_ZN13DgBoundedIDGGD0Ev"
 "_ZN13DgBoundedIDGGD1Ev"
 "_ZN3dgg4util9to_stringIxEENSt7__cxx1112basic_stringIcSt11char_traitsIcESaIcEEERKT_"
 "_ZN9DgPolygonD0Ev"
 "_ZN9DgPolygonD1Ev"
 "_ZNK11DgBoundedRFI11DgQ2DICoord10DgGeoCoordeE11setVerticesERK10DgLocationR9DgPolygon"
 "_ZNK11DgBoundedRFI11DgQ2DICoord10DgGeoCoordeE11setVerticesERK10DgLocationRK8DgRFBaseR9DgPolygon"
 "_ZNK11DgBoundedRFI11DgQ2DICoord10DgGeoCoordeE11setVerticesERKS0_R9DgPolygon"
 "_ZNK11DgBoundedRFI11DgQ2DICoord10DgGeoCoordeE11setVerticesERKS0_RK8DgRFBaseR9DgPolygon"
 "_ZNK11DgBoundedRFI11DgQ2DICoord10DgGeoCoordeE12makeVerticesERK10DgLocation"
 "_ZNK11DgBoundedRFI11DgQ2DICoord10DgGeoCoordeE12setNeighborsERK10DgLocationR11DgLocVector"
 "_ZNK11DgBoundedRFI11DgQ2DICoord10DgGeoCoordeE12setNeighborsERKS0_R11DgLocVector"
 "_ZNK11DgBoundedRFI11DgQ2DICoord10DgGeoCoordeE12setNeighborsERKS0_RK8DgRFBaseR11DgLocVector"
 "_ZNK11DgBoundedRFI11DgQ2DICoord10DgGeoCoordeE13locFromSeqNumEy"
 "_ZNK11DgBoundedRFI11DgQ2DICoord10DgGeoCoordeE13makeNeighborsERK10DgLocation"
 "_ZNK11DgBoundedRFI11DgQ2DICoord10DgGeoCoordeE13validLocationERK10DgLocationb"
 "_ZNK11DgBoundedRFI11DgQ2DICoord10DgGeoCoordeE15lessThanAddressERKS0_S4_"
 "_ZNK11DgBoundedRFI11DgQ2DICoord10DgGeoCoordeE17decrementLocationER10DgLocationb"
 "_ZNK11DgBoundedRFI11DgQ2DICoord10DgGeoCoordeE17incrementLocationER10DgLocationb"
 "_ZNK11DgBoundedRFI11DgQ2DICoord10DgGeoCoordeE6seqNumERK10DgLocationb"
 "_ZNK11DgBoundedRFI11DgQ2DICoord10DgGeoCoordeE8dist2dblERKx"
 "_ZNK11DgBoundedRFI11DgQ2DICoord10DgGeoCoordeE8dist2intERKx"
 "_ZNK11DgBoundedRFI11DgQ2DICoord10DgGeoCoordeE8dist2strB5cxx11ERKx"
 "_ZNK11DgBoundedRFI11DgQ2DICoord10DgGeoCoordeE8setPointERK10DgLocationRK8DgRFBaseRS3_"
 "_ZNK11DgBoundedRFI11DgQ2DICoord10DgGeoCoordeE8setPointERK10DgLocationRS3_"
 "_ZNK11DgBoundedRFI11DgQ2DICoord10DgGeoCoordeE8setPointERKS0_R10DgLocation"
 "_ZNK11DgBoundedRFI11DgQ2DICoord10DgGeoCoordeE8setPointERKS0_RK8DgRFBaseR10DgLocation"
 "_ZNK11DgBoundedRFI11DgQ2DICoord10DgGeoCoordeE9backFrameEv"
 "_ZNK11DgBoundedRFI11DgQ2DICoord10DgGeoCoordeE9makePointERK10DgLocation"
 "_ZNK11DgLocVector11cardinalityEv"
 "_ZNK11DgLocVector15asAddressStringB5cxx11Ec"
 "_ZNK11DgLocVector15asAddressStringB5cxx11Ev"
 "_ZNK11DgLocVector8asStringB5cxx11Ec"
 "_ZNK11DgLocVector8asStringB5cxx11Ev"
 "_ZNK13DgBoundedIDGG12validAddressERK11DgQ2DICoord"
 "_ZNK13DgBoundedIDGG13addFromSeqNumEy"
 "_ZNK13DgBoundedIDGG13seqNumAddressERK11DgQ2DICoord"
 "_ZNK13DgBoundedIDGG16decrementAddressER11DgQ2DICoord"
 "_ZNK13DgBoundedIDGG16incrementAddressER11DgQ2DICoord"
 "_ZNK15DgBoundedRFBaseI10DgGeoCoordeE8lessThanERK10DgLocationS4_b"
 "_ZNK4DgRFI11DgQ2DICoordxE10getAddressERK10DgLocation"
 "_ZNK6DgIDGG12undefAddressEv"
 "_ZNK6DgIDGG14setAddVerticesERK11DgQ2DICoordR9DgPolygon"
 "_ZNK6DgIDGG15setAddNeighborsERK11DgQ2DICoordR11DgLocVector"
 "_ZNK8DgDiscRFI11DgQ2DICoord10DgGeoCoordeE11setVerticesERKS0_R9DgPolygon"
 "_ZNK8DgDiscRFI11DgQ2DICoord10DgGeoCoordeE11setVerticesERKS0_RK8DgRFBaseR9DgPolygon"
 "_ZNK8DgDiscRFI11DgQ2DICoord10DgGeoCoordeE12makeVerticesERK10DgLocation"
 "_ZNK8DgDiscRFI11DgQ2DICoord10DgGeoCoordeE12setNeighborsERKS0_R11DgLocVector"
 "_ZNK8DgDiscRFI11DgQ2DICoord10DgGeoCoordeE12setNeighborsERKS0_RK8DgRFBaseR11DgLocVector"
 "_ZNK8DgDiscRFI11DgQ2DICoord10DgGeoCoordeE13makeNeighborsERK10DgLocation"
 "_ZNK8DgDiscRFI11DgQ2DICoord10DgGeoCoordeE8dist2dblERKx"
 "_ZNK8DgDiscRFI11DgQ2DICoord10DgGeoCoordeE8dist2intERKx"
 "_ZNK8DgDiscRFI11DgQ2DICoord10DgGeoCoordeE8dist2strB5cxx11ERKx"
 "_ZNK8DgDiscRFI11DgQ2DICoord10DgGeoCoordeE8setPointERKS0_R10DgLocation"
 "_ZNK8DgDiscRFI11DgQ2DICoord10DgGeoCoordeE8setPointERKS0_RK8DgRFBaseR10DgLocation"
 "_ZNK8DgDiscRFI11DgQ2DICoord10DgGeoCoordeE9makePointERK10DgLocation"
 "_ZNK8DgRFBaseeqERKS_"
 "_ZNK8DgRFBaseneERKS_"
 "_ZNSt7__cxx1112basic_stringIcSt11char_traitsIcESaIcEE12_M_constructIPKcEEvT_S8_St20forward_iterator_tag"
 "_ZNSt7__cxx1115basic_stringbufIcSt11char_traitsIcESaIcEED1Ev"
 "_ZTI11DgBoundedRFI11DgQ2DICoord10DgGeoCoordeE"
 "_ZTI11DgLocVector"
 "_ZTI13DgBoundedIDGG"
 "_ZTI15DgBoundedRFBaseI10DgGeoCoordeE"
 "_ZTI9DgLocBase"
 "_ZTI9DgPolygon"
 "_ZTS11DgBoundedRFI11DgQ2DICoord10DgGeoCoordeE"
 "_ZTS11DgLocVector"
 "_ZTS13DgBoundedIDGG"
 "_ZTS15DgBoundedRFBaseI10DgGeoCoordeE"
 "_ZTS9DgLocBase"
 "_ZTS9DgPolygon"
 "_ZTV13DgBoundedIDGG"
 "_ZTV15DgBoundedRFBaseI10DgGeoCoordeE"
 "_ZTV9DgPolygon"
 "_ZGVZNK7DgIDGGS12undefAddressEvE5undef"
 "_ZN10DgLocation12clearAddressEv"
 "_ZN11DgLocVector9convertToERK8DgRFBase"
 "_ZN14DgBoundedIDGGSC1ERK7DgIDGGS"
 "_ZN14DgBoundedIDGGSC2ERK7DgIDGGS"
 "_ZN14DgBoundedIDGGSD0Ev"
 "_ZN14DgBoundedIDGGSD1Ev"
 "_ZN3dgg4util9to_stringIxEENSt7__cxx1112basic_stringIcSt11char_traitsIcESaIcEEERKT_"
 "_ZN9DgPolygonD0Ev"
 "_ZN9DgPolygonD1Ev"
 "_ZNK11DgBoundedRFI8DgResAddI11DgQ2DICoordE10DgGeoCoordeE11setVerticesERK10DgLocationR9DgPolygon"
 "_ZNK11DgBoundedRFI8DgResAddI11DgQ2DICoordE10DgGeoCoordeE11setVerticesERK10DgLocationRK8DgRFBaseR9DgPolygon"
 "_ZNK11DgBoundedRFI8DgResAddI11DgQ2DICoordE10DgGeoCoordeE11setVerticesERKS2_R9DgPolygon"
 "_ZNK11DgBoundedRFI8DgResAddI11DgQ2DICoordE10DgGeoCoordeE11setVerticesERKS2_RK8DgRFBaseR9DgPolygon"
 "_ZNK11DgBoundedRFI8DgResAddI11DgQ2DICoordE10DgGeoCoordeE12makeVerticesERK10DgLocation"
 "_ZNK11DgBoundedRFI8DgResAddI11DgQ2DICoordE10DgGeoCoordeE12setNeighborsERK10DgLocationR11DgLocVector"
 "_ZNK11DgBoundedRFI8DgResAddI11DgQ2DICoordE10DgGeoCoordeE12setNeighborsERKS2_R11DgLocVector"
 "_ZNK11DgBoundedRFI8DgResAddI11DgQ2DICoordE10DgGeoCoordeE12setNeighborsERKS2_RK8DgRFBaseR11DgLocVector"
 "_ZNK11DgBoundedRFI8DgResAddI11DgQ2DICoordE10DgGeoCoordeE13locFromSeqNumEy"
 "_ZNK11DgBoundedRFI8DgResAddI11DgQ2DICoordE10DgGeoCoordeE13makeNeighborsERK10DgLocation"
 "_ZNK11DgBoundedRFI8DgResAddI11DgQ2DICoordE10DgGeoCoordeE13validLocationERK10DgLocationb"
 "_ZNK11DgBoundedRFI8DgResAddI11DgQ2DICoordE10DgGeoCoordeE15lessThanAddressERKS2_S6_"
 "_ZNK11DgBoundedRFI8DgResAddI11DgQ2DICoordE10DgGeoCoordeE17decrementLocationER10DgLocationb"
 "_ZNK11DgBoundedRFI8DgResAddI11DgQ2DICoordE10DgGeoCoordeE17incrementLocationER10DgLocationb"
 "_ZNK11DgBoundedRFI8DgResAddI11DgQ2DICoordE10DgGeoCoordeE6seqNumERK10DgLocationb"
 "_ZNK11DgBoundedRFI8DgResAddI11DgQ2DICoordE10DgGeoCoordeE8dist2dblERKx"
 "_ZNK11DgBoundedRFI8DgResAddI11DgQ2DICoordE10DgGeoCoordeE8dist2intERKx"
 "_ZNK11DgBoundedRFI8DgResAddI11DgQ2DICoordE10DgGeoCoordeE8dist2strB5cxx11ERKx"
 "_ZNK11DgBoundedRFI8DgResAddI11DgQ2DICoordE10DgGeoCoordeE8setPointERK10DgLocationRK8DgRFBaseRS5_"
 "_ZNK11DgBoundedRFI8DgResAddI11DgQ2DICoordE10DgGeoCoordeE8setPointERK10DgLocationRS5_"
 "_ZNK11DgBoundedRFI8DgResAddI11DgQ2DICoordE10DgGeoCoordeE8setPointERKS2_R10DgLocation"
 "_ZNK11DgBoundedRFI8DgResAddI11DgQ2DICoordE10DgGeoCoordeE8setPointERKS2_RK8DgRFBaseR10DgLocation"
 "_ZNK11DgBoundedRFI8DgResAddI11DgQ2DICoordE10DgGeoCoordeE9backFrameEv"
 "_ZNK11DgBoundedRFI8DgResAddI11DgQ2DICoordE10DgGeoCoordeE9makePointERK10DgLocation"
 "_ZNK11DgLocVector11cardinalityEv"
 "_ZNK11DgLocVector15asAddressStringB5cxx11Ec"
 "_ZNK11DgLocVector15asAddressStringB5cxx11Ev"
 "_ZNK11DgLocVector8asStringB5cxx11Ec"
 "_ZNK11DgLocVector8asStringB5cxx11Ev"
 "_ZNK14DgBoundedIDGGS12validAddressERK8DgResAddI11DgQ2DICoordE"
 "_ZNK14DgBoundedIDGGS13addFromSeqNumEy"
 "_ZNK14DgBoundedIDGGS13seqNumAddressERK8DgResAddI11DgQ2DICoordE"
 "_ZNK14DgBoundedIDGGS16decrementAddressER8DgResAddI11DgQ2DICoordE"
 "_ZNK14DgBoundedIDGGS16incrementAddressER8DgResAddI11DgQ2DICoordE"
 "_ZNK15DgBoundedRFBaseI10DgGeoCoordeE8lessThanERK10DgLocationS4_b"
 "_ZNK4DgRFI8DgResAddI11DgQ2DICoordExE10getAddressERK10DgLocation"
 "_ZNK7DgIDGGS12undefAddressEv"
 "_ZNK8DgDiscRFI8DgResAddI11DgQ2DICoordE10DgGeoCoordeE11setVerticesERKS2_R9DgPolygon"
 "_ZNK8DgDiscRFI8DgResAddI11DgQ2DICoordE10DgGeoCoordeE11setVerticesERKS2_RK8DgRFBaseR9DgPolygon"
 "_ZNK8DgDiscRFI8DgResAddI11DgQ2DICoordE10DgGeoCoordeE12makeVerticesERK10DgLocation"
 "_ZNK8DgDiscRFI8DgResAddI11DgQ2DICoordE10DgGeoCoordeE12setNeighborsERKS2_R11DgLocVector"
 "_ZNK8DgDiscRFI8DgResAddI11DgQ2DICoordE10DgGeoCoordeE12setNeighborsERKS2_RK8DgRFBaseR11DgLocVector"
 "_ZNK8DgDiscRFI8DgResAddI11DgQ2DICoordE10DgGeoCoordeE13makeNeighborsERK10DgLocation"
 "_ZNK8DgDiscRFI8DgResAddI11DgQ2DICoordE10DgGeoCoordeE8dist2dblERKx"
 "_ZNK8DgDiscRFI8DgResAddI11DgQ2DICoordE10DgGeoCoordeE8dist2intERKx"
 "_ZNK8DgDiscRFI8DgResAddI11DgQ2DICoordE10DgGeoCoordeE8dist2strB5cxx11ERKx"
 "_ZNK8DgDiscRFI8DgResAddI11DgQ2DICoordE10DgGeoCoordeE8setPointERKS2_R10DgLocation"
 "_ZNK8DgDiscRFI8DgResAddI11DgQ2DICoordE10DgGeoCoordeE8setPointERKS2_RK8DgRFBaseR10DgLocation"
 "_ZNK8DgDiscRFI8DgResAddI11DgQ2DICoordE10DgGeoCoordeE9makePointERK10DgLocation"
 "_ZNK8DgRFBaseeqERKS_"
 "_ZNK8DgRFBaseneERKS_"
 "_ZNSt7__cxx1112basic_stringIcSt11char_traitsIcESaIcEE12_M_constructIPKcEEvT_S8_St20forward_iterator_tag"
 "_ZNSt7__cxx1115basic_stringbufIcSt11char_traitsIcESaIcEED1Ev"
 "_ZTI11DgBoundedRFI8DgResAddI11DgQ2DICoordE10DgGeoCoordeE"
 "_ZTI11DgLocVector"
 "_ZTI14DgBoundedIDGGS"
 "_ZTI15DgBoundedRFBaseI10DgGeoCoordeE"
 "_ZTI9DgLocBase"
 "_ZTI9DgPolygon"
 "_ZTS11DgBoundedRFI8DgResAddI11DgQ2DICoordE10DgGeoCoordeE"
 "_ZTS11DgLocVector"
 "_ZTS14DgBoundedIDGGS"
 "_ZTS15DgBoundedRFBaseI10DgGeoCoordeE"
 "_ZTS9DgLocBase"
 "_ZTS9DgPolygon"
 "_ZTV11DgBoundedRFI8DgResAddI11DgQ2DICoordE10DgGeoCoordeE"
 "_ZTV14DgBoundedIDGGS"
 "_ZTV15DgBoundedRFBaseI10DgGeoCoordeE"
 "_ZTV9DgPolygon"
 "_ZZNK7DgIDGGS12undefAddressEvE5undef"
 "_ZN10DgLocation12clearAddressEv"
 "_ZN11DgLocVector9convertToERK8DgRFBase"
 "_ZN13DgBoundedRF2DC1ERK8DgDiscRFI8DgIVec2D8DgDVec2DeERKS1_S7_"
 "_ZN13DgBoundedRF2DC2ERK8DgDiscRFI8DgIVec2D8DgDVec2DeERKS1_S7_"
 "_ZN13DgBoundedRF2DD0Ev"
 "_ZN13DgBoundedRF2DD1Ev"
 "_ZN3dgg4util9to_stringIxEENSt7__cxx1112basic_stringIcSt11char_traitsIcESaIcEEERKT_"
 "_ZN9DgPolygonD0Ev"
 "_ZN9DgPolygonD1Ev"
 "_ZNK11DgBoundedRFI8DgIVec2D8DgDVec2DeE11setVerticesERK10DgLocationR9DgPolygon"
 "_ZNK11DgBoundedRFI8DgIVec2D8DgDVec2DeE11setVerticesERK10DgLocationRK8DgRFBaseR9DgPolygon"
 "_ZNK11DgBoundedRFI8DgIVec2D8DgDVec2DeE11setVerticesERKS0_R9DgPolygon"
 "_ZNK11DgBoundedRFI8DgIVec2D8DgDVec2DeE11setVerticesERKS0_RK8DgRFBaseR9DgPolygon"
 "_ZNK11DgBoundedRFI8DgIVec2D8DgDVec2DeE12makeVerticesERK10DgLocation"
 "_ZNK11DgBoundedRFI8DgIVec2D8DgDVec2DeE12setNeighborsERK10DgLocationR11DgLocVector"
 "_ZNK11DgBoundedRFI8DgIVec2D8DgDVec2DeE12setNeighborsERKS0_R11DgLocVector"
 "_ZNK11DgBoundedRFI8DgIVec2D8DgDVec2DeE12setNeighborsERKS0_RK8DgRFBaseR11DgLocVector"
 "_ZNK11DgBoundedRFI8DgIVec2D8DgDVec2DeE13locFromSeqNumEy"
 "_ZNK11DgBoundedRFI8DgIVec2D8DgDVec2DeE13makeNeighborsERK10DgLocation"
 "_ZNK11DgBoundedRFI8DgIVec2D8DgDVec2DeE13validLocationERK10DgLocationb"
 "_ZNK11DgBoundedRFI8DgIVec2D8DgDVec2DeE15lessThanAddressERKS0_S4_"
 "_ZNK11DgBoundedRFI8DgIVec2D8DgDVec2DeE17decrementLocationER10DgLocationb"
 "_ZNK11DgBoundedRFI8DgIVec2D8DgDVec2DeE17incrementLocationER10DgLocationb"
 "_ZNK11DgBoundedRFI8DgIVec2D8DgDVec2DeE6seqNumERK10DgLocationb"
 "_ZNK11DgBoundedRFI8DgIVec2D8DgDVec2DeE8dist2dblERKx"
 "_ZNK11DgBoundedRFI8DgIVec2D8DgDVec2DeE8dist2intERKx"
 "_ZNK11DgBoundedRFI8DgIVec2D8DgDVec2DeE8dist2strB5cxx11ERKx"
 "_ZNK11DgBoundedRFI8DgIVec2D8DgDVec2DeE8setPointERK10DgLocationRK8DgRFBaseRS3_"
 "_ZNK11DgBoundedRFI8DgIVec2D8DgDVec2DeE8setPointERK10DgLocationRS3_"
 "_ZNK11DgBoundedRFI8DgIVec2D8DgDVec2DeE8setPointERKS0_R10DgLocation"
 "_ZNK11DgBoundedRFI8DgIVec2D8DgDVec2DeE8setPointERKS0_RK8DgRFBaseR10DgLocation"
 "_ZNK11DgBoundedRFI8DgIVec2D8DgDVec2DeE9backFrameEv"
 "_ZNK11DgBoundedRFI8DgIVec2D8DgDVec2DeE9makePointERK10DgLocation"
 "_ZNK11DgLocVector11cardinalityEv"
 "_ZNK11DgLocVector15asAddressStringB5cxx11Ec"
 "_ZNK11DgLocVector15asAddressStringB5cxx11Ev"
 "_ZNK11DgLocVector8asStringB5cxx11Ec"
 "_ZNK11DgLocVector8asStringB5cxx11Ev"
 "_ZNK13DgBoundedRF2D12validAddressERK8DgIVec2D"
 "_ZNK13DgBoundedRF2D13addFromSeqNumEy"
 "_ZNK13DgBoundedRF2D13seqNumAddressERK8DgIVec2D"
 "_ZNK13DgBoundedRF2D16decrementAddressER8DgIVec2D"
 "_ZNK13DgBoundedRF2D16incrementAddressER8DgIVec2D"
 "_ZNK15DgBoundedRFBaseI8DgDVec2DeE8lessThanERK10DgLocationS4_b"
 "_ZNK4DgRFI8DgIVec2DxE10getAddressERK10DgLocation"
 "_ZNK8DgDiscRFI8DgIVec2D8DgDVec2DeE11setVerticesERKS0_R9DgPolygon"
 "_ZNK8DgDiscRFI8DgIVec2D8DgDVec2DeE11setVerticesERKS0_RK8DgRFBaseR9DgPolygon"
 "_ZNK8DgDiscRFI8DgIVec2D8DgDVec2DeE12makeVerticesERK10DgLocation"
 "_ZNK8DgDiscRFI8DgIVec2D8DgDVec2DeE12setNeighborsERKS0_R11DgLocVector"
 "_ZNK8DgDiscRFI8DgIVec2D8DgDVec2DeE12setNeighborsERKS0_RK8DgRFBaseR11DgLocVector"
 "_ZNK8DgDiscRFI8DgIVec2D8DgDVec2DeE13makeNeighborsERK10DgLocation"
 "_ZNK8DgDiscRFI8DgIVec2D8DgDVec2DeE8dist2dblERKx"
 "_ZNK8DgDiscRFI8DgIVec2D8DgDVec2DeE8dist2intERKx"
 "_ZNK8DgDiscRFI8DgIVec2D8DgDVec2DeE8dist2strB5cxx11ERKx"
 "_ZNK8DgDiscRFI8DgIVec2D8DgDVec2DeE8setPointERKS0_R10DgLocation"
 "_ZNK8DgDiscRFI8DgIVec2D8DgDVec2DeE8setPointERKS0_RK8DgRFBaseR10DgLocation"
 "_ZNK8DgDiscRFI8DgIVec2D8DgDVec2DeE9makePointERK10DgLocation"
 "_ZNK8DgRFBaseeqERKS_"
 "_ZNK8DgRFBaseneERKS_"
 "_ZNSt7__cxx1112basic_stringIcSt11char_traitsIcESaIcEE12_M_constructIPKcEEvT_S8_St20forward_iterator_tag"
 "_ZTI11DgBoundedRFI8DgIVec2D8DgDVec2DeE"
 "_ZTI11DgLocVector"
 "_ZTI13DgBoundedRF2D"
 "_ZTI15DgBoundedRFBaseI8DgDVec2DeE"
 "_ZTI9DgLocBase"
 "_ZTI9DgPolygon"
 "_ZTS11DgBoundedRFI8DgIVec2D8DgDVec2DeE"
 "_ZTS11DgLocVector"
 "_ZTS13DgBoundedRF2D"
 "_ZTS15DgBoundedRFBaseI8DgDVec2DeE"
 "_ZTS9DgLocBase"
 "_ZTS9DgPolygon"
 "_ZTV13DgBoundedRF2D"
 "_ZTV15DgBoundedRFBaseI8DgDVec2DeE"
 "_ZTV9DgPolygon"
 "_ZGVZNK11DgDiscRFS2D12undefAddressEvE5undef"
 "_ZN10DgLocation12clearAddressEv"
 "_ZN11DgLocVector9convertToERK8DgRFBase"
 "_ZN14DgBoundedRFS2DC1ERK11DgDiscRFS2DRK8DgIVec2DS5_"
 "_ZN14DgBoundedRFS2DC2ERK11DgDiscRFS2DRK8DgIVec2DS5_"
 "_ZN14DgBoundedRFS2DD0Ev"
 "_ZN14DgBoundedRFS2DD1Ev"
 "_ZN3dgg4util9to_stringIiEENSt7__cxx1112basic_stringIcSt11char_traitsIcESaIcEEERKT_"
 "_ZN3dgg4util9to_stringIxEENSt7__cxx1112basic_stringIcSt11char_traitsIcESaIcEEERKT_"
 "_ZN9DgAddressI8DgResAddI8DgIVec2DEED0Ev"
 "_ZN9DgAddressI8DgResAddI8DgIVec2DEED1Ev"
 "_ZN9DgPolygonD0Ev"
 "_ZN9DgPolygonD1Ev"
 "_ZNK11DgBoundedRFI8DgResAddI8DgIVec2DE8DgDVec2DeE11setVerticesERK10DgLocationR9DgPolygon"
 "_ZNK11DgBoundedRFI8DgResAddI8DgIVec2DE8DgDVec2DeE11setVerticesERK10DgLocationRK8DgRFBaseR9DgPolygon"
 "_ZNK11DgBoundedRFI8DgResAddI8DgIVec2DE8DgDVec2DeE11setVerticesERKS2_R9DgPolygon"
 "_ZNK11DgBoundedRFI8DgResAddI8DgIVec2DE8DgDVec2DeE11setVerticesERKS2_RK8DgRFBaseR9DgPolygon"
 "_ZNK11DgBoundedRFI8DgResAddI8DgIVec2DE8DgDVec2DeE12makeVerticesERK10DgLocation"
 "_ZNK11DgBoundedRFI8DgResAddI8DgIVec2DE8DgDVec2DeE12setNeighborsERK10DgLocationR11DgLocVector"
 "_ZNK11DgBoundedRFI8DgResAddI8DgIVec2DE8DgDVec2DeE12setNeighborsERKS2_R11DgLocVector"
 "_ZNK11DgBoundedRFI8DgResAddI8DgIVec2DE8DgDVec2DeE12setNeighborsERKS2_RK8DgRFBaseR11DgLocVector"
 "_ZNK11DgBoundedRFI8DgResAddI8DgIVec2DE8DgDVec2DeE13locFromSeqNumEy"
 "_ZNK11DgBoundedRFI8DgResAddI8DgIVec2DE8DgDVec2DeE13makeNeighborsERK10DgLocation"
 "_ZNK11DgBoundedRFI8DgResAddI8DgIVec2DE8DgDVec2DeE13validLocationERK10DgLocationb"
 "_ZNK11DgBoundedRFI8DgResAddI8DgIVec2DE8DgDVec2DeE15lessThanAddressERKS2_S6_"
 "_ZNK11DgBoundedRFI8DgResAddI8DgIVec2DE8DgDVec2DeE17decrementLocationER10DgLocationb"
 "_ZNK11DgBoundedRFI8DgResAddI8DgIVec2DE8DgDVec2DeE17incrementLocationER10DgLocationb"
 "_ZNK11DgBoundedRFI8DgResAddI8DgIVec2DE8DgDVec2DeE6seqNumERK10DgLocationb"
 "_ZNK11DgBoundedRFI8DgResAddI8DgIVec2DE8DgDVec2DeE8dist2dblERKx"
 "_ZNK11DgBoundedRFI8DgResAddI8DgIVec2DE8DgDVec2DeE8dist2intERKx"
 "_ZNK11DgBoundedRFI8DgResAddI8DgIVec2DE8DgDVec2DeE8dist2strB5cxx11ERKx"
 "_ZNK11DgBoundedRFI8DgResAddI8DgIVec2DE8DgDVec2DeE8setPointERK10DgLocationRK8DgRFBaseRS5_"
 "_ZNK11DgBoundedRFI8DgResAddI8DgIVec2DE8DgDVec2DeE8setPointERK10DgLocationRS5_"
 "_ZNK11DgBoundedRFI8DgResAddI8DgIVec2DE8DgDVec2DeE8setPointERKS2_R10DgLocation"
 "_ZNK11DgBoundedRFI8DgResAddI8DgIVec2DE8DgDVec2DeE8setPointERKS2_RK8DgRFBaseR10DgLocation"
 "_ZNK11DgBoundedRFI8DgResAddI8DgIVec2DE8DgDVec2DeE9backFrameEv"
 "_ZNK11DgBoundedRFI8DgResAddI8DgIVec2DE8DgDVec2DeE9makePointERK10DgLocation"
 "_ZNK11DgDiscRFS2D12undefAddressEv"
 "_ZNK11DgLocVector11cardinalityEv"
 "_ZNK11DgLocVector15asAddressStringB5cxx11Ec"
 "_ZNK11DgLocVector15asAddressStringB5cxx11Ev"
 "_ZNK11DgLocVector8asStringB5cxx11Ec"
 "_ZNK11DgLocVector8asStringB5cxx11Ev"
 "_ZNK14DgBoundedRFS2D12validAddressERK8DgResAddI8DgIVec2DE"
 "_ZNK14DgBoundedRFS2D13addFromSeqNumEy"
 "_ZNK14DgBoundedRFS2D13seqNumAddressERK8DgResAddI8DgIVec2DE"
 "_ZNK14DgBoundedRFS2D16decrementAddressER8DgResAddI8DgIVec2DE"
 "_ZNK14DgBoundedRFS2D16incrementAddressER8DgResAddI8DgIVec2DE"
 "_ZNK15DgBoundedRFBaseI8DgDVec2DeE8lessThanERK10DgLocationS4_b"
 "_ZNK4DgRFI8DgResAddI8DgIVec2DExE10getAddressERK10DgLocation"
 "_ZNK4DgRFI8DgResAddI8DgIVec2DExE13createAddressERK13DgAddressBase"
 "_ZNK8DgDiscRFI8DgIVec2D8DgDVec2DeE11setVerticesERKS0_R9DgPolygon"
 "_ZNK8DgDiscRFI8DgResAddI8DgIVec2DE8DgDVec2DeE11setVerticesERKS2_R9DgPolygon"
 "_ZNK8DgDiscRFI8DgResAddI8DgIVec2DE8DgDVec2DeE11setVerticesERKS2_RK8DgRFBaseR9DgPolygon"
 "_ZNK8DgDiscRFI8DgResAddI8DgIVec2DE8DgDVec2DeE12makeVerticesERK10DgLocation"
 "_ZNK8DgDiscRFI8DgResAddI8DgIVec2DE8DgDVec2DeE12setNeighborsERKS2_R11DgLocVector"
 "_ZNK8DgDiscRFI8DgResAddI8DgIVec2DE8DgDVec2DeE12setNeighborsERKS2_RK8DgRFBaseR11DgLocVector"
 "_ZNK8DgDiscRFI8DgResAddI8DgIVec2DE8DgDVec2DeE13makeNeighborsERK10DgLocation"
 "_ZNK8DgDiscRFI8DgResAddI8DgIVec2DE8DgDVec2DeE8dist2dblERKx"
 "_ZNK8DgDiscRFI8DgResAddI8DgIVec2DE8DgDVec2DeE8dist2intERKx"
 "_ZNK8DgDiscRFI8DgResAddI8DgIVec2DE8DgDVec2DeE8dist2strB5cxx11ERKx"
 "_ZNK8DgDiscRFI8DgResAddI8DgIVec2DE8DgDVec2DeE8setPointERKS2_R10DgLocation"
 "_ZNK8DgDiscRFI8DgResAddI8DgIVec2DE8DgDVec2DeE8setPointERKS2_RK8DgRFBaseR10DgLocation"
 "_ZNK8DgDiscRFI8DgResAddI8DgIVec2DE8DgDVec2DeE9makePointERK10DgLocation"
 "_ZNK8DgRFBaseeqERKS_"
 "_ZNK8DgRFBaseneERKS_"
 "_ZNK8DgResAddI8DgIVec2DEcvNSt7__cxx1112basic_stringIcSt11char_traitsIcESaIcEEEEv"
 "_ZNK9DgAddressI8DgResAddI8DgIVec2DEE7writeToERSo"
 "_ZNK9DgDiscRFSI8DgIVec2D8DgDVec2DeE14setAddVerticesERK8DgResAddIS0_ER9DgPolygon"
 "_ZNSt7__cxx1112basic_stringIcSt11char_traitsIcESaIcEE12_M_constructIPKcEEvT_S8_St20forward_iterator_tag"
 "_ZNSt7__cxx1115basic_stringbufIcSt11char_traitsIcESaIcEED1Ev"
 "_ZTI11DgBoundedRFI8DgResAddI8DgIVec2DE8DgDVec2DeE"
 "_ZTI11DgLocVector"
 "_ZTI13DgAddressBase"
 "_ZTI14DgBoundedRFS2D"
 "_ZTI15DgBoundedRFBaseI8DgDVec2DeE"
 "_ZTI9DgAddressI8DgResAddI8DgIVec2DEE"
 "_ZTI9DgLocBase"
 "_ZTI9DgPolygon"
 "_ZTS11DgBoundedRFI8DgResAddI8DgIVec2DE8DgDVec2DeE"
 "_ZTS11DgLocVector"
 "_ZTS13DgAddressBase"
 "_ZTS14DgBoundedRFS2D"
 "_ZTS15DgBoundedRFBaseI8DgDVec2DeE"
 "_ZTS9DgAddressI8DgResAddI8DgIVec2DEE"
 "_ZTS9DgLocBase"
 "_ZTS9DgPolygon"
 "_ZTV11DgBoundedRFI8DgResAddI8DgIVec2DE8DgDVec2DeE"
 "_ZTV14DgBoundedRFS2D"
 "_ZTV15DgBoundedRFBaseI8DgDVec2DeE"
 "_ZTV9DgAddressI8DgResAddI8DgIVec2DEE"
 "_ZTV9DgPolygon"
 "_ZZNK11DgDiscRFS2D12undefAddressEvE5undef"
 "_ZN11DgLocVector9convertToERK8DgRFBase"
 "_ZN6DgCell10fromStringEPKcc"
 "_ZN6DgCell12clearAddressEv"
 "_ZN6DgCell7setNodeERK10DgLocation"
 "_ZN6DgCell9convertToERK8DgRFBase"
 "_ZN6DgCellD0Ev"
 "_ZN6DgCellD1Ev"
 "_ZN9DgPolygonD0Ev"
 "_ZN9DgPolygonD1Ev"
 "_ZNK11DgLocVector11cardinalityEv"
 "_ZNK11DgLocVector15asAddressStringB5cxx11Ec"
 "_ZNK11DgLocVector15asAddressStringB5cxx11Ev"
 "_ZNK11DgLocVector8asStringB5cxx11Ec"
 "_ZNK11DgLocVector8asStringB5cxx11Ev"
 "_ZNK6DgCell11cardinalityEv"
 "_ZNK6DgCell15asAddressStringB5cxx11Ec"
 "_ZNK6DgCell15asAddressStringB5cxx11Ev"
 "_ZNK6DgCell8asStringB5cxx11Ec"
 "_ZNK6DgCell8asStringB5cxx11Ev"
 "_ZNK8DgRFBaseeqERKS_"
 "_ZNK8DgRFBaseneERKS_"
 "_ZTI11DgLocVector"
 "_ZTI6DgCell"
 "_ZTI9DgLocBase"
 "_ZTI9DgPolygon"
 "_ZTS11DgLocVector"
 "_ZTS6DgCell"
 "_ZTS9DgLocBase"
 "_ZTS9DgPolygon"
 "_ZTV6DgCell"
 "_ZTV9DgPolygon"
 "_Z4max3fff"
 "_Z4min3fff"
 "_Z6sscanfPKcS0_z"
 "_Z7sprintfPcPKcz"
 "_Z9hlsHelperfff"
 "_ZGVZN7DgColorC4EvE7defNameB5cxx11"
 "_ZN7DgColor10undefColorE"
 "_ZN7DgColor15linearSpreadHLSERKS_S1_RSt6vectorIPS_SaIS3_EEi"
 "_ZN7DgColor15linearSpreadRGBERKS_S1_RSt6vectorIPS_SaIS3_EEi"
 "_ZN7DgColor3setERKNSt7__cxx1112basic_stringIcSt11char_traitsIcESaIcEEEi"
 "_ZN7DgColor3setEfff"
 "_ZN7DgColor3setEffff"
 "_ZN7DgColor6setHLSEfff"
 "_ZNK7DgColor10saturationEv"
 "_ZNK7DgColor3hlsEPfS0_S0_"
 "_ZNK7DgColor3hueEv"
 "_ZNK7DgColor4cmykEPfS0_S0_S0_"
 "_ZNK7DgColor4cyanEv"
 "_ZNK7DgColor5blackEv"
 "_ZNK7DgColor6yellowEv"
 "_ZNK7DgColor7magentaEv"
 "_ZNK7DgColor9lightnessEv"
 "_ZNSt6vectorIP7DgColorSaIS1_EE17_M_realloc_insertIJRKS1_EEEvN9__gnu_cxx17__normal_iteratorIPS1_S3_EEDpOT_"
 "_ZZN7DgColorC4EvE7defNameB5cxx11"
 "_ZN15DgConverterBase10isTraceOn_E"
 "_ZN15DgConverterBaseC1ERK8DgRFBaseS2_b"
 "_ZN15DgConverterBaseC2ERK8DgRFBaseS2_b"
 "_ZN15DgConverterBaseD0Ev"
 "_ZN15DgConverterBaseD1Ev"
 "_ZN15DgConverterBaseD2Ev"
 "_ZN15DgConverterBaseaSERKS_"
 "_ZNK10DgLocation8asStringB5cxx11Ev"
 "_ZNK15DgConverterBase14forceConnectToEb"
 "_ZNK15DgConverterBase16forceConnectFromEb"
 "_ZNK15DgConverterBase7convertEP10DgLocation"
 "_ZNK19DgIdentityConverter22createConvertedAddressERK13DgAddressBase"
 "_ZNK8DgRFBaseeqERKS_"
 "_ZNK8DgRFBaseneERKS_"
 "_ZNSt7__cxx1112basic_stringIcSt11char_traitsIcESaIcEE12_M_constructIPKcEEvT_S8_St20forward_iterator_tag"
 "_ZNSt7__cxx1112basic_stringIcSt11char_traitsIcESaIcEE12_M_constructIPcEEvT_S7_St20forward_iterator_tag"
 "_ZTI15DgConverterBase"
 "_ZTS15DgConverterBase"
 "_ZTV15DgConverterBase"
 "_ZN8DgDVec2D10fromStringEPKcc"
 "_ZN8DgDVec2D13undefDgDVec2DE"
 "_ZN8DgDVec2DC1ERK8DgDVec3D"
 "_ZN8DgDVec2DC2ERK8DgDVec3D"
 "_ZN8DgDVec2DaSERK8DgDVec3D"
 "_ZNSt7__cxx1112basic_stringIcSt11char_traitsIcESaIcEE12_M_constructIPKcEEvT_S8_St20forward_iterator_tag"
 "_ZNSt7__cxx1115basic_stringbufIcSt11char_traitsIcESaIcEED1Ev"
 "_ZN8DgDVec3D13undefDgDVec3DE"
 "_ZN11DgDiscRFS2D6makeRFER11DgRFNetworkRK4DgRFI8DgDVec2DeEijbbRKNSt7__cxx1112basic_stringIcSt11char_traitsIcESaIcEEESC_bib"
 "_ZNSt7__cxx1112basic_stringIcSt11char_traitsIcESaIcEE12_M_constructIPKcEEvT_S8_St20forward_iterator_tag"
 "_ZN14DgDistanceBaseD0Ev"
 "_ZN14DgDistanceBaseD1Ev"
 "_ZN14DgDistanceBaseD2Ev"
 "_ZTI14DgDistanceBase"
 "_ZTS14DgDistanceBase"
 "_ZTV14DgDistanceBase"
 "_ZN10DgDistanceIxED0Ev"
 "_ZN10DgDistanceIxED1Ev"
 "_ZN10DgLocation12clearAddressEv"
 "_ZN11DgLocVector9convertToERK8DgRFBase"
 "_ZN13DgDmdD4Grid2D5xOff_E"
 "_ZN13DgDmdD4Grid2D5yOff_E"
 "_ZN13DgDmdD4Grid2D6yOff2_E"
 "_ZN13DgDmdD4Grid2D8skewFac_E"
 "_ZN13DgDmdD4Grid2D9xOffComp_E"
 "_ZN13DgDmdD4Grid2DD0Ev"
 "_ZN13DgDmdD4Grid2DD1Ev"
 "_ZN3dgg4util9to_stringIxEENSt7__cxx1112basic_stringIcSt11char_traitsIcESaIcEEERKT_"
 "_ZN4DgRFI8DgIVec2DxE6jumpRFEP10DgLocation"
 "_ZN9DgAddressI8DgDVec2DED0Ev"
 "_ZN9DgAddressI8DgDVec2DED1Ev"
 "_ZN9DgAddressI8DgIVec2DED0Ev"
 "_ZN9DgAddressI8DgIVec2DED1Ev"
 "_ZN9DgPolygonD0Ev"
 "_ZN9DgPolygonD1Ev"
 "_ZNK10DgDiscRF2D12undefAddressEv"
 "_ZNK10DgDiscRF2D7add2strB5cxx11ERK8DgIVec2D"
 "_ZNK10DgDiscRF2D7add2strB5cxx11ERK8DgIVec2Dc"
 "_ZNK10DgDiscRF2D7str2addEP8DgIVec2DPKcc"
 "_ZNK10DgLocation8asStringB5cxx11Ev"
 "_ZNK11DgLocVector11cardinalityEv"
 "_ZNK11DgLocVector15asAddressStringB5cxx11Ec"
 "_ZNK11DgLocVector15asAddressStringB5cxx11Ev"
 "_ZNK11DgLocVector8asStringB5cxx11Ec"
 "_ZNK11DgLocVector8asStringB5cxx11Ev"
 "_ZNK13DgDmdD4Grid2D11invQuantifyERK8DgIVec2D"
 "_ZNK13DgDmdD4Grid2D14setAddVerticesERK8DgIVec2DR9DgPolygon"
 "_ZNK13DgDmdD4Grid2D15setAddNeighborsERK8DgIVec2DR11DgLocVector"
 "_ZNK13DgDmdD4Grid2D4distERK8DgIVec2DS2_"
 "_ZNK13DgDmdD4Grid2D8quantifyERK8DgDVec2D"
 "_ZNK4DgRFI8DgIVec2DxE10fromStringER10DgLocationPKcc"
 "_ZNK4DgRFI8DgIVec2DxE10getAddressERK10DgLocation"
 "_ZNK4DgRFI8DgIVec2DxE11copyAddressERK13DgAddressBasePS2_"
 "_ZNK4DgRFI8DgIVec2DxE12equalAddressERK13DgAddressBaseS4_"
 "_ZNK4DgRFI8DgIVec2DxE12makeLocationERKS0_"
 "_ZNK4DgRFI8DgIVec2DxE13createAddressERK13DgAddressBase"
 "_ZNK4DgRFI8DgIVec2DxE13createAddressEv"
 "_ZNK4DgRFI8DgIVec2DxE14createLocationERK10DgLocationb"
 "_ZNK4DgRFI8DgIVec2DxE15toAddressStringB5cxx11ERK10DgLocation"
 "_ZNK4DgRFI8DgIVec2DxE15toAddressStringB5cxx11ERK10DgLocationc"
 "_ZNK4DgRFI8DgIVec2DxE15toAddressStringB5cxx11ERK11DgLocVector"
 "_ZNK4DgRFI8DgIVec2DxE15toAddressStringB5cxx11ERK11DgLocVectorc"
 "_ZNK4DgRFI8DgIVec2DxE5toIntERK14DgDistanceBase"
 "_ZNK4DgRFI8DgIVec2DxE8distanceERK10DgLocationS4_b"
 "_ZNK4DgRFI8DgIVec2DxE8toDoubleERK14DgDistanceBase"
 "_ZNK4DgRFI8DgIVec2DxE8toStringB5cxx11ERK10DgLocation"
 "_ZNK4DgRFI8DgIVec2DxE8toStringB5cxx11ERK10DgLocationc"
 "_ZNK4DgRFI8DgIVec2DxE8toStringB5cxx11ERK11DgLocVector"
 "_ZNK4DgRFI8DgIVec2DxE8toStringB5cxx11ERK11DgLocVectorc"
 "_ZNK4DgRFI8DgIVec2DxE8toStringB5cxx11ERK14DgDistanceBase"
 "_ZNK8DgDiscRFI8DgIVec2D8DgDVec2DeE11setAddPointERKS0_R10DgLocation"
 "_ZNK8DgDiscRFI8DgIVec2D8DgDVec2DeE11setVerticesERK10DgLocationR9DgPolygon"
 "_ZNK8DgDiscRFI8DgIVec2D8DgDVec2DeE11setVerticesERK10DgLocationRK8DgRFBaseR9DgPolygon"
 "_ZNK8DgDiscRFI8DgIVec2D8DgDVec2DeE11setVerticesERKS0_R9DgPolygon"
 "_ZNK8DgDiscRFI8DgIVec2D8DgDVec2DeE11setVerticesERKS0_RK8DgRFBaseR9DgPolygon"
 "_ZNK8DgDiscRFI8DgIVec2D8DgDVec2DeE12makeVerticesERK10DgLocation"
 "_ZNK8DgDiscRFI8DgIVec2D8DgDVec2DeE12makeVerticesERKS0_"
 "_ZNK8DgDiscRFI8DgIVec2D8DgDVec2DeE12setNeighborsERK10DgLocationR11DgLocVector"
 "_ZNK8DgDiscRFI8DgIVec2D8DgDVec2DeE12setNeighborsERKS0_R11DgLocVector"
 "_ZNK8DgDiscRFI8DgIVec2D8DgDVec2DeE12setNeighborsERKS0_RK8DgRFBaseR11DgLocVector"
 "_ZNK8DgDiscRFI8DgIVec2D8DgDVec2DeE13makeNeighborsERK10DgLocation"
 "_ZNK8DgDiscRFI8DgIVec2D8DgDVec2DeE13makeNeighborsERKS0_"
 "_ZNK8DgDiscRFI8DgIVec2D8DgDVec2DeE8dist2dblERKx"
 "_ZNK8DgDiscRFI8DgIVec2D8DgDVec2DeE8dist2intERKx"
 "_ZNK8DgDiscRFI8DgIVec2D8DgDVec2DeE8dist2strB5cxx11ERKx"
 "_ZNK8DgDiscRFI8DgIVec2D8DgDVec2DeE8setPointERK10DgLocationRK8DgRFBaseRS3_"
 "_ZNK8DgDiscRFI8DgIVec2D8DgDVec2DeE8setPointERK10DgLocationRS3_"
 "_ZNK8DgDiscRFI8DgIVec2D8DgDVec2DeE8setPointERKS0_R10DgLocation"
 "_ZNK8DgDiscRFI8DgIVec2D8DgDVec2DeE8setPointERKS0_RK8DgRFBaseR10DgLocation"
 "_ZNK8DgDiscRFI8DgIVec2D8DgDVec2DeE9makePointERK10DgLocation"
 "_ZNK8DgDiscRFI8DgIVec2D8DgDVec2DeE9makePointERKS0_"
 "_ZNK8DgRFBase10vecAddressERK8DgDVec2D"
 "_ZNK8DgRFBase11vecLocationERK8DgDVec2D"
 "_ZNK8DgRFBase13getVecAddressERK13DgAddressBase"
 "_ZNK8DgRFBase14getVecLocationERK10DgLocation"
 "_ZNK8DgRFBase8undefLocEv"
 "_ZNK8DgRFBaseeqERKS_"
 "_ZNK8DgRFBaseneERKS_"
 "_ZNK9DgAddressI8DgDVec2DE7writeToERSo"
 "_ZNK9DgAddressI8DgIVec2DE7writeToERSo"
 "_ZNSt6vectorIP13DgAddressBaseSaIS1_EE12emplace_backIJS1_EEEvDpOT_"
 "_ZNSt6vectorIP13DgAddressBaseSaIS1_EE17_M_realloc_insertIJS1_EEEvN9__gnu_cxx17__normal_iteratorIPS1_S3_EEDpOT_"
 "_ZNSt7__cxx1112basic_stringIcSt11char_traitsIcESaIcEE12_M_constructIPKcEEvT_S8_St20forward_iterator_tag"
 "_ZNSt7__cxx1112basic_stringIcSt11char_traitsIcESaIcEE12_M_constructIPcEEvT_S7_St20forward_iterator_tag"
 "_ZTI10DgDiscRF2D"
 "_ZTI10DgDistanceIxE"
 "_ZTI11DgLocVector"
 "_ZTI13DgAddressBase"
 "_ZTI13DgDmdD4Grid2D"
 "_ZTI14DgDistanceBase"
 "_ZTI4DgRFI8DgIVec2DxE"
 "_ZTI8DgDiscRFI8DgIVec2D8DgDVec2DeE"
 "_ZTI8DgRFBase"
 "_ZTI9DgAddressI8DgDVec2DE"
 "_ZTI9DgAddressI8DgIVec2DE"
 "_ZTI9DgLocBase"
 "_ZTI9DgPolygon"
 "_ZTS10DgDiscRF2D"
 "_ZTS10DgDistanceIxE"
 "_ZTS11DgLocVector"
 "_ZTS13DgAddressBase"
 "_ZTS13DgDmdD4Grid2D"
 "_ZTS14DgDistanceBase"
 "_ZTS4DgRFI8DgIVec2DxE"
 "_ZTS8DgDiscRFI8DgIVec2D8DgDVec2DeE"
 "_ZTS8DgRFBase"
 "_ZTS9DgAddressI8DgDVec2DE"
 "_ZTS9DgAddressI8DgIVec2DE"
 "_ZTS9DgLocBase"
 "_ZTS9DgPolygon"
 "_ZTV10DgDistanceIxE"
 "_ZTV13DgDmdD4Grid2D"
 "_ZTV4DgRFI8DgIVec2DxE"
 "_ZTV9DgAddressI8DgDVec2DE"
 "_ZTV9DgAddressI8DgIVec2DE"
 "_ZTV9DgPolygon"
 "_ZGVZNK11DgDiscRFS2D12undefAddressEvE5undef"
 "_ZN10DgDistanceIeED0Ev"
 "_ZN10DgDistanceIeED1Ev"
 "_ZN10DgDistanceIxED0Ev"
 "_ZN10DgDistanceIxED1Ev"
 "_ZN10DgLocation12clearAddressEv"
 "_ZN10DgLocationC1ERKS_"
 "_ZN11DgLocVector9convertToERK8DgRFBase"
 "_ZN12DgContCartRFD0Ev"
 "_ZN12DgContCartRFD1Ev"
 "_ZN14DgDmdD4Grid2DSC1ER11DgRFNetworkRK4DgRFI8DgDVec2DeEijbbRKNSt7__cxx1112basic_stringIcSt11char_traitsIcESaIcEEE"
 "_ZN14DgDmdD4Grid2DSC1ERKS_"
 "_ZN14DgDmdD4Grid2DSC2ER11DgRFNetworkRK4DgRFI8DgDVec2DeEijbbRKNSt7__cxx1112basic_stringIcSt11char_traitsIcESaIcEEE"
 "_ZN14DgDmdD4Grid2DSC2ERKS_"
 "_ZN14DgDmdD4Grid2DSD0Ev"
 "_ZN14DgDmdD4Grid2DSD1Ev"
 "_ZN14DgDmdD4Grid2DSD2Ev"
 "_ZN14DgDmdD4Grid2DSaSERKS_"
 "_ZN17DgAddResConverterI8DgIVec2D8DgDVec2DeED0Ev"
 "_ZN17DgAddResConverterI8DgIVec2D8DgDVec2DeED1Ev"
 "_ZN17DgResAddConverterI8DgIVec2D8DgDVec2DeED0Ev"
 "_ZN17DgResAddConverterI8DgIVec2D8DgDVec2DeED1Ev"
 "_ZN21DgContAffineConverterD0Ev"
 "_ZN21DgContAffineConverterD1Ev"
 "_ZN24DgContInvAffineConverterD0Ev"
 "_ZN24DgContInvAffineConverterD1Ev"
 "_ZN3dgg4util9to_stringIiEENSt7__cxx1112basic_stringIcSt11char_traitsIcESaIcEEERKT_"
 "_ZN3dgg4util9to_stringIxEENSt7__cxx1112basic_stringIcSt11char_traitsIcESaIcEEERKT_"
 "_ZN4DgRFI8DgDVec2DeE6jumpRFEP10DgLocation"
 "_ZN4DgRFI8DgIVec2DxE6jumpRFEP10DgLocation"
 "_ZN4DgRFI8DgResAddI8DgIVec2DExE6jumpRFEP10DgLocation"
 "_ZN8DgDiscRFI8DgIVec2D8DgDVec2DeE16DgQuantConverterD0Ev"
 "_ZN8DgDiscRFI8DgIVec2D8DgDVec2DeE16DgQuantConverterD1Ev"
 "_ZN8DgDiscRFI8DgIVec2D8DgDVec2DeE19DgInvQuantConverterD0Ev"
 "_ZN8DgDiscRFI8DgIVec2D8DgDVec2DeE19DgInvQuantConverterD1Ev"
 "_ZN8DgDiscRFI8DgResAddI8DgIVec2DE8DgDVec2DeE16DgQuantConverterD0Ev"
 "_ZN8DgDiscRFI8DgResAddI8DgIVec2DE8DgDVec2DeE16DgQuantConverterD1Ev"
 "_ZN8DgDiscRFI8DgResAddI8DgIVec2DE8DgDVec2DeE19DgInvQuantConverterD0Ev"
 "_ZN8DgDiscRFI8DgResAddI8DgIVec2DE8DgDVec2DeE19DgInvQuantConverterD1Ev"
 "_ZN8DgResAddI8DgIVec2DEaSERKS1_"
 "_ZN9DgAddressI8DgDVec2DED0Ev"
 "_ZN9DgAddressI8DgDVec2DED1Ev"
 "_ZN9DgAddressI8DgIVec2DED0Ev"
 "_ZN9DgAddressI8DgIVec2DED1Ev"
 "_ZN9DgAddressI8DgResAddI8DgIVec2DEED0Ev"
 "_ZN9DgAddressI8DgResAddI8DgIVec2DEED1Ev"
 "_ZN9DgPolygonD0Ev"
 "_ZN9DgPolygonD1Ev"
 "_ZNK10DgDiscRF2D12undefAddressEv"
 "_ZNK10DgDiscRF2D7add2strB5cxx11ERK8DgIVec2D"
 "_ZNK10DgDiscRF2D7add2strB5cxx11ERK8DgIVec2Dc"
 "_ZNK10DgDiscRF2D7str2addEP8DgIVec2DPKcc"
 "_ZNK10DgLocation8asStringB5cxx11Ev"
 "_ZNK11DgConverterI8DgDVec2De8DgIVec2DxE22createConvertedAddressERK13DgAddressBase"
 "_ZNK11DgConverterI8DgDVec2De8DgResAddI8DgIVec2DExE22createConvertedAddressERK13DgAddressBase"
 "_ZNK11DgConverterI8DgDVec2DeS0_eE22createConvertedAddressERK13DgAddressBase"
 "_ZNK11DgConverterI8DgIVec2Dx8DgDVec2DeE22createConvertedAddressERK13DgAddressBase"
 "_ZNK11DgConverterI8DgIVec2Dx8DgResAddIS0_ExE22createConvertedAddressERK13DgAddressBase"
 "_ZNK11DgConverterI8DgResAddI8DgIVec2DEx8DgDVec2DeE22createConvertedAddressERK13DgAddressBase"
 "_ZNK11DgConverterI8DgResAddI8DgIVec2DExS1_xE22createConvertedAddressERK13DgAddressBase"
 "_ZNK11DgDiscRFS2D12undefAddressEv"
 "_ZNK11DgLocVector11cardinalityEv"
 "_ZNK11DgLocVector15asAddressStringB5cxx11Ec"
 "_ZNK11DgLocVector15asAddressStringB5cxx11Ev"
 "_ZNK11DgLocVector8asStringB5cxx11Ec"
 "_ZNK11DgLocVector8asStringB5cxx11Ev"
 "_ZNK12DgContCartRF10vecAddressERK8DgDVec2D"
 "_ZNK12DgContCartRF11vecLocationERK8DgDVec2D"
 "_ZNK12DgContCartRF12undefAddressEv"
 "_ZNK12DgContCartRF13getVecAddressERK13DgAddressBase"
 "_ZNK12DgContCartRF14getVecLocationERK10DgLocation"
 "_ZNK12DgContCartRF4distERK8DgDVec2DS2_"
 "_ZNK12DgContCartRF7add2strB5cxx11ERK8DgDVec2D"
 "_ZNK12DgContCartRF7add2strB5cxx11ERK8DgDVec2Dc"
 "_ZNK12DgContCartRF7str2addEP8DgDVec2DPKcc"
 "_ZNK12DgContCartRF8dist2dblERKe"
 "_ZNK12DgContCartRF8dist2intERKe"
 "_ZNK12DgContCartRF8dist2strB5cxx11ERKe"
 "_ZNK13DgDmdD4Grid2D11invQuantifyERK8DgIVec2D"
 "_ZNK13DgDmdD4Grid2D8quantifyERK8DgDVec2D"
 "_ZNK14DgDmdD4Grid2DS13setAddParentsERK8DgResAddI8DgIVec2DER11DgLocVector"
 "_ZNK14DgDmdD4Grid2DS17setAddAllChildrenERK8DgResAddI8DgIVec2DER11DgLocVector"
 "_ZNK14DgDmdD4Grid2DS22setAddBoundaryChildrenERK8DgResAddI8DgIVec2DER11DgLocVector"
 "_ZNK14DgDmdD4Grid2DS22setAddInteriorChildrenERK8DgResAddI8DgIVec2DER11DgLocVector"
 "_ZNK17DgAddResConverterI8DgIVec2D8DgDVec2DeE19convertTypedAddressERKS0_"
 "_ZNK17DgResAddConverterI8DgIVec2D8DgDVec2DeE19convertTypedAddressERK8DgResAddIS0_E"
 "_ZNK21DgContAffineConverter19convertTypedAddressERK8DgDVec2D"
 "_ZNK24DgContInvAffineConverter19convertTypedAddressERK8DgDVec2D"
 "_ZNK4DgRFI8DgDVec2DeE10fromStringER10DgLocationPKcc"
 "_ZNK4DgRFI8DgDVec2DeE10getAddressERK10DgLocation"
 "_ZNK4DgRFI8DgDVec2DeE11copyAddressERK13DgAddressBasePS2_"
 "_ZNK4DgRFI8DgDVec2DeE12equalAddressERK13DgAddressBaseS4_"
 "_ZNK4DgRFI8DgDVec2DeE12makeLocationERKS0_"
 "_ZNK4DgRFI8DgDVec2DeE13createAddressERK13DgAddressBase"
 "_ZNK4DgRFI8DgDVec2DeE13createAddressEv"
 "_ZNK4DgRFI8DgDVec2DeE14createLocationERK10DgLocationb"
 "_ZNK4DgRFI8DgDVec2DeE15toAddressStringB5cxx11ERK10DgLocation"
 "_ZNK4DgRFI8DgDVec2DeE15toAddressStringB5cxx11ERK10DgLocationc"
 "_ZNK4DgRFI8DgDVec2DeE15toAddressStringB5cxx11ERK11DgLocVector"
 "_ZNK4DgRFI8DgDVec2DeE15toAddressStringB5cxx11ERK11DgLocVectorc"
 "_ZNK4DgRFI8DgDVec2DeE5toIntERK14DgDistanceBase"
 "_ZNK4DgRFI8DgDVec2DeE8distanceERK10DgLocationS4_b"
 "_ZNK4DgRFI8DgDVec2DeE8toDoubleERK14DgDistanceBase"
 "_ZNK4DgRFI8DgDVec2DeE8toStringB5cxx11ERK10DgLocation"
 "_ZNK4DgRFI8DgDVec2DeE8toStringB5cxx11ERK10DgLocationc"
 "_ZNK4DgRFI8DgDVec2DeE8toStringB5cxx11ERK11DgLocVector"
 "_ZNK4DgRFI8DgDVec2DeE8toStringB5cxx11ERK11DgLocVectorc"
 "_ZNK4DgRFI8DgDVec2DeE8toStringB5cxx11ERK14DgDistanceBase"
 "_ZNK4DgRFI8DgIVec2DxE10fromStringER10DgLocationPKcc"
 "_ZNK4DgRFI8DgIVec2DxE10getAddressERK10DgLocation"
 "_ZNK4DgRFI8DgIVec2DxE11copyAddressERK13DgAddressBasePS2_"
 "_ZNK4DgRFI8DgIVec2DxE12equalAddressERK13DgAddressBaseS4_"
 "_ZNK4DgRFI8DgIVec2DxE12makeLocationERKS0_"
 "_ZNK4DgRFI8DgIVec2DxE13createAddressERK13DgAddressBase"
 "_ZNK4DgRFI8DgIVec2DxE13createAddressEv"
 "_ZNK4DgRFI8DgIVec2DxE14createLocationERK10DgLocationb"
 "_ZNK4DgRFI8DgIVec2DxE15toAddressStringB5cxx11ERK10DgLocation"
 "_ZNK4DgRFI8DgIVec2DxE15toAddressStringB5cxx11ERK10DgLocationc"
 "_ZNK4DgRFI8DgIVec2DxE15toAddressStringB5cxx11ERK11DgLocVector"
 "_ZNK4DgRFI8DgIVec2DxE15toAddressStringB5cxx11ERK11DgLocVectorc"
 "_ZNK4DgRFI8DgIVec2DxE5toIntERK14DgDistanceBase"
 "_ZNK4DgRFI8DgIVec2DxE8distanceERK10DgLocationS4_b"
 "_ZNK4DgRFI8DgIVec2DxE8toDoubleERK14DgDistanceBase"
 "_ZNK4DgRFI8DgIVec2DxE8toStringB5cxx11ERK10DgLocation"
 "_ZNK4DgRFI8DgIVec2DxE8toStringB5cxx11ERK10DgLocationc"
 "_ZNK4DgRFI8DgIVec2DxE8toStringB5cxx11ERK11DgLocVector"
 "_ZNK4DgRFI8DgIVec2DxE8toStringB5cxx11ERK11DgLocVectorc"
 "_ZNK4DgRFI8DgIVec2DxE8toStringB5cxx11ERK14DgDistanceBase"
 "_ZNK4DgRFI8DgResAddI8DgIVec2DExE10fromStringER10DgLocationPKcc"
 "_ZNK4DgRFI8DgResAddI8DgIVec2DExE10getAddressERK10DgLocation"
 "_ZNK4DgRFI8DgResAddI8DgIVec2DExE11copyAddressERK13DgAddressBasePS4_"
 "_ZNK4DgRFI8DgResAddI8DgIVec2DExE12equalAddressERK13DgAddressBaseS6_"
 "_ZNK4DgRFI8DgResAddI8DgIVec2DExE12makeLocationERKS2_"
 "_ZNK4DgRFI8DgResAddI8DgIVec2DExE13createAddressERK13DgAddressBase"
 "_ZNK4DgRFI8DgResAddI8DgIVec2DExE13createAddressEv"
 "_ZNK4DgRFI8DgResAddI8DgIVec2DExE14createLocationERK10DgLocationb"
 "_ZNK4DgRFI8DgResAddI8DgIVec2DExE15toAddressStringB5cxx11ERK10DgLocation"
 "_ZNK4DgRFI8DgResAddI8DgIVec2DExE15toAddressStringB5cxx11ERK10DgLocationc"
 "_ZNK4DgRFI8DgResAddI8DgIVec2DExE15toAddressStringB5cxx11ERK11DgLocVector"
 "_ZNK4DgRFI8DgResAddI8DgIVec2DExE15toAddressStringB5cxx11ERK11DgLocVectorc"
 "_ZNK4DgRFI8DgResAddI8DgIVec2DExE5toIntERK14DgDistanceBase"
 "_ZNK4DgRFI8DgResAddI8DgIVec2DExE8distanceERK10DgLocationS6_b"
 "_ZNK4DgRFI8DgResAddI8DgIVec2DExE8toDoubleERK14DgDistanceBase"
 "_ZNK4DgRFI8DgResAddI8DgIVec2DExE8toStringB5cxx11ERK10DgLocation"
 "_ZNK4DgRFI8DgResAddI8DgIVec2DExE8toStringB5cxx11ERK10DgLocationc"
 "_ZNK4DgRFI8DgResAddI8DgIVec2DExE8toStringB5cxx11ERK11DgLocVector"
 "_ZNK4DgRFI8DgResAddI8DgIVec2DExE8toStringB5cxx11ERK11DgLocVectorc"
 "_ZNK4DgRFI8DgResAddI8DgIVec2DExE8toStringB5cxx11ERK14DgDistanceBase"
 "_ZNK8DgDVec2DcvNSt7__cxx1112basic_stringIcSt11char_traitsIcESaIcEEEEv"
 "_ZNK8DgDiscRFI8DgIVec2D8DgDVec2DeE11setAddPointERKS0_R10DgLocation"
 "_ZNK8DgDiscRFI8DgIVec2D8DgDVec2DeE11setVerticesERK10DgLocationR9DgPolygon"
 "_ZNK8DgDiscRFI8DgIVec2D8DgDVec2DeE11setVerticesERK10DgLocationRK8DgRFBaseR9DgPolygon"
 "_ZNK8DgDiscRFI8DgIVec2D8DgDVec2DeE11setVerticesERKS0_R9DgPolygon"
 "_ZNK8DgDiscRFI8DgIVec2D8DgDVec2DeE11setVerticesERKS0_RK8DgRFBaseR9DgPolygon"
 "_ZNK8DgDiscRFI8DgIVec2D8DgDVec2DeE12makeVerticesERK10DgLocation"
 "_ZNK8DgDiscRFI8DgIVec2D8DgDVec2DeE12makeVerticesERKS0_"
 "_ZNK8DgDiscRFI8DgIVec2D8DgDVec2DeE12setNeighborsERK10DgLocationR11DgLocVector"
 "_ZNK8DgDiscRFI8DgIVec2D8DgDVec2DeE12setNeighborsERKS0_R11DgLocVector"
 "_ZNK8DgDiscRFI8DgIVec2D8DgDVec2DeE12setNeighborsERKS0_RK8DgRFBaseR11DgLocVector"
 "_ZNK8DgDiscRFI8DgIVec2D8DgDVec2DeE13makeNeighborsERK10DgLocation"
 "_ZNK8DgDiscRFI8DgIVec2D8DgDVec2DeE13makeNeighborsERKS0_"
 "_ZNK8DgDiscRFI8DgIVec2D8DgDVec2DeE16DgQuantConverter19convertTypedAddressERKS1_"
 "_ZNK8DgDiscRFI8DgIVec2D8DgDVec2DeE19DgInvQuantConverter19convertTypedAddressERKS0_"
 "_ZNK8DgDiscRFI8DgIVec2D8DgDVec2DeE8dist2dblERKx"
 "_ZNK8DgDiscRFI8DgIVec2D8DgDVec2DeE8dist2intERKx"
 "_ZNK8DgDiscRFI8DgIVec2D8DgDVec2DeE8dist2strB5cxx11ERKx"
 "_ZNK8DgDiscRFI8DgIVec2D8DgDVec2DeE8setPointERK10DgLocationRK8DgRFBaseRS3_"
 "_ZNK8DgDiscRFI8DgIVec2D8DgDVec2DeE8setPointERK10DgLocationRS3_"
 "_ZNK8DgDiscRFI8DgIVec2D8DgDVec2DeE8setPointERKS0_R10DgLocation"
 "_ZNK8DgDiscRFI8DgIVec2D8DgDVec2DeE8setPointERKS0_RK8DgRFBaseR10DgLocation"
 "_ZNK8DgDiscRFI8DgIVec2D8DgDVec2DeE9makePointERK10DgLocation"
 "_ZNK8DgDiscRFI8DgIVec2D8DgDVec2DeE9makePointERKS0_"
 "_ZNK8DgDiscRFI8DgResAddI8DgIVec2DE8DgDVec2DeE11setAddPointERKS2_R10DgLocation"
 "_ZNK8DgDiscRFI8DgResAddI8DgIVec2DE8DgDVec2DeE11setVerticesERK10DgLocationR9DgPolygon"
 "_ZNK8DgDiscRFI8DgResAddI8DgIVec2DE8DgDVec2DeE11setVerticesERK10DgLocationRK8DgRFBaseR9DgPolygon"
 "_ZNK8DgDiscRFI8DgResAddI8DgIVec2DE8DgDVec2DeE11setVerticesERKS2_R9DgPolygon"
 "_ZNK8DgDiscRFI8DgResAddI8DgIVec2DE8DgDVec2DeE11setVerticesERKS2_RK8DgRFBaseR9DgPolygon"
 "_ZNK8DgDiscRFI8DgResAddI8DgIVec2DE8DgDVec2DeE12makeVerticesERK10DgLocation"
 "_ZNK8DgDiscRFI8DgResAddI8DgIVec2DE8DgDVec2DeE12makeVerticesERKS2_"
 "_ZNK8DgDiscRFI8DgResAddI8DgIVec2DE8DgDVec2DeE12setNeighborsERK10DgLocationR11DgLocVector"
 "_ZNK8DgDiscRFI8DgResAddI8DgIVec2DE8DgDVec2DeE12setNeighborsERKS2_R11DgLocVector"
 "_ZNK8DgDiscRFI8DgResAddI8DgIVec2DE8DgDVec2DeE12setNeighborsERKS2_RK8DgRFBaseR11DgLocVector"
 "_ZNK8DgDiscRFI8DgResAddI8DgIVec2DE8DgDVec2DeE13makeNeighborsERK10DgLocation"
 "_ZNK8DgDiscRFI8DgResAddI8DgIVec2DE8DgDVec2DeE13makeNeighborsERKS2_"
 "_ZNK8DgDiscRFI8DgResAddI8DgIVec2DE8DgDVec2DeE16DgQuantConverter19convertTypedAddressERKS3_"
 "_ZNK8DgDiscRFI8DgResAddI8DgIVec2DE8DgDVec2DeE19DgInvQuantConverter19convertTypedAddressERKS2_"
 "_ZNK8DgDiscRFI8DgResAddI8DgIVec2DE8DgDVec2DeE8dist2dblERKx"
 "_ZNK8DgDiscRFI8DgResAddI8DgIVec2DE8DgDVec2DeE8dist2intERKx"
 "_ZNK8DgDiscRFI8DgResAddI8DgIVec2DE8DgDVec2DeE8dist2strB5cxx11ERKx"
 "_ZNK8DgDiscRFI8DgResAddI8DgIVec2DE8DgDVec2DeE8setPointERK10DgLocationRK8DgRFBaseRS5_"
 "_ZNK8DgDiscRFI8DgResAddI8DgIVec2DE8DgDVec2DeE8setPointERK10DgLocationRS5_"
 "_ZNK8DgDiscRFI8DgResAddI8DgIVec2DE8DgDVec2DeE8setPointERKS2_R10DgLocation"
 "_ZNK8DgDiscRFI8DgResAddI8DgIVec2DE8DgDVec2DeE8setPointERKS2_RK8DgRFBaseR10DgLocation"
 "_ZNK8DgDiscRFI8DgResAddI8DgIVec2DE8DgDVec2DeE9makePointERK10DgLocation"
 "_ZNK8DgDiscRFI8DgResAddI8DgIVec2DE8DgDVec2DeE9makePointERKS2_"
 "_ZNK8DgIVec2DcvNSt7__cxx1112basic_stringIcSt11char_traitsIcESaIcEEEEv"
 "_ZNK8DgRFBase10vecAddressERK8DgDVec2D"
 "_ZNK8DgRFBase11vecLocationERK8DgDVec2D"
 "_ZNK8DgRFBase13getVecAddressERK13DgAddressBase"
 "_ZNK8DgRFBase14getVecLocationERK10DgLocation"
 "_ZNK8DgRFBase8undefLocEv"
 "_ZNK8DgRFBaseeqERKS_"
 "_ZNK8DgRFBaseneERKS_"
 "_ZNK8DgResAddI8DgIVec2DEcvNSt7__cxx1112basic_stringIcSt11char_traitsIcESaIcEEEEv"
 "_ZNK9DgAddressI8DgDVec2DE7writeToERSo"
 "_ZNK9DgAddressI8DgIVec2DE7writeToERSo"
 "_ZNK9DgAddressI8DgResAddI8DgIVec2DEE7writeToERSo"
 "_ZNK9DgDiscRFSI8DgIVec2D8DgDVec2DeE10setParentsERK8DgResAddIS0_ER11DgLocVector"
 "_ZNK9DgDiscRFSI8DgIVec2D8DgDVec2DeE10setParentsERK8DgResAddIS0_ERK8DgRFBaseR11DgLocVector"
 "_ZNK9DgDiscRFSI8DgIVec2D8DgDVec2DeE10setParentsEiRK10DgLocationR11DgLocVector"
 "_ZNK9DgDiscRFSI8DgIVec2D8DgDVec2DeE11invQuantifyERK8DgResAddIS0_E"
 "_ZNK9DgDiscRFSI8DgIVec2D8DgDVec2DeE11makeParentsERK8DgResAddIS0_E"
 "_ZNK9DgDiscRFSI8DgIVec2D8DgDVec2DeE11makeParentsEiRK10DgLocation"
 "_ZNK9DgDiscRFSI8DgIVec2D8DgDVec2DeE14setAddVerticesERK8DgResAddIS0_ER9DgPolygon"
 "_ZNK9DgDiscRFSI8DgIVec2D8DgDVec2DeE14setAllChildrenERK8DgResAddIS0_ER11DgLocVector"
 "_ZNK9DgDiscRFSI8DgIVec2D8DgDVec2DeE14setAllChildrenERK8DgResAddIS0_ERK8DgRFBaseR11DgLocVector"
 "_ZNK9DgDiscRFSI8DgIVec2D8DgDVec2DeE14setAllChildrenEiRK10DgLocationR11DgLocVector"
 "_ZNK9DgDiscRFSI8DgIVec2D8DgDVec2DeE15makeAllChildrenERK8DgResAddIS0_E"
 "_ZNK9DgDiscRFSI8DgIVec2D8DgDVec2DeE15makeAllChildrenEiRK10DgLocation"
 "_ZNK9DgDiscRFSI8DgIVec2D8DgDVec2DeE15setAddNeighborsERK8DgResAddIS0_ER11DgLocVector"
 "_ZNK9DgDiscRFSI8DgIVec2D8DgDVec2DeE19setBoundaryChildrenERK8DgResAddIS0_ER11DgLocVector"
 "_ZNK9DgDiscRFSI8DgIVec2D8DgDVec2DeE19setBoundaryChildrenERK8DgResAddIS0_ERK8DgRFBaseR11DgLocVector"
 "_ZNK9DgDiscRFSI8DgIVec2D8DgDVec2DeE19setBoundaryChildrenEiRK10DgLocationR11DgLocVector"
 "_ZNK9DgDiscRFSI8DgIVec2D8DgDVec2DeE19setInteriorChildrenERK8DgResAddIS0_ER11DgLocVector"
 "_ZNK9DgDiscRFSI8DgIVec2D8DgDVec2DeE19setInteriorChildrenERK8DgResAddIS0_ERK8DgRFBaseR11DgLocVector"
 "_ZNK9DgDiscRFSI8DgIVec2D8DgDVec2DeE19setInteriorChildrenEiRK10DgLocationR11DgLocVector"
 "_ZNK9DgDiscRFSI8DgIVec2D8DgDVec2DeE20makeBoundaryChildrenERK8DgResAddIS0_E"
 "_ZNK9DgDiscRFSI8DgIVec2D8DgDVec2DeE20makeBoundaryChildrenEiRK10DgLocation"
 "_ZNK9DgDiscRFSI8DgIVec2D8DgDVec2DeE20makeInteriorChildrenERK8DgResAddIS0_E"
 "_ZNK9DgDiscRFSI8DgIVec2D8DgDVec2DeE20makeInteriorChildrenEiRK10DgLocation"
 "_ZNK9DgDiscRFSI8DgIVec2D8DgDVec2DeE4distERK8DgResAddIS0_ES6_"
 "_ZNK9DgDiscRFSI8DgIVec2D8DgDVec2DeE7add2strB5cxx11ERK8DgResAddIS0_E"
 "_ZNK9DgDiscRFSI8DgIVec2D8DgDVec2DeE7add2strB5cxx11ERK8DgResAddIS0_Ec"
 "_ZNK9DgDiscRFSI8DgIVec2D8DgDVec2DeE7str2addEP8DgResAddIS0_EPKcc"
 "_ZNK9DgDiscRFSI8DgIVec2D8DgDVec2DeE8quantifyERKS1_"
 "_ZNSt6vectorIP13DgAddressBaseSaIS1_EE17_M_realloc_insertIJS1_EEEvN9__gnu_cxx17__normal_iteratorIPS1_S3_EEDpOT_"
 "_ZNSt6vectorIP8DgDiscRFI8DgIVec2D8DgDVec2DeESaIS4_EE17_M_default_appendEj"
 "_ZNSt7__cxx1112basic_stringIcSt11char_traitsIcESaIcEE12_M_constructIPKcEEvT_S8_St20forward_iterator_tag"
 "_ZNSt7__cxx1112basic_stringIcSt11char_traitsIcESaIcEE12_M_constructIPcEEvT_S7_St20forward_iterator_tag"
 "_ZNSt7__cxx1115basic_stringbufIcSt11char_traitsIcESaIcEED1Ev"
 "_ZStplIcSt11char_traitsIcESaIcEENSt7__cxx1112basic_stringIT_T0_T1_EEOS8_S9_"
 "_ZTI10DgDiscRF2D"
 "_ZTI10DgDistanceIeE"
 "_ZTI10DgDistanceIxE"
 "_ZTI11DgConverterI8DgDVec2De8DgIVec2DxE"
 "_ZTI11DgConverterI8DgDVec2De8DgResAddI8DgIVec2DExE"
 "_ZTI11DgConverterI8DgDVec2DeS0_eE"
 "_ZTI11DgConverterI8DgIVec2Dx8DgDVec2DeE"
 "_ZTI11DgConverterI8DgIVec2Dx8DgResAddIS0_ExE"
 "_ZTI11DgConverterI8DgResAddI8DgIVec2DEx8DgDVec2DeE"
 "_ZTI11DgConverterI8DgResAddI8DgIVec2DExS1_xE"
 "_ZTI11DgDiscRFS2D"
 "_ZTI11DgLocVector"
 "_ZTI12DgContCartRF"
 "_ZTI13DgAddressBase"
 "_ZTI14DgDistanceBase"
 "_ZTI14DgDmdD4Grid2DS"
 "_ZTI15DgConverterBase"
 "_ZTI17DgAddResConverterI8DgIVec2D8DgDVec2DeE"
 "_ZTI17DgResAddConverterI8DgIVec2D8DgDVec2DeE"
 "_ZTI21DgContAffineConverter"
 "_ZTI24DgContInvAffineConverter"
 "_ZTI4DgRFI8DgDVec2DeE"
 "_ZTI4DgRFI8DgIVec2DxE"
 "_ZTI4DgRFI8DgResAddI8DgIVec2DExE"
 "_ZTI8DgDiscRFI8DgIVec2D8DgDVec2DeE"
 "_ZTI8DgDiscRFI8DgResAddI8DgIVec2DE8DgDVec2DeE"
 "_ZTI8DgRFBase"
 "_ZTI9DgAddressI8DgDVec2DE"
 "_ZTI9DgAddressI8DgIVec2DE"
 "_ZTI9DgAddressI8DgResAddI8DgIVec2DEE"
 "_ZTI9DgDiscRFSI8DgIVec2D8DgDVec2DeE"
 "_ZTI9DgLocBase"
 "_ZTI9DgPolygon"
 "_ZTIN8DgDiscRFI8DgIVec2D8DgDVec2DeE16DgQuantConverterE"
 "_ZTIN8DgDiscRFI8DgIVec2D8DgDVec2DeE19DgInvQuantConverterE"
 "_ZTIN8DgDiscRFI8DgResAddI8DgIVec2DE8DgDVec2DeE16DgQuantConverterE"
 "_ZTIN8DgDiscRFI8DgResAddI8DgIVec2DE8DgDVec2DeE19DgInvQuantConverterE"
 "_ZTS10DgDiscRF2D"
 "_ZTS10DgDistanceIeE"
 "_ZTS10DgDistanceIxE"
 "_ZTS11DgConverterI8DgDVec2De8DgIVec2DxE"
 "_ZTS11DgConverterI8DgDVec2De8DgResAddI8DgIVec2DExE"
 "_ZTS11DgConverterI8DgDVec2DeS0_eE"
 "_ZTS11DgConverterI8DgIVec2Dx8DgDVec2DeE"
 "_ZTS11DgConverterI8DgIVec2Dx8DgResAddIS0_ExE"
 "_ZTS11DgConverterI8DgResAddI8DgIVec2DEx8DgDVec2DeE"
 "_ZTS11DgConverterI8DgResAddI8DgIVec2DExS1_xE"
 "_ZTS11DgDiscRFS2D"
 "_ZTS11DgLocVector"
 "_ZTS12DgContCartRF"
 "_ZTS13DgAddressBase"
 "_ZTS14DgDistanceBase"
 "_ZTS14DgDmdD4Grid2DS"
 "_ZTS15DgConverterBase"
 "_ZTS17DgAddResConverterI8DgIVec2D8DgDVec2DeE"
 "_ZTS17DgResAddConverterI8DgIVec2D8DgDVec2DeE"
 "_ZTS21DgContAffineConverter"
 "_ZTS24DgContInvAffineConverter"
 "_ZTS4DgRFI8DgDVec2DeE"
 "_ZTS4DgRFI8DgIVec2DxE"
 "_ZTS4DgRFI8DgResAddI8DgIVec2DExE"
 "_ZTS8DgDiscRFI8DgIVec2D8DgDVec2DeE"
 "_ZTS8DgDiscRFI8DgResAddI8DgIVec2DE8DgDVec2DeE"
 "_ZTS8DgRFBase"
 "_ZTS9DgAddressI8DgDVec2DE"
 "_ZTS9DgAddressI8DgIVec2DE"
 "_ZTS9DgAddressI8DgResAddI8DgIVec2DEE"
 "_ZTS9DgDiscRFSI8DgIVec2D8DgDVec2DeE"
 "_ZTS9DgLocBase"
 "_ZTS9DgPolygon"
 "_ZTSN8DgDiscRFI8DgIVec2D8DgDVec2DeE16DgQuantConverterE"
 "_ZTSN8DgDiscRFI8DgIVec2D8DgDVec2DeE19DgInvQuantConverterE"
 "_ZTSN8DgDiscRFI8DgResAddI8DgIVec2DE8DgDVec2DeE16DgQuantConverterE"
 "_ZTSN8DgDiscRFI8DgResAddI8DgIVec2DE8DgDVec2DeE19DgInvQuantConverterE"
 "_ZTV10DgDiscRF2D"
 "_ZTV10DgDistanceIeE"
 "_ZTV10DgDistanceIxE"
 "_ZTV11DgConverterI8DgDVec2De8DgIVec2DxE"
 "_ZTV11DgConverterI8DgDVec2De8DgResAddI8DgIVec2DExE"
 "_ZTV11DgConverterI8DgDVec2DeS0_eE"
 "_ZTV11DgConverterI8DgIVec2Dx8DgDVec2DeE"
 "_ZTV11DgConverterI8DgIVec2Dx8DgResAddIS0_ExE"
 "_ZTV11DgConverterI8DgResAddI8DgIVec2DEx8DgDVec2DeE"
 "_ZTV11DgConverterI8DgResAddI8DgIVec2DExS1_xE"
 "_ZTV11DgDiscRFS2D"
 "_ZTV12DgContCartRF"
 "_ZTV14DgDmdD4Grid2DS"
 "_ZTV17DgAddResConverterI8DgIVec2D8DgDVec2DeE"
 "_ZTV17DgResAddConverterI8DgIVec2D8DgDVec2DeE"
 "_ZTV21DgContAffineConverter"
 "_ZTV24DgContInvAffineConverter"
 "_ZTV4DgRFI8DgDVec2DeE"
 "_ZTV4DgRFI8DgIVec2DxE"
 "_ZTV4DgRFI8DgResAddI8DgIVec2DExE"
 "_ZTV8DgDiscRFI8DgIVec2D8DgDVec2DeE"
 "_ZTV8DgDiscRFI8DgResAddI8DgIVec2DE8DgDVec2DeE"
 "_ZTV9DgAddressI8DgDVec2DE"
 "_ZTV9DgAddressI8DgIVec2DE"
 "_ZTV9DgAddressI8DgResAddI8DgIVec2DEE"
 "_ZTV9DgDiscRFSI8DgIVec2D8DgDVec2DeE"
 "_ZTV9DgPolygon"
 "_ZTVN8DgDiscRFI8DgIVec2D8DgDVec2DeE16DgQuantConverterE"
 "_ZTVN8DgDiscRFI8DgIVec2D8DgDVec2DeE19DgInvQuantConverterE"
 "_ZTVN8DgDiscRFI8DgResAddI8DgIVec2DE8DgDVec2DeE16DgQuantConverterE"
 "_ZTVN8DgDiscRFI8DgResAddI8DgIVec2DE8DgDVec2DeE19DgInvQuantConverterE"
 "_ZZNK11DgDiscRFS2D12undefAddressEvE5undef"
 "_ZN10DgDistanceIxED0Ev"
 "_ZN10DgDistanceIxED1Ev"
 "_ZN10DgLocation12clearAddressEv"
 "_ZN11DgLocVector9convertToERK8DgRFBase"
 "_ZN13DgDmdD8Grid2DD0Ev"
 "_ZN13DgDmdD8Grid2DD1Ev"
 "_ZN3dgg4util9to_stringIxEENSt7__cxx1112basic_stringIcSt11char_traitsIcESaIcEEERKT_"
 "_ZN4DgRFI8DgIVec2DxE6jumpRFEP10DgLocation"
 "_ZN9DgAddressI8DgIVec2DED0Ev"
 "_ZN9DgAddressI8DgIVec2DED1Ev"
 "_ZN9DgPolygonD0Ev"
 "_ZN9DgPolygonD1Ev"
 "_ZNK10DgDiscRF2D12undefAddressEv"
 "_ZNK10DgDiscRF2D7add2strB5cxx11ERK8DgIVec2D"
 "_ZNK10DgDiscRF2D7add2strB5cxx11ERK8DgIVec2Dc"
 "_ZNK10DgDiscRF2D7str2addEP8DgIVec2DPKcc"
 "_ZNK10DgLocation8asStringB5cxx11Ev"
 "_ZNK11DgLocVector11cardinalityEv"
 "_ZNK11DgLocVector15asAddressStringB5cxx11Ec"
 "_ZNK11DgLocVector15asAddressStringB5cxx11Ev"
 "_ZNK11DgLocVector8asStringB5cxx11Ec"
 "_ZNK11DgLocVector8asStringB5cxx11Ev"
 "_ZNK13DgDmdD4Grid2D11invQuantifyERK8DgIVec2D"
 "_ZNK13DgDmdD4Grid2D8quantifyERK8DgDVec2D"
 "_ZNK13DgDmdD8Grid2D15setAddNeighborsERK8DgIVec2DR11DgLocVector"
 "_ZNK13DgDmdD8Grid2D4distERK8DgIVec2DS2_"
 "_ZNK4DgRFI8DgIVec2DxE10fromStringER10DgLocationPKcc"
 "_ZNK4DgRFI8DgIVec2DxE10getAddressERK10DgLocation"
 "_ZNK4DgRFI8DgIVec2DxE11copyAddressERK13DgAddressBasePS2_"
 "_ZNK4DgRFI8DgIVec2DxE12equalAddressERK13DgAddressBaseS4_"
 "_ZNK4DgRFI8DgIVec2DxE12makeLocationERKS0_"
 "_ZNK4DgRFI8DgIVec2DxE13createAddressERK13DgAddressBase"
 "_ZNK4DgRFI8DgIVec2DxE13createAddressEv"
 "_ZNK4DgRFI8DgIVec2DxE14createLocationERK10DgLocationb"
 "_ZNK4DgRFI8DgIVec2DxE15toAddressStringB5cxx11ERK10DgLocation"
 "_ZNK4DgRFI8DgIVec2DxE15toAddressStringB5cxx11ERK10DgLocationc"
 "_ZNK4DgRFI8DgIVec2DxE15toAddressStringB5cxx11ERK11DgLocVector"
 "_ZNK4DgRFI8DgIVec2DxE15toAddressStringB5cxx11ERK11DgLocVectorc"
 "_ZNK4DgRFI8DgIVec2DxE5toIntERK14DgDistanceBase"
 "_ZNK4DgRFI8DgIVec2DxE8distanceERK10DgLocationS4_b"
 "_ZNK4DgRFI8DgIVec2DxE8toDoubleERK14DgDistanceBase"
 "_ZNK4DgRFI8DgIVec2DxE8toStringB5cxx11ERK10DgLocation"
 "_ZNK4DgRFI8DgIVec2DxE8toStringB5cxx11ERK10DgLocationc"
 "_ZNK4DgRFI8DgIVec2DxE8toStringB5cxx11ERK11DgLocVector"
 "_ZNK4DgRFI8DgIVec2DxE8toStringB5cxx11ERK11DgLocVectorc"
 "_ZNK4DgRFI8DgIVec2DxE8toStringB5cxx11ERK14DgDistanceBase"
 "_ZNK8DgDiscRFI8DgIVec2D8DgDVec2DeE11setAddPointERKS0_R10DgLocation"
 "_ZNK8DgDiscRFI8DgIVec2D8DgDVec2DeE11setVerticesERK10DgLocationR9DgPolygon"
 "_ZNK8DgDiscRFI8DgIVec2D8DgDVec2DeE11setVerticesERK10DgLocationRK8DgRFBaseR9DgPolygon"
 "_ZNK8DgDiscRFI8DgIVec2D8DgDVec2DeE11setVerticesERKS0_R9DgPolygon"
 "_ZNK8DgDiscRFI8DgIVec2D8DgDVec2DeE11setVerticesERKS0_RK8DgRFBaseR9DgPolygon"
 "_ZNK8DgDiscRFI8DgIVec2D8DgDVec2DeE12makeVerticesERK10DgLocation"
 "_ZNK8DgDiscRFI8DgIVec2D8DgDVec2DeE12makeVerticesERKS0_"
 "_ZNK8DgDiscRFI8DgIVec2D8DgDVec2DeE12setNeighborsERK10DgLocationR11DgLocVector"
 "_ZNK8DgDiscRFI8DgIVec2D8DgDVec2DeE12setNeighborsERKS0_R11DgLocVector"
 "_ZNK8DgDiscRFI8DgIVec2D8DgDVec2DeE12setNeighborsERKS0_RK8DgRFBaseR11DgLocVector"
 "_ZNK8DgDiscRFI8DgIVec2D8DgDVec2DeE13makeNeighborsERK10DgLocation"
 "_ZNK8DgDiscRFI8DgIVec2D8DgDVec2DeE13makeNeighborsERKS0_"
 "_ZNK8DgDiscRFI8DgIVec2D8DgDVec2DeE8dist2dblERKx"
 "_ZNK8DgDiscRFI8DgIVec2D8DgDVec2DeE8dist2intERKx"
 "_ZNK8DgDiscRFI8DgIVec2D8DgDVec2DeE8dist2strB5cxx11ERKx"
 "_ZNK8DgDiscRFI8DgIVec2D8DgDVec2DeE8setPointERK10DgLocationRK8DgRFBaseRS3_"
 "_ZNK8DgDiscRFI8DgIVec2D8DgDVec2DeE8setPointERK10DgLocationRS3_"
 "_ZNK8DgDiscRFI8DgIVec2D8DgDVec2DeE8setPointERKS0_R10DgLocation"
 "_ZNK8DgDiscRFI8DgIVec2D8DgDVec2DeE8setPointERKS0_RK8DgRFBaseR10DgLocation"
 "_ZNK8DgDiscRFI8DgIVec2D8DgDVec2DeE9makePointERK10DgLocation"
 "_ZNK8DgDiscRFI8DgIVec2D8DgDVec2DeE9makePointERKS0_"
 "_ZNK8DgRFBase10vecAddressERK8DgDVec2D"
 "_ZNK8DgRFBase11vecLocationERK8DgDVec2D"
 "_ZNK8DgRFBase13getVecAddressERK13DgAddressBase"
 "_ZNK8DgRFBase14getVecLocationERK10DgLocation"
 "_ZNK8DgRFBase8undefLocEv"
 "_ZNK8DgRFBaseeqERKS_"
 "_ZNK8DgRFBaseneERKS_"
 "_ZNK9DgAddressI8DgIVec2DE7writeToERSo"
 "_ZNSt6vectorIP13DgAddressBaseSaIS1_EE12emplace_backIJS1_EEEvDpOT_"
 "_ZNSt6vectorIP13DgAddressBaseSaIS1_EE17_M_realloc_insertIJS1_EEEvN9__gnu_cxx17__normal_iteratorIPS1_S3_EEDpOT_"
 "_ZNSt7__cxx1112basic_stringIcSt11char_traitsIcESaIcEE12_M_constructIPKcEEvT_S8_St20forward_iterator_tag"
 "_ZNSt7__cxx1112basic_stringIcSt11char_traitsIcESaIcEE12_M_constructIPcEEvT_S7_St20forward_iterator_tag"
 "_ZTI10DgDiscRF2D"
 "_ZTI10DgDistanceIxE"
 "_ZTI11DgLocVector"
 "_ZTI13DgAddressBase"
 "_ZTI13DgDmdD4Grid2D"
 "_ZTI13DgDmdD8Grid2D"
 "_ZTI14DgDistanceBase"
 "_ZTI4DgRFI8DgIVec2DxE"
 "_ZTI8DgDiscRFI8DgIVec2D8DgDVec2DeE"
 "_ZTI8DgRFBase"
 "_ZTI9DgAddressI8DgIVec2DE"
 "_ZTI9DgLocBase"
 "_ZTI9DgPolygon"
 "_ZTS10DgDiscRF2D"
 "_ZTS10DgDistanceIxE"
 "_ZTS11DgLocVector"
 "_ZTS13DgAddressBase"
 "_ZTS13DgDmdD4Grid2D"
 "_ZTS13DgDmdD8Grid2D"
 "_ZTS14DgDistanceBase"
 "_ZTS4DgRFI8DgIVec2DxE"
 "_ZTS8DgDiscRFI8DgIVec2D8DgDVec2DeE"
 "_ZTS8DgRFBase"
 "_ZTS9DgAddressI8DgIVec2DE"
 "_ZTS9DgLocBase"
 "_ZTS9DgPolygon"
 "_ZTV10DgDistanceIxE"
 "_ZTV13DgDmdD8Grid2D"
 "_ZTV4DgRFI8DgIVec2DxE"
 "_ZTV9DgAddressI8DgIVec2DE"
 "_ZTV9DgPolygon"
 "_ZGVZNK11DgDiscRFS2D12undefAddressEvE5undef"
 "_ZN10DgDistanceIeED0Ev"
 "_ZN10DgDistanceIeED1Ev"
 "_ZN10DgDistanceIxED0Ev"
 "_ZN10DgDistanceIxED1Ev"
 "_ZN10DgLocation12clearAddressEv"
 "_ZN10DgLocationC1ERKS_"
 "_ZN11DgLocVector9convertToERK8DgRFBase"
 "_ZN12DgContCartRFD0Ev"
 "_ZN12DgContCartRFD1Ev"
 "_ZN14DgDmdD8Grid2DSC1ER11DgRFNetworkRK4DgRFI8DgDVec2DeEijbbRKNSt7__cxx1112basic_stringIcSt11char_traitsIcESaIcEEE"
 "_ZN14DgDmdD8Grid2DSC1ERKS_"
 "_ZN14DgDmdD8Grid2DSC2ER11DgRFNetworkRK4DgRFI8DgDVec2DeEijbbRKNSt7__cxx1112basic_stringIcSt11char_traitsIcESaIcEEE"
 "_ZN14DgDmdD8Grid2DSC2ERKS_"
 "_ZN14DgDmdD8Grid2DSD0Ev"
 "_ZN14DgDmdD8Grid2DSD1Ev"
 "_ZN14DgDmdD8Grid2DSD2Ev"
 "_ZN14DgDmdD8Grid2DSaSERKS_"
 "_ZN17DgAddResConverterI8DgIVec2D8DgDVec2DeED0Ev"
 "_ZN17DgAddResConverterI8DgIVec2D8DgDVec2DeED1Ev"
 "_ZN17DgResAddConverterI8DgIVec2D8DgDVec2DeED0Ev"
 "_ZN17DgResAddConverterI8DgIVec2D8DgDVec2DeED1Ev"
 "_ZN21DgContAffineConverterD0Ev"
 "_ZN21DgContAffineConverterD1Ev"
 "_ZN24DgContInvAffineConverterD0Ev"
 "_ZN24DgContInvAffineConverterD1Ev"
 "_ZN3dgg4util9to_stringIiEENSt7__cxx1112basic_stringIcSt11char_traitsIcESaIcEEERKT_"
 "_ZN3dgg4util9to_stringIxEENSt7__cxx1112basic_stringIcSt11char_traitsIcESaIcEEERKT_"
 "_ZN4DgRFI8DgDVec2DeE6jumpRFEP10DgLocation"
 "_ZN4DgRFI8DgIVec2DxE6jumpRFEP10DgLocation"
 "_ZN4DgRFI8DgResAddI8DgIVec2DExE6jumpRFEP10DgLocation"
 "_ZN8DgDiscRFI8DgIVec2D8DgDVec2DeE16DgQuantConverterD0Ev"
 "_ZN8DgDiscRFI8DgIVec2D8DgDVec2DeE16DgQuantConverterD1Ev"
 "_ZN8DgDiscRFI8DgIVec2D8DgDVec2DeE19DgInvQuantConverterD0Ev"
 "_ZN8DgDiscRFI8DgIVec2D8DgDVec2DeE19DgInvQuantConverterD1Ev"
 "_ZN8DgDiscRFI8DgResAddI8DgIVec2DE8DgDVec2DeE16DgQuantConverterD0Ev"
 "_ZN8DgDiscRFI8DgResAddI8DgIVec2DE8DgDVec2DeE16DgQuantConverterD1Ev"
 "_ZN8DgDiscRFI8DgResAddI8DgIVec2DE8DgDVec2DeE19DgInvQuantConverterD0Ev"
 "_ZN8DgDiscRFI8DgResAddI8DgIVec2DE8DgDVec2DeE19DgInvQuantConverterD1Ev"
 "_ZN8DgResAddI8DgIVec2DEaSERKS1_"
 "_ZN9DgAddressI8DgDVec2DED0Ev"
 "_ZN9DgAddressI8DgDVec2DED1Ev"
 "_ZN9DgAddressI8DgIVec2DED0Ev"
 "_ZN9DgAddressI8DgIVec2DED1Ev"
 "_ZN9DgAddressI8DgResAddI8DgIVec2DEED0Ev"
 "_ZN9DgAddressI8DgResAddI8DgIVec2DEED1Ev"
 "_ZN9DgPolygonD0Ev"
 "_ZN9DgPolygonD1Ev"
 "_ZNK10DgDiscRF2D12undefAddressEv"
 "_ZNK10DgDiscRF2D7add2strB5cxx11ERK8DgIVec2D"
 "_ZNK10DgDiscRF2D7add2strB5cxx11ERK8DgIVec2Dc"
 "_ZNK10DgDiscRF2D7str2addEP8DgIVec2DPKcc"
 "_ZNK10DgLocation8asStringB5cxx11Ev"
 "_ZNK11DgConverterI8DgDVec2De8DgIVec2DxE22createConvertedAddressERK13DgAddressBase"
 "_ZNK11DgConverterI8DgDVec2De8DgResAddI8DgIVec2DExE22createConvertedAddressERK13DgAddressBase"
 "_ZNK11DgConverterI8DgDVec2DeS0_eE22createConvertedAddressERK13DgAddressBase"
 "_ZNK11DgConverterI8DgIVec2Dx8DgDVec2DeE22createConvertedAddressERK13DgAddressBase"
 "_ZNK11DgConverterI8DgIVec2Dx8DgResAddIS0_ExE22createConvertedAddressERK13DgAddressBase"
 "_ZNK11DgConverterI8DgResAddI8DgIVec2DEx8DgDVec2DeE22createConvertedAddressERK13DgAddressBase"
 "_ZNK11DgConverterI8DgResAddI8DgIVec2DExS1_xE22createConvertedAddressERK13DgAddressBase"
 "_ZNK11DgDiscRFS2D12undefAddressEv"
 "_ZNK11DgLocVector11cardinalityEv"
 "_ZNK11DgLocVector15asAddressStringB5cxx11Ec"
 "_ZNK11DgLocVector15asAddressStringB5cxx11Ev"
 "_ZNK11DgLocVector8asStringB5cxx11Ec"
 "_ZNK11DgLocVector8asStringB5cxx11Ev"
 "_ZNK12DgContCartRF10vecAddressERK8DgDVec2D"
 "_ZNK12DgContCartRF11vecLocationERK8DgDVec2D"
 "_ZNK12DgContCartRF12undefAddressEv"
 "_ZNK12DgContCartRF13getVecAddressERK13DgAddressBase"
 "_ZNK12DgContCartRF14getVecLocationERK10DgLocation"
 "_ZNK12DgContCartRF4distERK8DgDVec2DS2_"
 "_ZNK12DgContCartRF7add2strB5cxx11ERK8DgDVec2D"
 "_ZNK12DgContCartRF7add2strB5cxx11ERK8DgDVec2Dc"
 "_ZNK12DgContCartRF7str2addEP8DgDVec2DPKcc"
 "_ZNK12DgContCartRF8dist2dblERKe"
 "_ZNK12DgContCartRF8dist2intERKe"
 "_ZNK12DgContCartRF8dist2strB5cxx11ERKe"
 "_ZNK13DgDmdD4Grid2D11invQuantifyERK8DgIVec2D"
 "_ZNK13DgDmdD4Grid2D8quantifyERK8DgDVec2D"
 "_ZNK14DgDmdD8Grid2DS13setAddParentsERK8DgResAddI8DgIVec2DER11DgLocVector"
 "_ZNK14DgDmdD8Grid2DS17setAddAllChildrenERK8DgResAddI8DgIVec2DER11DgLocVector"
 "_ZNK14DgDmdD8Grid2DS22setAddBoundaryChildrenERK8DgResAddI8DgIVec2DER11DgLocVector"
 "_ZNK14DgDmdD8Grid2DS22setAddInteriorChildrenERK8DgResAddI8DgIVec2DER11DgLocVector"
 "_ZNK17DgAddResConverterI8DgIVec2D8DgDVec2DeE19convertTypedAddressERKS0_"
 "_ZNK17DgResAddConverterI8DgIVec2D8DgDVec2DeE19convertTypedAddressERK8DgResAddIS0_E"
 "_ZNK21DgContAffineConverter19convertTypedAddressERK8DgDVec2D"
 "_ZNK24DgContInvAffineConverter19convertTypedAddressERK8DgDVec2D"
 "_ZNK4DgRFI8DgDVec2DeE10fromStringER10DgLocationPKcc"
 "_ZNK4DgRFI8DgDVec2DeE10getAddressERK10DgLocation"
 "_ZNK4DgRFI8DgDVec2DeE11copyAddressERK13DgAddressBasePS2_"
 "_ZNK4DgRFI8DgDVec2DeE12equalAddressERK13DgAddressBaseS4_"
 "_ZNK4DgRFI8DgDVec2DeE12makeLocationERKS0_"
 "_ZNK4DgRFI8DgDVec2DeE13createAddressERK13DgAddressBase"
 "_ZNK4DgRFI8DgDVec2DeE13createAddressEv"
 "_ZNK4DgRFI8DgDVec2DeE14createLocationERK10DgLocationb"
 "_ZNK4DgRFI8DgDVec2DeE15toAddressStringB5cxx11ERK10DgLocation"
 "_ZNK4DgRFI8DgDVec2DeE15toAddressStringB5cxx11ERK10DgLocationc"
 "_ZNK4DgRFI8DgDVec2DeE15toAddressStringB5cxx11ERK11DgLocVector"
 "_ZNK4DgRFI8DgDVec2DeE15toAddressStringB5cxx11ERK11DgLocVectorc"
 "_ZNK4DgRFI8DgDVec2DeE5toIntERK14DgDistanceBase"
 "_ZNK4DgRFI8DgDVec2DeE8distanceERK10DgLocationS4_b"
 "_ZNK4DgRFI8DgDVec2DeE8toDoubleERK14DgDistanceBase"
 "_ZNK4DgRFI8DgDVec2DeE8toStringB5cxx11ERK10DgLocation"
 "_ZNK4DgRFI8DgDVec2DeE8toStringB5cxx11ERK10DgLocationc"
 "_ZNK4DgRFI8DgDVec2DeE8toStringB5cxx11ERK11DgLocVector"
 "_ZNK4DgRFI8DgDVec2DeE8toStringB5cxx11ERK11DgLocVectorc"
 "_ZNK4DgRFI8DgDVec2DeE8toStringB5cxx11ERK14DgDistanceBase"
 "_ZNK4DgRFI8DgIVec2DxE10fromStringER10DgLocationPKcc"
 "_ZNK4DgRFI8DgIVec2DxE10getAddressERK10DgLocation"
 "_ZNK4DgRFI8DgIVec2DxE11copyAddressERK13DgAddressBasePS2_"
 "_ZNK4DgRFI8DgIVec2DxE12equalAddressERK13DgAddressBaseS4_"
 "_ZNK4DgRFI8DgIVec2DxE12makeLocationERKS0_"
 "_ZNK4DgRFI8DgIVec2DxE13createAddressERK13DgAddressBase"
 "_ZNK4DgRFI8DgIVec2DxE13createAddressEv"
 "_ZNK4DgRFI8DgIVec2DxE14createLocationERK10DgLocationb"
 "_ZNK4DgRFI8DgIVec2DxE15toAddressStringB5cxx11ERK10DgLocation"
 "_ZNK4DgRFI8DgIVec2DxE15toAddressStringB5cxx11ERK10DgLocationc"
 "_ZNK4DgRFI8DgIVec2DxE15toAddressStringB5cxx11ERK11DgLocVector"
 "_ZNK4DgRFI8DgIVec2DxE15toAddressStringB5cxx11ERK11DgLocVectorc"
 "_ZNK4DgRFI8DgIVec2DxE5toIntERK14DgDistanceBase"
 "_ZNK4DgRFI8DgIVec2DxE8distanceERK10DgLocationS4_b"
 "_ZNK4DgRFI8DgIVec2DxE8toDoubleERK14DgDistanceBase"
 "_ZNK4DgRFI8DgIVec2DxE8toStringB5cxx11ERK10DgLocation"
 "_ZNK4DgRFI8DgIVec2DxE8toStringB5cxx11ERK10DgLocationc"
 "_ZNK4DgRFI8DgIVec2DxE8toStringB5cxx11ERK11DgLocVector"
 "_ZNK4DgRFI8DgIVec2DxE8toStringB5cxx11ERK11DgLocVectorc"
 "_ZNK4DgRFI8DgIVec2DxE8toStringB5cxx11ERK14DgDistanceBase"
 "_ZNK4DgRFI8DgResAddI8DgIVec2DExE10fromStringER10DgLocationPKcc"
 "_ZNK4DgRFI8DgResAddI8DgIVec2DExE10getAddressERK10DgLocation"
 "_ZNK4DgRFI8DgResAddI8DgIVec2DExE11copyAddressERK13DgAddressBasePS4_"
 "_ZNK4DgRFI8DgResAddI8DgIVec2DExE12equalAddressERK13DgAddressBaseS6_"
 "_ZNK4DgRFI8DgResAddI8DgIVec2DExE12makeLocationERKS2_"
 "_ZNK4DgRFI8DgResAddI8DgIVec2DExE13createAddressERK13DgAddressBase"
 "_ZNK4DgRFI8DgResAddI8DgIVec2DExE13createAddressEv"
 "_ZNK4DgRFI8DgResAddI8DgIVec2DExE14createLocationERK10DgLocationb"
 "_ZNK4DgRFI8DgResAddI8DgIVec2DExE15toAddressStringB5cxx11ERK10DgLocation"
 "_ZNK4DgRFI8DgResAddI8DgIVec2DExE15toAddressStringB5cxx11ERK10DgLocationc"
 "_ZNK4DgRFI8DgResAddI8DgIVec2DExE15toAddressStringB5cxx11ERK11DgLocVector"
 "_ZNK4DgRFI8DgResAddI8DgIVec2DExE15toAddressStringB5cxx11ERK11DgLocVectorc"
 "_ZNK4DgRFI8DgResAddI8DgIVec2DExE5toIntERK14DgDistanceBase"
 "_ZNK4DgRFI8DgResAddI8DgIVec2DExE8distanceERK10DgLocationS6_b"
 "_ZNK4DgRFI8DgResAddI8DgIVec2DExE8toDoubleERK14DgDistanceBase"
 "_ZNK4DgRFI8DgResAddI8DgIVec2DExE8toStringB5cxx11ERK10DgLocation"
 "_ZNK4DgRFI8DgResAddI8DgIVec2DExE8toStringB5cxx11ERK10DgLocationc"
 "_ZNK4DgRFI8DgResAddI8DgIVec2DExE8toStringB5cxx11ERK11DgLocVector"
 "_ZNK4DgRFI8DgResAddI8DgIVec2DExE8toStringB5cxx11ERK11DgLocVectorc"
 "_ZNK4DgRFI8DgResAddI8DgIVec2DExE8toStringB5cxx11ERK14DgDistanceBase"
 "_ZNK8DgDVec2DcvNSt7__cxx1112basic_stringIcSt11char_traitsIcESaIcEEEEv"
 "_ZNK8DgDiscRFI8DgIVec2D8DgDVec2DeE11setAddPointERKS0_R10DgLocation"
 "_ZNK8DgDiscRFI8DgIVec2D8DgDVec2DeE11setVerticesERK10DgLocationR9DgPolygon"
 "_ZNK8DgDiscRFI8DgIVec2D8DgDVec2DeE11setVerticesERK10DgLocationRK8DgRFBaseR9DgPolygon"
 "_ZNK8DgDiscRFI8DgIVec2D8DgDVec2DeE11setVerticesERKS0_R9DgPolygon"
 "_ZNK8DgDiscRFI8DgIVec2D8DgDVec2DeE11setVerticesERKS0_RK8DgRFBaseR9DgPolygon"
 "_ZNK8DgDiscRFI8DgIVec2D8DgDVec2DeE12makeVerticesERK10DgLocation"
 "_ZNK8DgDiscRFI8DgIVec2D8DgDVec2DeE12makeVerticesERKS0_"
 "_ZNK8DgDiscRFI8DgIVec2D8DgDVec2DeE12setNeighborsERK10DgLocationR11DgLocVector"
 "_ZNK8DgDiscRFI8DgIVec2D8DgDVec2DeE12setNeighborsERKS0_R11DgLocVector"
 "_ZNK8DgDiscRFI8DgIVec2D8DgDVec2DeE12setNeighborsERKS0_RK8DgRFBaseR11DgLocVector"
 "_ZNK8DgDiscRFI8DgIVec2D8DgDVec2DeE13makeNeighborsERK10DgLocation"
 "_ZNK8DgDiscRFI8DgIVec2D8DgDVec2DeE13makeNeighborsERKS0_"
 "_ZNK8DgDiscRFI8DgIVec2D8DgDVec2DeE16DgQuantConverter19convertTypedAddressERKS1_"
 "_ZNK8DgDiscRFI8DgIVec2D8DgDVec2DeE19DgInvQuantConverter19convertTypedAddressERKS0_"
 "_ZNK8DgDiscRFI8DgIVec2D8DgDVec2DeE8dist2dblERKx"
 "_ZNK8DgDiscRFI8DgIVec2D8DgDVec2DeE8dist2intERKx"
 "_ZNK8DgDiscRFI8DgIVec2D8DgDVec2DeE8dist2strB5cxx11ERKx"
 "_ZNK8DgDiscRFI8DgIVec2D8DgDVec2DeE8setPointERK10DgLocationRK8DgRFBaseRS3_"
 "_ZNK8DgDiscRFI8DgIVec2D8DgDVec2DeE8setPointERK10DgLocationRS3_"
 "_ZNK8DgDiscRFI8DgIVec2D8DgDVec2DeE8setPointERKS0_R10DgLocation"
 "_ZNK8DgDiscRFI8DgIVec2D8DgDVec2DeE8setPointERKS0_RK8DgRFBaseR10DgLocation"
 "_ZNK8DgDiscRFI8DgIVec2D8DgDVec2DeE9makePointERK10DgLocation"
 "_ZNK8DgDiscRFI8DgIVec2D8DgDVec2DeE9makePointERKS0_"
 "_ZNK8DgDiscRFI8DgResAddI8DgIVec2DE8DgDVec2DeE11setAddPointERKS2_R10DgLocation"
 "_ZNK8DgDiscRFI8DgResAddI8DgIVec2DE8DgDVec2DeE11setVerticesERK10DgLocationR9DgPolygon"
 "_ZNK8DgDiscRFI8DgResAddI8DgIVec2DE8DgDVec2DeE11setVerticesERK10DgLocationRK8DgRFBaseR9DgPolygon"
 "_ZNK8DgDiscRFI8DgResAddI8DgIVec2DE8DgDVec2DeE11setVerticesERKS2_R9DgPolygon"
 "_ZNK8DgDiscRFI8DgResAddI8DgIVec2DE8DgDVec2DeE11setVerticesERKS2_RK8DgRFBaseR9DgPolygon"
 "_ZNK8DgDiscRFI8DgResAddI8DgIVec2DE8DgDVec2DeE12makeVerticesERK10DgLocation"
 "_ZNK8DgDiscRFI8DgResAddI8DgIVec2DE8DgDVec2DeE12makeVerticesERKS2_"
 "_ZNK8DgDiscRFI8DgResAddI8DgIVec2DE8DgDVec2DeE12setNeighborsERK10DgLocationR11DgLocVector"
 "_ZNK8DgDiscRFI8DgResAddI8DgIVec2DE8DgDVec2DeE12setNeighborsERKS2_R11DgLocVector"
 "_ZNK8DgDiscRFI8DgResAddI8DgIVec2DE8DgDVec2DeE12setNeighborsERKS2_RK8DgRFBaseR11DgLocVector"
 "_ZNK8DgDiscRFI8DgResAddI8DgIVec2DE8DgDVec2DeE13makeNeighborsERK10DgLocation"
 "_ZNK8DgDiscRFI8DgResAddI8DgIVec2DE8DgDVec2DeE13makeNeighborsERKS2_"
 "_ZNK8DgDiscRFI8DgResAddI8DgIVec2DE8DgDVec2DeE16DgQuantConverter19convertTypedAddressERKS3_"
 "_ZNK8DgDiscRFI8DgResAddI8DgIVec2DE8DgDVec2DeE19DgInvQuantConverter19convertTypedAddressERKS2_"
 "_ZNK8DgDiscRFI8DgResAddI8DgIVec2DE8DgDVec2DeE8dist2dblERKx"
 "_ZNK8DgDiscRFI8DgResAddI8DgIVec2DE8DgDVec2DeE8dist2intERKx"
 "_ZNK8DgDiscRFI8DgResAddI8DgIVec2DE8DgDVec2DeE8dist2strB5cxx11ERKx"
 "_ZNK8DgDiscRFI8DgResAddI8DgIVec2DE8DgDVec2DeE8setPointERK10DgLocationRK8DgRFBaseRS5_"
 "_ZNK8DgDiscRFI8DgResAddI8DgIVec2DE8DgDVec2DeE8setPointERK10DgLocationRS5_"
 "_ZNK8DgDiscRFI8DgResAddI8DgIVec2DE8DgDVec2DeE8setPointERKS2_R10DgLocation"
 "_ZNK8DgDiscRFI8DgResAddI8DgIVec2DE8DgDVec2DeE8setPointERKS2_RK8DgRFBaseR10DgLocation"
 "_ZNK8DgDiscRFI8DgResAddI8DgIVec2DE8DgDVec2DeE9makePointERK10DgLocation"
 "_ZNK8DgDiscRFI8DgResAddI8DgIVec2DE8DgDVec2DeE9makePointERKS2_"
 "_ZNK8DgIVec2DcvNSt7__cxx1112basic_stringIcSt11char_traitsIcESaIcEEEEv"
 "_ZNK8DgRFBase10vecAddressERK8DgDVec2D"
 "_ZNK8DgRFBase11vecLocationERK8DgDVec2D"
 "_ZNK8DgRFBase13getVecAddressERK13DgAddressBase"
 "_ZNK8DgRFBase14getVecLocationERK10DgLocation"
 "_ZNK8DgRFBase8undefLocEv"
 "_ZNK8DgRFBaseeqERKS_"
 "_ZNK8DgRFBaseneERKS_"
 "_ZNK8DgResAddI8DgIVec2DEcvNSt7__cxx1112basic_stringIcSt11char_traitsIcESaIcEEEEv"
 "_ZNK9DgAddressI8DgDVec2DE7writeToERSo"
 "_ZNK9DgAddressI8DgIVec2DE7writeToERSo"
 "_ZNK9DgAddressI8DgResAddI8DgIVec2DEE7writeToERSo"
 "_ZNK9DgDiscRFSI8DgIVec2D8DgDVec2DeE10setParentsERK8DgResAddIS0_ER11DgLocVector"
 "_ZNK9DgDiscRFSI8DgIVec2D8DgDVec2DeE10setParentsERK8DgResAddIS0_ERK8DgRFBaseR11DgLocVector"
 "_ZNK9DgDiscRFSI8DgIVec2D8DgDVec2DeE10setParentsEiRK10DgLocationR11DgLocVector"
 "_ZNK9DgDiscRFSI8DgIVec2D8DgDVec2DeE11invQuantifyERK8DgResAddIS0_E"
 "_ZNK9DgDiscRFSI8DgIVec2D8DgDVec2DeE11makeParentsERK8DgResAddIS0_E"
 "_ZNK9DgDiscRFSI8DgIVec2D8DgDVec2DeE11makeParentsEiRK10DgLocation"
 "_ZNK9DgDiscRFSI8DgIVec2D8DgDVec2DeE14setAddVerticesERK8DgResAddIS0_ER9DgPolygon"
 "_ZNK9DgDiscRFSI8DgIVec2D8DgDVec2DeE14setAllChildrenERK8DgResAddIS0_ER11DgLocVector"
 "_ZNK9DgDiscRFSI8DgIVec2D8DgDVec2DeE14setAllChildrenERK8DgResAddIS0_ERK8DgRFBaseR11DgLocVector"
 "_ZNK9DgDiscRFSI8DgIVec2D8DgDVec2DeE14setAllChildrenEiRK10DgLocationR11DgLocVector"
 "_ZNK9DgDiscRFSI8DgIVec2D8DgDVec2DeE15makeAllChildrenERK8DgResAddIS0_E"
 "_ZNK9DgDiscRFSI8DgIVec2D8DgDVec2DeE15makeAllChildrenEiRK10DgLocation"
 "_ZNK9DgDiscRFSI8DgIVec2D8DgDVec2DeE15setAddNeighborsERK8DgResAddIS0_ER11DgLocVector"
 "_ZNK9DgDiscRFSI8DgIVec2D8DgDVec2DeE19setBoundaryChildrenERK8DgResAddIS0_ER11DgLocVector"
 "_ZNK9DgDiscRFSI8DgIVec2D8DgDVec2DeE19setBoundaryChildrenERK8DgResAddIS0_ERK8DgRFBaseR11DgLocVector"
 "_ZNK9DgDiscRFSI8DgIVec2D8DgDVec2DeE19setBoundaryChildrenEiRK10DgLocationR11DgLocVector"
 "_ZNK9DgDiscRFSI8DgIVec2D8DgDVec2DeE19setInteriorChildrenERK8DgResAddIS0_ER11DgLocVector"
 "_ZNK9DgDiscRFSI8DgIVec2D8DgDVec2DeE19setInteriorChildrenERK8DgResAddIS0_ERK8DgRFBaseR11DgLocVector"
 "_ZNK9DgDiscRFSI8DgIVec2D8DgDVec2DeE19setInteriorChildrenEiRK10DgLocationR11DgLocVector"
 "_ZNK9DgDiscRFSI8DgIVec2D8DgDVec2DeE20makeBoundaryChildrenERK8DgResAddIS0_E"
 "_ZNK9DgDiscRFSI8DgIVec2D8DgDVec2DeE20makeBoundaryChildrenEiRK10DgLocation"
 "_ZNK9DgDiscRFSI8DgIVec2D8DgDVec2DeE20makeInteriorChildrenERK8DgResAddIS0_E"
 "_ZNK9DgDiscRFSI8DgIVec2D8DgDVec2DeE20makeInteriorChildrenEiRK10DgLocation"
 "_ZNK9DgDiscRFSI8DgIVec2D8DgDVec2DeE4distERK8DgResAddIS0_ES6_"
 "_ZNK9DgDiscRFSI8DgIVec2D8DgDVec2DeE7add2strB5cxx11ERK8DgResAddIS0_E"
 "_ZNK9DgDiscRFSI8DgIVec2D8DgDVec2DeE7add2strB5cxx11ERK8DgResAddIS0_Ec"
 "_ZNK9DgDiscRFSI8DgIVec2D8DgDVec2DeE7str2addEP8DgResAddIS0_EPKcc"
 "_ZNK9DgDiscRFSI8DgIVec2D8DgDVec2DeE8quantifyERKS1_"
 "_ZNSt6vectorIP13DgAddressBaseSaIS1_EE17_M_realloc_insertIJS1_EEEvN9__gnu_cxx17__normal_iteratorIPS1_S3_EEDpOT_"
 "_ZNSt6vectorIP8DgDiscRFI8DgIVec2D8DgDVec2DeESaIS4_EE17_M_default_appendEj"
 "_ZNSt7__cxx1112basic_stringIcSt11char_traitsIcESaIcEE12_M_constructIPKcEEvT_S8_St20forward_iterator_tag"
 "_ZNSt7__cxx1112basic_stringIcSt11char_traitsIcESaIcEE12_M_constructIPcEEvT_S7_St20forward_iterator_tag"
 "_ZNSt7__cxx1115basic_stringbufIcSt11char_traitsIcESaIcEED1Ev"
 "_ZStplIcSt11char_traitsIcESaIcEENSt7__cxx1112basic_stringIT_T0_T1_EEOS8_S9_"
 "_ZTI10DgDiscRF2D"
 "_ZTI10DgDistanceIeE"
 "_ZTI10DgDistanceIxE"
 "_ZTI11DgConverterI8DgDVec2De8DgIVec2DxE"
 "_ZTI11DgConverterI8DgDVec2De8DgResAddI8DgIVec2DExE"
 "_ZTI11DgConverterI8DgDVec2DeS0_eE"
 "_ZTI11DgConverterI8DgIVec2Dx8DgDVec2DeE"
 "_ZTI11DgConverterI8DgIVec2Dx8DgResAddIS0_ExE"
 "_ZTI11DgConverterI8DgResAddI8DgIVec2DEx8DgDVec2DeE"
 "_ZTI11DgConverterI8DgResAddI8DgIVec2DExS1_xE"
 "_ZTI11DgDiscRFS2D"
 "_ZTI11DgLocVector"
 "_ZTI12DgContCartRF"
 "_ZTI13DgAddressBase"
 "_ZTI14DgDistanceBase"
 "_ZTI14DgDmdD8Grid2DS"
 "_ZTI15DgConverterBase"
 "_ZTI17DgAddResConverterI8DgIVec2D8DgDVec2DeE"
 "_ZTI17DgResAddConverterI8DgIVec2D8DgDVec2DeE"
 "_ZTI21DgContAffineConverter"
 "_ZTI24DgContInvAffineConverter"
 "_ZTI4DgRFI8DgDVec2DeE"
 "_ZTI4DgRFI8DgIVec2DxE"
 "_ZTI4DgRFI8DgResAddI8DgIVec2DExE"
 "_ZTI8DgDiscRFI8DgIVec2D8DgDVec2DeE"
 "_ZTI8DgDiscRFI8DgResAddI8DgIVec2DE8DgDVec2DeE"
 "_ZTI8DgRFBase"
 "_ZTI9DgAddressI8DgDVec2DE"
 "_ZTI9DgAddressI8DgIVec2DE"
 "_ZTI9DgAddressI8DgResAddI8DgIVec2DEE"
 "_ZTI9DgDiscRFSI8DgIVec2D8DgDVec2DeE"
 "_ZTI9DgLocBase"
 "_ZTI9DgPolygon"
 "_ZTIN8DgDiscRFI8DgIVec2D8DgDVec2DeE16DgQuantConverterE"
 "_ZTIN8DgDiscRFI8DgIVec2D8DgDVec2DeE19DgInvQuantConverterE"
 "_ZTIN8DgDiscRFI8DgResAddI8DgIVec2DE8DgDVec2DeE16DgQuantConverterE"
 "_ZTIN8DgDiscRFI8DgResAddI8DgIVec2DE8DgDVec2DeE19DgInvQuantConverterE"
 "_ZTS10DgDiscRF2D"
 "_ZTS10DgDistanceIeE"
 "_ZTS10DgDistanceIxE"
 "_ZTS11DgConverterI8DgDVec2De8DgIVec2DxE"
 "_ZTS11DgConverterI8DgDVec2De8DgResAddI8DgIVec2DExE"
 "_ZTS11DgConverterI8DgDVec2DeS0_eE"
 "_ZTS11DgConverterI8DgIVec2Dx8DgDVec2DeE"
 "_ZTS11DgConverterI8DgIVec2Dx8DgResAddIS0_ExE"
 "_ZTS11DgConverterI8DgResAddI8DgIVec2DEx8DgDVec2DeE"
 "_ZTS11DgConverterI8DgResAddI8DgIVec2DExS1_xE"
 "_ZTS11DgDiscRFS2D"
 "_ZTS11DgLocVector"
 "_ZTS12DgContCartRF"
 "_ZTS13DgAddressBase"
 "_ZTS14DgDistanceBase"
 "_ZTS14DgDmdD8Grid2DS"
 "_ZTS15DgConverterBase"
 "_ZTS17DgAddResConverterI8DgIVec2D8DgDVec2DeE"
 "_ZTS17DgResAddConverterI8DgIVec2D8DgDVec2DeE"
 "_ZTS21DgContAffineConverter"
 "_ZTS24DgContInvAffineConverter"
 "_ZTS4DgRFI8DgDVec2DeE"
 "_ZTS4DgRFI8DgIVec2DxE"
 "_ZTS4DgRFI8DgResAddI8DgIVec2DExE"
 "_ZTS8DgDiscRFI8DgIVec2D8DgDVec2DeE"
 "_ZTS8DgDiscRFI8DgResAddI8DgIVec2DE8DgDVec2DeE"
 "_ZTS8DgRFBase"
 "_ZTS9DgAddressI8DgDVec2DE"
 "_ZTS9DgAddressI8DgIVec2DE"
 "_ZTS9DgAddressI8DgResAddI8DgIVec2DEE"
 "_ZTS9DgDiscRFSI8DgIVec2D8DgDVec2DeE"
 "_ZTS9DgLocBase"
 "_ZTS9DgPolygon"
 "_ZTSN8DgDiscRFI8DgIVec2D8DgDVec2DeE16DgQuantConverterE"
 "_ZTSN8DgDiscRFI8DgIVec2D8DgDVec2DeE19DgInvQuantConverterE"
 "_ZTSN8DgDiscRFI8DgResAddI8DgIVec2DE8DgDVec2DeE16DgQuantConverterE"
 "_ZTSN8DgDiscRFI8DgResAddI8DgIVec2DE8DgDVec2DeE19DgInvQuantConverterE"
 "_ZTV10DgDiscRF2D"
 "_ZTV10DgDistanceIeE"
 "_ZTV10DgDistanceIxE"
 "_ZTV11DgConverterI8DgDVec2De8DgIVec2DxE"
 "_ZTV11DgConverterI8DgDVec2De8DgResAddI8DgIVec2DExE"
 "_ZTV11DgConverterI8DgDVec2DeS0_eE"
 "_ZTV11DgConverterI8DgIVec2Dx8DgDVec2DeE"
 "_ZTV11DgConverterI8DgIVec2Dx8DgResAddIS0_ExE"
 "_ZTV11DgConverterI8DgResAddI8DgIVec2DEx8DgDVec2DeE"
 "_ZTV11DgConverterI8DgResAddI8DgIVec2DExS1_xE"
 "_ZTV11DgDiscRFS2D"
 "_ZTV12DgContCartRF"
 "_ZTV14DgDmdD8Grid2DS"
 "_ZTV17DgAddResConverterI8DgIVec2D8DgDVec2DeE"
 "_ZTV17DgResAddConverterI8DgIVec2D8DgDVec2DeE"
 "_ZTV21DgContAffineConverter"
 "_ZTV24DgContInvAffineConverter"
 "_ZTV4DgRFI8DgDVec2DeE"
 "_ZTV4DgRFI8DgIVec2DxE"
 "_ZTV4DgRFI8DgResAddI8DgIVec2DExE"
 "_ZTV8DgDiscRFI8DgIVec2D8DgDVec2DeE"
 "_ZTV8DgDiscRFI8DgResAddI8DgIVec2DE8DgDVec2DeE"
 "_ZTV9DgAddressI8DgDVec2DE"
 "_ZTV9DgAddressI8DgIVec2DE"
 "_ZTV9DgAddressI8DgResAddI8DgIVec2DEE"
 "_ZTV9DgDiscRFSI8DgIVec2D8DgDVec2DeE"
 "_ZTV9DgPolygon"
 "_ZTVN8DgDiscRFI8DgIVec2D8DgDVec2DeE16DgQuantConverterE"
 "_ZTVN8DgDiscRFI8DgIVec2D8DgDVec2DeE19DgInvQuantConverterE"
 "_ZTVN8DgDiscRFI8DgResAddI8DgIVec2DE8DgDVec2DeE16DgQuantConverterE"
 "_ZTVN8DgDiscRFI8DgResAddI8DgIVec2DE8DgDVec2DeE19DgInvQuantConverterE"
 "_ZZNK11DgDiscRFS2D12undefAddressEvE5undef"
 "_Z10GCmidpointRK8GeoCoordS1_"
 "_Z10printVec2DRK5Vec2D"
 "_Z10printVec3DRK5Vec3D"
 "_Z10ptinsphtriRK8GeoCoordPS_"
 "_Z10sphTriInitP6SphTri"
 "_Z10spheredistRK8GeoCoordS1_"
 "_Z11GCintersectRK8GeoCoordS1_S1_S1_i"
 "_Z11printSphTriRK6SphTri"
 "_Z11sphTriSolveP6SphTri"
 "_Z12planeTriInitP8PlaneTri"
 "_Z12vecNormalizeRK5Vec3D"
 "_Z13printGeoCoordRK8GeoCoord"
 "_Z13printPlaneTriRK8PlaneTri"
 "_Z14sphTricenpointP8GeoCoord"
 "_Z17metersToGCDegreese"
 "_Z18sqrMetersToExcessDe"
 "_Z5GCdazRK8GeoCoordee"
 "_Z5llxyzRK8GeoCoord"
 "_Z5xyzllRK5Vec3D"
 "_Z6maxvalee"
 "_Z6minvalee"
 "_Z6vecAddRK5Vec3DS1_"
 "_Z6vecDotRK5Vec3DS1_"
 "_Z6vecMagRK5Vec3D"
 "_Z6vecSubRK5Vec3DS1_"
 "_Z7AzimuthRK8GeoCoordS1_"
 "_Z7GCptlateRK8GeoCoordS1_"
 "_Z8printIntx"
 "_Z8printVale"
 "_Z8vecCrossRK5Vec3DS1_"
 "_Z9chorddistRK8GeoCoordS1_"
 "_ZN10DgDistanceIeED0Ev"
 "_ZN10DgDistanceIeED1Ev"
 "_ZN10DgGeoCoord10geoTriAreaERKS_S1_S1_"
 "_ZN10DgGeoCoord11gcIntersectERKS_S1_S1_S1_"
 "_ZN10DgGeoCoord11geoPolyAreaERK9DgPolygonS_"
 "_ZN10DgGeoCoord13undefGeoCoordE"
 "_ZN10DgGeoCoord6gcDistERKS_S1_b"
 "_ZN10DgGeoCoord9toleranceE"
 "_ZN13DgEllipsoidRFD0Ev"
 "_ZN13DgEllipsoidRFD1Ev"
 "_ZN3dgg4util9to_stringIeEENSt7__cxx1112basic_stringIcSt11char_traitsIcESaIcEEERKT_"
 "_ZN4DgRFI10DgGeoCoordeE6jumpRFEP10DgLocation"
 "_ZN9DgAddressI10DgGeoCoordED0Ev"
 "_ZN9DgAddressI10DgGeoCoordED1Ev"
 "_ZNK10DgLocation8asStringB5cxx11Ev"
 "_ZNK11DgLocVector8asStringB5cxx11Ev"
 "_ZNK13DgEllipsoidRF10vecAddressERK8DgDVec2D"
 "_ZNK13DgEllipsoidRF11vecLocationERK8DgDVec2D"
 "_ZNK13DgEllipsoidRF12undefAddressEv"
 "_ZNK13DgEllipsoidRF13getVecAddressERK13DgAddressBase"
 "_ZNK13DgEllipsoidRF14getVecLocationERK10DgLocation"
 "_ZNK13DgEllipsoidRF4distERK10DgGeoCoordS2_"
 "_ZNK13DgEllipsoidRF7add2strB5cxx11ERK10DgGeoCoord"
 "_ZNK13DgEllipsoidRF7add2strB5cxx11ERK10DgGeoCoordc"
 "_ZNK13DgEllipsoidRF7str2addEP10DgGeoCoordPKcc"
 "_ZNK13DgEllipsoidRF8dist2dblERKe"
 "_ZNK13DgEllipsoidRF8dist2intERKe"
 "_ZNK13DgEllipsoidRF8dist2strB5cxx11ERKe"
 "_ZNK4DgRFI10DgGeoCoordeE10fromStringER10DgLocationPKcc"
 "_ZNK4DgRFI10DgGeoCoordeE10getAddressERK10DgLocation"
 "_ZNK4DgRFI10DgGeoCoordeE11copyAddressERK13DgAddressBasePS2_"
 "_ZNK4DgRFI10DgGeoCoordeE12equalAddressERK13DgAddressBaseS4_"
 "_ZNK4DgRFI10DgGeoCoordeE12makeLocationERKS0_"
 "_ZNK4DgRFI10DgGeoCoordeE13createAddressERK13DgAddressBase"
 "_ZNK4DgRFI10DgGeoCoordeE13createAddressEv"
 "_ZNK4DgRFI10DgGeoCoordeE14createLocationERK10DgLocationb"
 "_ZNK4DgRFI10DgGeoCoordeE15toAddressStringB5cxx11ERK10DgLocation"
 "_ZNK4DgRFI10DgGeoCoordeE15toAddressStringB5cxx11ERK10DgLocationc"
 "_ZNK4DgRFI10DgGeoCoordeE15toAddressStringB5cxx11ERK11DgLocVector"
 "_ZNK4DgRFI10DgGeoCoordeE15toAddressStringB5cxx11ERK11DgLocVectorc"
 "_ZNK4DgRFI10DgGeoCoordeE5toIntERK14DgDistanceBase"
 "_ZNK4DgRFI10DgGeoCoordeE8distanceERK10DgLocationS4_b"
 "_ZNK4DgRFI10DgGeoCoordeE8toDoubleERK14DgDistanceBase"
 "_ZNK4DgRFI10DgGeoCoordeE8toStringB5cxx11ERK10DgLocation"
 "_ZNK4DgRFI10DgGeoCoordeE8toStringB5cxx11ERK10DgLocationc"
 "_ZNK4DgRFI10DgGeoCoordeE8toStringB5cxx11ERK11DgLocVector"
 "_ZNK4DgRFI10DgGeoCoordeE8toStringB5cxx11ERK11DgLocVectorc"
 "_ZNK4DgRFI10DgGeoCoordeE8toStringB5cxx11ERK14DgDistanceBase"
 "_ZNK8DgRFBase10vecAddressERK8DgDVec2D"
 "_ZNK8DgRFBase11vecLocationERK8DgDVec2D"
 "_ZNK8DgRFBase13getVecAddressERK13DgAddressBase"
 "_ZNK8DgRFBase14getVecLocationERK10DgLocation"
 "_ZNK8DgRFBase8undefLocEv"
 "_ZNK8DgRFBaseeqERKS_"
 "_ZNK8DgRFBaseneERKS_"
 "_ZNK9DgAddressI10DgGeoCoordE7writeToERSo"
 "_ZNSt7__cxx1112basic_stringIcSt11char_traitsIcESaIcEE12_M_constructIPKcEEvT_S8_St20forward_iterator_tag"
 "_ZNSt7__cxx1112basic_stringIcSt11char_traitsIcESaIcEE12_M_constructIPcEEvT_S7_St20forward_iterator_tag"
 "_ZTI10DgDistanceIeE"
 "_ZTI10DgGeoSphRF"
 "_ZTI12DgGeoDatumRFI10DgGeoCoordeE"
 "_ZTI13DgAddressBase"
 "_ZTI13DgEllipsoidRF"
 "_ZTI14DgDistanceBase"
 "_ZTI4DgRFI10DgGeoCoordeE"
 "_ZTI8DgRFBase"
 "_ZTI9DgAddressI10DgGeoCoordE"
 "_ZTISt13runtime_error"
 "_ZTISt9exception"
 "_ZTS10DgDistanceIeE"
 "_ZTS10DgGeoSphRF"
 "_ZTS12DgGeoDatumRFI10DgGeoCoordeE"
 "_ZTS13DgAddressBase"
 "_ZTS13DgEllipsoidRF"
 "_ZTS14DgDistanceBase"
 "_ZTS4DgRFI10DgGeoCoordeE"
 "_ZTS8DgRFBase"
 "_ZTS9DgAddressI10DgGeoCoordE"
 "_ZTSSt13runtime_error"
 "_ZTSSt9exception"
 "_ZTV10DgDistanceIeE"
 "_ZTV13DgEllipsoidRF"
 "_ZTV4DgRFI10DgGeoCoordeE"
 "_ZTV9DgAddressI10DgGeoCoordE"
 "_ZN10DgDistanceIeED0Ev"
 "_ZN10DgDistanceIeED1Ev"
 "_ZN10DgGeoSphRF12icosaEdgeKM_E"
 "_ZN10DgGeoSphRF12totalAreaKM_E"
 "_ZN10DgGeoSphRF14earthRadiusKM_E"
 "_ZN10DgGeoSphRF14icosaEdgeDegs_E"
 "_ZN10DgGeoSphRF14icosaEdgeRads_E"
 "_ZN10DgGeoSphRF7azimuthERK10DgGeoCoordS2_b"
 "_ZN10DgGeoSphRF7densifyER9DgPolygoneb"
 "_ZN10DgGeoSphRF8midPointERK10DgGeoCoordS2_"
 "_ZN10DgGeoSphRF8travelGCERK10DgGeoCoordeeb"
 "_ZN11DgLocVector9convertToERK8DgRFBase"
 "_ZN12DgContCartRFD0Ev"
 "_ZN12DgContCartRFD1Ev"
 "_ZN13DgGeoSphDegRFC1ERK10DgGeoSphRFRKNSt7__cxx1112basic_stringIcSt11char_traitsIcESaIcEEE"
 "_ZN13DgGeoSphDegRFC2ERK10DgGeoSphRFRKNSt7__cxx1112basic_stringIcSt11char_traitsIcESaIcEEE"
 "_ZN13DgGeoSphDegRFD0Ev"
 "_ZN13DgGeoSphDegRFD1Ev"
 "_ZN14DgDegConverterD0Ev"
 "_ZN14DgDegConverterD1Ev"
 "_ZN3dgg4util9to_stringIeEENSt7__cxx1112basic_stringIcSt11char_traitsIcESaIcEEERKT_"
 "_ZN4DgRFI8DgDVec2DeE6jumpRFEP10DgLocation"
 "_ZN9DgAddressI10DgGeoCoordED0Ev"
 "_ZN9DgAddressI10DgGeoCoordED1Ev"
 "_ZN9DgAddressI8DgDVec2DED0Ev"
 "_ZN9DgAddressI8DgDVec2DED1Ev"
 "_ZN9DgPolygonD0Ev"
 "_ZN9DgPolygonD1Ev"
 "_ZNK10DgLocation8asStringB5cxx11Ev"
 "_ZNK11DgConverterI10DgGeoCoorde8DgDVec2DeE22createConvertedAddressERK13DgAddressBase"
 "_ZNK11DgLocVector11cardinalityEv"
 "_ZNK11DgLocVector15asAddressStringB5cxx11Ec"
 "_ZNK11DgLocVector15asAddressStringB5cxx11Ev"
 "_ZNK11DgLocVector8asStringB5cxx11Ec"
 "_ZNK11DgLocVector8asStringB5cxx11Ev"
 "_ZNK12DgContCartRF10vecAddressERK8DgDVec2D"
 "_ZNK12DgContCartRF11vecLocationERK8DgDVec2D"
 "_ZNK12DgContCartRF12undefAddressEv"
 "_ZNK12DgContCartRF13getVecAddressERK13DgAddressBase"
 "_ZNK12DgContCartRF14getVecLocationERK10DgLocation"
 "_ZNK12DgContCartRF4distERK8DgDVec2DS2_"
 "_ZNK12DgContCartRF7add2strB5cxx11ERK8DgDVec2D"
 "_ZNK12DgContCartRF7add2strB5cxx11ERK8DgDVec2Dc"
 "_ZNK12DgContCartRF7str2addEP8DgDVec2DPKcc"
 "_ZNK12DgContCartRF8dist2dblERKe"
 "_ZNK12DgContCartRF8dist2intERKe"
 "_ZNK12DgContCartRF8dist2strB5cxx11ERKe"
 "_ZNK14DgDegConverter19convertTypedAddressERK10DgGeoCoord"
 "_ZNK4DgRFI8DgDVec2DeE10fromStringER10DgLocationPKcc"
 "_ZNK4DgRFI8DgDVec2DeE10getAddressERK10DgLocation"
 "_ZNK4DgRFI8DgDVec2DeE11copyAddressERK13DgAddressBasePS2_"
 "_ZNK4DgRFI8DgDVec2DeE12equalAddressERK13DgAddressBaseS4_"
 "_ZNK4DgRFI8DgDVec2DeE12makeLocationERKS0_"
 "_ZNK4DgRFI8DgDVec2DeE13createAddressERK13DgAddressBase"
 "_ZNK4DgRFI8DgDVec2DeE13createAddressEv"
 "_ZNK4DgRFI8DgDVec2DeE14createLocationERK10DgLocationb"
 "_ZNK4DgRFI8DgDVec2DeE15toAddressStringB5cxx11ERK10DgLocation"
 "_ZNK4DgRFI8DgDVec2DeE15toAddressStringB5cxx11ERK10DgLocationc"
 "_ZNK4DgRFI8DgDVec2DeE15toAddressStringB5cxx11ERK11DgLocVector"
 "_ZNK4DgRFI8DgDVec2DeE15toAddressStringB5cxx11ERK11DgLocVectorc"
 "_ZNK4DgRFI8DgDVec2DeE5toIntERK14DgDistanceBase"
 "_ZNK4DgRFI8DgDVec2DeE8distanceERK10DgLocationS4_b"
 "_ZNK4DgRFI8DgDVec2DeE8toDoubleERK14DgDistanceBase"
 "_ZNK4DgRFI8DgDVec2DeE8toStringB5cxx11ERK10DgLocation"
 "_ZNK4DgRFI8DgDVec2DeE8toStringB5cxx11ERK10DgLocationc"
 "_ZNK4DgRFI8DgDVec2DeE8toStringB5cxx11ERK11DgLocVector"
 "_ZNK4DgRFI8DgDVec2DeE8toStringB5cxx11ERK11DgLocVectorc"
 "_ZNK4DgRFI8DgDVec2DeE8toStringB5cxx11ERK14DgDistanceBase"
 "_ZNK8DgRFBase10vecAddressERK8DgDVec2D"
 "_ZNK8DgRFBase11vecLocationERK8DgDVec2D"
 "_ZNK8DgRFBase13getVecAddressERK13DgAddressBase"
 "_ZNK8DgRFBase14getVecLocationERK10DgLocation"
 "_ZNK8DgRFBase8undefLocEv"
 "_ZNK8DgRFBaseeqERKS_"
 "_ZNK8DgRFBaseneERKS_"
 "_ZNK9DgAddressI10DgGeoCoordE7writeToERSo"
 "_ZNK9DgAddressI8DgDVec2DE7writeToERSo"
 "_ZNSt6vectorIP13DgAddressBaseSaIS1_EE12emplace_backIJS1_EEEvDpOT_"
 "_ZNSt6vectorIP13DgAddressBaseSaIS1_EE14_M_fill_insertEN9__gnu_cxx17__normal_iteratorIPS1_S3_EEjRKS1_"
 "_ZNSt6vectorIP13DgAddressBaseSaIS1_EE17_M_realloc_insertIJS1_EEEvN9__gnu_cxx17__normal_iteratorIPS1_S3_EEDpOT_"
 "_ZNSt7__cxx1112basic_stringIcSt11char_traitsIcESaIcEE12_M_constructIPKcEEvT_S8_St20forward_iterator_tag"
 "_ZNSt7__cxx1112basic_stringIcSt11char_traitsIcESaIcEE12_M_constructIPcEEvT_S7_St20forward_iterator_tag"
 "_ZTI10DgDistanceIeE"
 "_ZTI10DgGeoSphRF"
 "_ZTI11DgConverterI10DgGeoCoorde8DgDVec2DeE"
 "_ZTI11DgLocVector"
 "_ZTI12DgContCartRF"
 "_ZTI12DgGeoDatumRFI10DgGeoCoordeE"
 "_ZTI13DgAddressBase"
 "_ZTI13DgEllipsoidRF"
 "_ZTI13DgGeoSphDegRF"
 "_ZTI14DgDegConverter"
 "_ZTI14DgDistanceBase"
 "_ZTI15DgConverterBase"
 "_ZTI4DgRFI10DgGeoCoordeE"
 "_ZTI4DgRFI8DgDVec2DeE"
 "_ZTI8DgRFBase"
 "_ZTI9DgAddressI10DgGeoCoordE"
 "_ZTI9DgAddressI8DgDVec2DE"
 "_ZTI9DgLocBase"
 "_ZTI9DgPolygon"
 "_ZTS10DgDistanceIeE"
 "_ZTS10DgGeoSphRF"
 "_ZTS11DgConverterI10DgGeoCoorde8DgDVec2DeE"
 "_ZTS11DgLocVector"
 "_ZTS12DgContCartRF"
 "_ZTS12DgGeoDatumRFI10DgGeoCoordeE"
 "_ZTS13DgAddressBase"
 "_ZTS13DgEllipsoidRF"
 "_ZTS13DgGeoSphDegRF"
 "_ZTS14DgDegConverter"
 "_ZTS14DgDistanceBase"
 "_ZTS15DgConverterBase"
 "_ZTS4DgRFI10DgGeoCoordeE"
 "_ZTS4DgRFI8DgDVec2DeE"
 "_ZTS8DgRFBase"
 "_ZTS9DgAddressI10DgGeoCoordE"
 "_ZTS9DgAddressI8DgDVec2DE"
 "_ZTS9DgLocBase"
 "_ZTS9DgPolygon"
 "_ZTV10DgDistanceIeE"
 "_ZTV11DgConverterI10DgGeoCoorde8DgDVec2DeE"
 "_ZTV12DgContCartRF"
 "_ZTV13DgGeoSphDegRF"
 "_ZTV14DgDegConverter"
 "_ZTV4DgRFI8DgDVec2DeE"
 "_ZTV9DgAddressI10DgGeoCoordE"
 "_ZTV9DgAddressI8DgDVec2DE"
 "_ZTV9DgPolygon"
 "_ZN10DgDistanceIxED0Ev"
 "_ZN10DgDistanceIxED1Ev"
 "_ZN10DgLocation12clearAddressEv"
 "_ZN11DgLocVector9convertToERK8DgRFBase"
 "_ZN13DgHexC1Grid2DD0Ev"
 "_ZN13DgHexC1Grid2DD1Ev"
 "_ZN3dgg4util9to_stringIxEENSt7__cxx1112basic_stringIcSt11char_traitsIcESaIcEEERKT_"
 "_ZN4DgRFI8DgIVec2DxE6jumpRFEP10DgLocation"
 "_ZN9DgAddressI8DgDVec2DED0Ev"
 "_ZN9DgAddressI8DgDVec2DED1Ev"
 "_ZN9DgAddressI8DgIVec2DED0Ev"
 "_ZN9DgAddressI8DgIVec2DED1Ev"
 "_ZN9DgPolygonD0Ev"
 "_ZN9DgPolygonD1Ev"
 "_ZNK10DgDiscRF2D12undefAddressEv"
 "_ZNK10DgDiscRF2D7add2strB5cxx11ERK8DgIVec2D"
 "_ZNK10DgDiscRF2D7add2strB5cxx11ERK8DgIVec2Dc"
 "_ZNK10DgDiscRF2D7str2addEP8DgIVec2DPKcc"
 "_ZNK10DgLocation8asStringB5cxx11Ev"
 "_ZNK11DgLocVector11cardinalityEv"
 "_ZNK11DgLocVector15asAddressStringB5cxx11Ec"
 "_ZNK11DgLocVector15asAddressStringB5cxx11Ev"
 "_ZNK11DgLocVector8asStringB5cxx11Ec"
 "_ZNK11DgLocVector8asStringB5cxx11Ev"
 "_ZNK13DgHexC1Grid2D11invQuantifyERK8DgIVec2D"
 "_ZNK13DgHexC1Grid2D14setAddVerticesERK8DgIVec2DR9DgPolygon"
 "_ZNK13DgHexC1Grid2D15setAddNeighborsERK8DgIVec2DR11DgLocVector"
 "_ZNK13DgHexC1Grid2D4distERK8DgIVec2DS2_"
 "_ZNK13DgHexC1Grid2D8quantifyERK8DgDVec2D"
 "_ZNK4DgRFI8DgIVec2DxE10fromStringER10DgLocationPKcc"
 "_ZNK4DgRFI8DgIVec2DxE10getAddressERK10DgLocation"
 "_ZNK4DgRFI8DgIVec2DxE11copyAddressERK13DgAddressBasePS2_"
 "_ZNK4DgRFI8DgIVec2DxE12equalAddressERK13DgAddressBaseS4_"
 "_ZNK4DgRFI8DgIVec2DxE12makeLocationERKS0_"
 "_ZNK4DgRFI8DgIVec2DxE13createAddressERK13DgAddressBase"
 "_ZNK4DgRFI8DgIVec2DxE13createAddressEv"
 "_ZNK4DgRFI8DgIVec2DxE14createLocationERK10DgLocationb"
 "_ZNK4DgRFI8DgIVec2DxE15toAddressStringB5cxx11ERK10DgLocation"
 "_ZNK4DgRFI8DgIVec2DxE15toAddressStringB5cxx11ERK10DgLocationc"
 "_ZNK4DgRFI8DgIVec2DxE15toAddressStringB5cxx11ERK11DgLocVector"
 "_ZNK4DgRFI8DgIVec2DxE15toAddressStringB5cxx11ERK11DgLocVectorc"
 "_ZNK4DgRFI8DgIVec2DxE5toIntERK14DgDistanceBase"
 "_ZNK4DgRFI8DgIVec2DxE8distanceERK10DgLocationS4_b"
 "_ZNK4DgRFI8DgIVec2DxE8toDoubleERK14DgDistanceBase"
 "_ZNK4DgRFI8DgIVec2DxE8toStringB5cxx11ERK10DgLocation"
 "_ZNK4DgRFI8DgIVec2DxE8toStringB5cxx11ERK10DgLocationc"
 "_ZNK4DgRFI8DgIVec2DxE8toStringB5cxx11ERK11DgLocVector"
 "_ZNK4DgRFI8DgIVec2DxE8toStringB5cxx11ERK11DgLocVectorc"
 "_ZNK4DgRFI8DgIVec2DxE8toStringB5cxx11ERK14DgDistanceBase"
 "_ZNK8DgDiscRFI8DgIVec2D8DgDVec2DeE11setAddPointERKS0_R10DgLocation"
 "_ZNK8DgDiscRFI8DgIVec2D8DgDVec2DeE11setVerticesERK10DgLocationR9DgPolygon"
 "_ZNK8DgDiscRFI8DgIVec2D8DgDVec2DeE11setVerticesERK10DgLocationRK8DgRFBaseR9DgPolygon"
 "_ZNK8DgDiscRFI8DgIVec2D8DgDVec2DeE11setVerticesERKS0_R9DgPolygon"
 "_ZNK8DgDiscRFI8DgIVec2D8DgDVec2DeE11setVerticesERKS0_RK8DgRFBaseR9DgPolygon"
 "_ZNK8DgDiscRFI8DgIVec2D8DgDVec2DeE12makeVerticesERK10DgLocation"
 "_ZNK8DgDiscRFI8DgIVec2D8DgDVec2DeE12makeVerticesERKS0_"
 "_ZNK8DgDiscRFI8DgIVec2D8DgDVec2DeE12setNeighborsERK10DgLocationR11DgLocVector"
 "_ZNK8DgDiscRFI8DgIVec2D8DgDVec2DeE12setNeighborsERKS0_R11DgLocVector"
 "_ZNK8DgDiscRFI8DgIVec2D8DgDVec2DeE12setNeighborsERKS0_RK8DgRFBaseR11DgLocVector"
 "_ZNK8DgDiscRFI8DgIVec2D8DgDVec2DeE13makeNeighborsERK10DgLocation"
 "_ZNK8DgDiscRFI8DgIVec2D8DgDVec2DeE13makeNeighborsERKS0_"
 "_ZNK8DgDiscRFI8DgIVec2D8DgDVec2DeE8dist2dblERKx"
 "_ZNK8DgDiscRFI8DgIVec2D8DgDVec2DeE8dist2intERKx"
 "_ZNK8DgDiscRFI8DgIVec2D8DgDVec2DeE8dist2strB5cxx11ERKx"
 "_ZNK8DgDiscRFI8DgIVec2D8DgDVec2DeE8setPointERK10DgLocationRK8DgRFBaseRS3_"
 "_ZNK8DgDiscRFI8DgIVec2D8DgDVec2DeE8setPointERK10DgLocationRS3_"
 "_ZNK8DgDiscRFI8DgIVec2D8DgDVec2DeE8setPointERKS0_R10DgLocation"
 "_ZNK8DgDiscRFI8DgIVec2D8DgDVec2DeE8setPointERKS0_RK8DgRFBaseR10DgLocation"
 "_ZNK8DgDiscRFI8DgIVec2D8DgDVec2DeE9makePointERK10DgLocation"
 "_ZNK8DgDiscRFI8DgIVec2D8DgDVec2DeE9makePointERKS0_"
 "_ZNK8DgRFBase10vecAddressERK8DgDVec2D"
 "_ZNK8DgRFBase11vecLocationERK8DgDVec2D"
 "_ZNK8DgRFBase13getVecAddressERK13DgAddressBase"
 "_ZNK8DgRFBase14getVecLocationERK10DgLocation"
 "_ZNK8DgRFBase8undefLocEv"
 "_ZNK8DgRFBaseeqERKS_"
 "_ZNK8DgRFBaseneERKS_"
 "_ZNK9DgAddressI8DgDVec2DE7writeToERSo"
 "_ZNK9DgAddressI8DgIVec2DE7writeToERSo"
 "_ZNSt6vectorIP13DgAddressBaseSaIS1_EE12emplace_backIJS1_EEEvDpOT_"
 "_ZNSt6vectorIP13DgAddressBaseSaIS1_EE17_M_realloc_insertIJS1_EEEvN9__gnu_cxx17__normal_iteratorIPS1_S3_EEDpOT_"
 "_ZNSt7__cxx1112basic_stringIcSt11char_traitsIcESaIcEE12_M_constructIPKcEEvT_S8_St20forward_iterator_tag"
 "_ZNSt7__cxx1112basic_stringIcSt11char_traitsIcESaIcEE12_M_constructIPcEEvT_S7_St20forward_iterator_tag"
 "_ZTI10DgDiscRF2D"
 "_ZTI10DgDistanceIxE"
 "_ZTI11DgLocVector"
 "_ZTI13DgAddressBase"
 "_ZTI13DgHexC1Grid2D"
 "_ZTI14DgDistanceBase"
 "_ZTI4DgRFI8DgIVec2DxE"
 "_ZTI8DgDiscRFI8DgIVec2D8DgDVec2DeE"
 "_ZTI8DgRFBase"
 "_ZTI9DgAddressI8DgDVec2DE"
 "_ZTI9DgAddressI8DgIVec2DE"
 "_ZTI9DgLocBase"
 "_ZTI9DgPolygon"
 "_ZTS10DgDiscRF2D"
 "_ZTS10DgDistanceIxE"
 "_ZTS11DgLocVector"
 "_ZTS13DgAddressBase"
 "_ZTS13DgHexC1Grid2D"
 "_ZTS14DgDistanceBase"
 "_ZTS4DgRFI8DgIVec2DxE"
 "_ZTS8DgDiscRFI8DgIVec2D8DgDVec2DeE"
 "_ZTS8DgRFBase"
 "_ZTS9DgAddressI8DgDVec2DE"
 "_ZTS9DgAddressI8DgIVec2DE"
 "_ZTS9DgLocBase"
 "_ZTS9DgPolygon"
 "_ZTV10DgDistanceIxE"
 "_ZTV13DgHexC1Grid2D"
 "_ZTV4DgRFI8DgIVec2DxE"
 "_ZTV9DgAddressI8DgDVec2DE"
 "_ZTV9DgAddressI8DgIVec2DE"
 "_ZTV9DgPolygon"
 "_ZN10DgDistanceIeED0Ev"
 "_ZN10DgDistanceIeED1Ev"
 "_ZN10DgDistanceIxED0Ev"
 "_ZN10DgDistanceIxED1Ev"
 "_ZN10DgLocation12clearAddressEv"
 "_ZN11DgLocVector9convertToERK8DgRFBase"
 "_ZN12DgContCartRFD0Ev"
 "_ZN12DgContCartRFD1Ev"
 "_ZN13DgHexC2Grid2DC1ER11DgRFNetworkRK4DgRFI8DgDVec2DeERKNSt7__cxx1112basic_stringIcSt11char_traitsIcESaIcEEE"
 "_ZN13DgHexC2Grid2DC2ER11DgRFNetworkRK4DgRFI8DgDVec2DeERKNSt7__cxx1112basic_stringIcSt11char_traitsIcESaIcEEE"
 "_ZN13DgHexC2Grid2DD0Ev"
 "_ZN13DgHexC2Grid2DD1Ev"
 "_ZN21DgContAffineConverterD0Ev"
 "_ZN21DgContAffineConverterD1Ev"
 "_ZN24DgContInvAffineConverterD0Ev"
 "_ZN24DgContInvAffineConverterD1Ev"
 "_ZN3dgg4util9to_stringIxEENSt7__cxx1112basic_stringIcSt11char_traitsIcESaIcEEERKT_"
 "_ZN4DgRFI8DgDVec2DeE6jumpRFEP10DgLocation"
 "_ZN4DgRFI8DgIVec2DxE6jumpRFEP10DgLocation"
 "_ZN8DgDiscRFI8DgIVec2D8DgDVec2DeE16DgQuantConverterD0Ev"
 "_ZN8DgDiscRFI8DgIVec2D8DgDVec2DeE16DgQuantConverterD1Ev"
 "_ZN8DgDiscRFI8DgIVec2D8DgDVec2DeE19DgInvQuantConverterD0Ev"
 "_ZN8DgDiscRFI8DgIVec2D8DgDVec2DeE19DgInvQuantConverterD1Ev"
 "_ZN9DgAddressI8DgDVec2DED0Ev"
 "_ZN9DgAddressI8DgDVec2DED1Ev"
 "_ZN9DgAddressI8DgIVec2DED0Ev"
 "_ZN9DgAddressI8DgIVec2DED1Ev"
 "_ZN9DgPolygonD0Ev"
 "_ZN9DgPolygonD1Ev"
 "_ZNK10DgDiscRF2D12undefAddressEv"
 "_ZNK10DgDiscRF2D7add2strB5cxx11ERK8DgIVec2D"
 "_ZNK10DgDiscRF2D7add2strB5cxx11ERK8DgIVec2Dc"
 "_ZNK10DgDiscRF2D7str2addEP8DgIVec2DPKcc"
 "_ZNK10DgLocation8asStringB5cxx11Ev"
 "_ZNK11DgConverterI8DgDVec2De8DgIVec2DxE22createConvertedAddressERK13DgAddressBase"
 "_ZNK11DgConverterI8DgDVec2DeS0_eE22createConvertedAddressERK13DgAddressBase"
 "_ZNK11DgConverterI8DgIVec2Dx8DgDVec2DeE22createConvertedAddressERK13DgAddressBase"
 "_ZNK11DgLocVector11cardinalityEv"
 "_ZNK11DgLocVector15asAddressStringB5cxx11Ec"
 "_ZNK11DgLocVector15asAddressStringB5cxx11Ev"
 "_ZNK11DgLocVector8asStringB5cxx11Ec"
 "_ZNK11DgLocVector8asStringB5cxx11Ev"
 "_ZNK12DgContCartRF10vecAddressERK8DgDVec2D"
 "_ZNK12DgContCartRF11vecLocationERK8DgDVec2D"
 "_ZNK12DgContCartRF12undefAddressEv"
 "_ZNK12DgContCartRF13getVecAddressERK13DgAddressBase"
 "_ZNK12DgContCartRF14getVecLocationERK10DgLocation"
 "_ZNK12DgContCartRF4distERK8DgDVec2DS2_"
 "_ZNK12DgContCartRF7add2strB5cxx11ERK8DgDVec2D"
 "_ZNK12DgContCartRF7add2strB5cxx11ERK8DgDVec2Dc"
 "_ZNK12DgContCartRF7str2addEP8DgDVec2DPKcc"
 "_ZNK12DgContCartRF8dist2dblERKe"
 "_ZNK12DgContCartRF8dist2intERKe"
 "_ZNK12DgContCartRF8dist2strB5cxx11ERKe"
 "_ZNK13DgHexC1Grid2D4distERK8DgIVec2DS2_"
 "_ZNK13DgHexC2Grid2D11invQuantifyERK8DgIVec2D"
 "_ZNK13DgHexC2Grid2D14setAddVerticesERK8DgIVec2DR9DgPolygon"
 "_ZNK13DgHexC2Grid2D15setAddNeighborsERK8DgIVec2DR11DgLocVector"
 "_ZNK13DgHexC2Grid2D4distERK8DgIVec2DS2_"
 "_ZNK13DgHexC2Grid2D8quantifyERK8DgDVec2D"
 "_ZNK21DgContAffineConverter19convertTypedAddressERK8DgDVec2D"
 "_ZNK24DgContInvAffineConverter19convertTypedAddressERK8DgDVec2D"
 "_ZNK4DgRFI8DgDVec2DeE10fromStringER10DgLocationPKcc"
 "_ZNK4DgRFI8DgDVec2DeE10getAddressERK10DgLocation"
 "_ZNK4DgRFI8DgDVec2DeE11copyAddressERK13DgAddressBasePS2_"
 "_ZNK4DgRFI8DgDVec2DeE12equalAddressERK13DgAddressBaseS4_"
 "_ZNK4DgRFI8DgDVec2DeE12makeLocationERKS0_"
 "_ZNK4DgRFI8DgDVec2DeE13createAddressERK13DgAddressBase"
 "_ZNK4DgRFI8DgDVec2DeE13createAddressEv"
 "_ZNK4DgRFI8DgDVec2DeE14createLocationERK10DgLocationb"
 "_ZNK4DgRFI8DgDVec2DeE15toAddressStringB5cxx11ERK10DgLocation"
 "_ZNK4DgRFI8DgDVec2DeE15toAddressStringB5cxx11ERK10DgLocationc"
 "_ZNK4DgRFI8DgDVec2DeE15toAddressStringB5cxx11ERK11DgLocVector"
 "_ZNK4DgRFI8DgDVec2DeE15toAddressStringB5cxx11ERK11DgLocVectorc"
 "_ZNK4DgRFI8DgDVec2DeE5toIntERK14DgDistanceBase"
 "_ZNK4DgRFI8DgDVec2DeE8distanceERK10DgLocationS4_b"
 "_ZNK4DgRFI8DgDVec2DeE8toDoubleERK14DgDistanceBase"
 "_ZNK4DgRFI8DgDVec2DeE8toStringB5cxx11ERK10DgLocation"
 "_ZNK4DgRFI8DgDVec2DeE8toStringB5cxx11ERK10DgLocationc"
 "_ZNK4DgRFI8DgDVec2DeE8toStringB5cxx11ERK11DgLocVector"
 "_ZNK4DgRFI8DgDVec2DeE8toStringB5cxx11ERK11DgLocVectorc"
 "_ZNK4DgRFI8DgDVec2DeE8toStringB5cxx11ERK14DgDistanceBase"
 "_ZNK4DgRFI8DgIVec2DxE10fromStringER10DgLocationPKcc"
 "_ZNK4DgRFI8DgIVec2DxE10getAddressERK10DgLocation"
 "_ZNK4DgRFI8DgIVec2DxE11copyAddressERK13DgAddressBasePS2_"
 "_ZNK4DgRFI8DgIVec2DxE12equalAddressERK13DgAddressBaseS4_"
 "_ZNK4DgRFI8DgIVec2DxE12makeLocationERKS0_"
 "_ZNK4DgRFI8DgIVec2DxE13createAddressERK13DgAddressBase"
 "_ZNK4DgRFI8DgIVec2DxE13createAddressEv"
 "_ZNK4DgRFI8DgIVec2DxE14createLocationERK10DgLocationb"
 "_ZNK4DgRFI8DgIVec2DxE15toAddressStringB5cxx11ERK10DgLocation"
 "_ZNK4DgRFI8DgIVec2DxE15toAddressStringB5cxx11ERK10DgLocationc"
 "_ZNK4DgRFI8DgIVec2DxE15toAddressStringB5cxx11ERK11DgLocVector"
 "_ZNK4DgRFI8DgIVec2DxE15toAddressStringB5cxx11ERK11DgLocVectorc"
 "_ZNK4DgRFI8DgIVec2DxE5toIntERK14DgDistanceBase"
 "_ZNK4DgRFI8DgIVec2DxE8distanceERK10DgLocationS4_b"
 "_ZNK4DgRFI8DgIVec2DxE8toDoubleERK14DgDistanceBase"
 "_ZNK4DgRFI8DgIVec2DxE8toStringB5cxx11ERK10DgLocation"
 "_ZNK4DgRFI8DgIVec2DxE8toStringB5cxx11ERK10DgLocationc"
 "_ZNK4DgRFI8DgIVec2DxE8toStringB5cxx11ERK11DgLocVector"
 "_ZNK4DgRFI8DgIVec2DxE8toStringB5cxx11ERK11DgLocVectorc"
 "_ZNK4DgRFI8DgIVec2DxE8toStringB5cxx11ERK14DgDistanceBase"
 "_ZNK8DgDVec2DcvNSt7__cxx1112basic_stringIcSt11char_traitsIcESaIcEEEEv"
 "_ZNK8DgDiscRFI8DgIVec2D8DgDVec2DeE11setAddPointERKS0_R10DgLocation"
 "_ZNK8DgDiscRFI8DgIVec2D8DgDVec2DeE11setVerticesERK10DgLocationR9DgPolygon"
 "_ZNK8DgDiscRFI8DgIVec2D8DgDVec2DeE11setVerticesERK10DgLocationRK8DgRFBaseR9DgPolygon"
 "_ZNK8DgDiscRFI8DgIVec2D8DgDVec2DeE11setVerticesERKS0_R9DgPolygon"
 "_ZNK8DgDiscRFI8DgIVec2D8DgDVec2DeE11setVerticesERKS0_RK8DgRFBaseR9DgPolygon"
 "_ZNK8DgDiscRFI8DgIVec2D8DgDVec2DeE12makeVerticesERK10DgLocation"
 "_ZNK8DgDiscRFI8DgIVec2D8DgDVec2DeE12makeVerticesERKS0_"
 "_ZNK8DgDiscRFI8DgIVec2D8DgDVec2DeE12setNeighborsERK10DgLocationR11DgLocVector"
 "_ZNK8DgDiscRFI8DgIVec2D8DgDVec2DeE12setNeighborsERKS0_R11DgLocVector"
 "_ZNK8DgDiscRFI8DgIVec2D8DgDVec2DeE12setNeighborsERKS0_RK8DgRFBaseR11DgLocVector"
 "_ZNK8DgDiscRFI8DgIVec2D8DgDVec2DeE13makeNeighborsERK10DgLocation"
 "_ZNK8DgDiscRFI8DgIVec2D8DgDVec2DeE13makeNeighborsERKS0_"
 "_ZNK8DgDiscRFI8DgIVec2D8DgDVec2DeE16DgQuantConverter19convertTypedAddressERKS1_"
 "_ZNK8DgDiscRFI8DgIVec2D8DgDVec2DeE19DgInvQuantConverter19convertTypedAddressERKS0_"
 "_ZNK8DgDiscRFI8DgIVec2D8DgDVec2DeE8dist2dblERKx"
 "_ZNK8DgDiscRFI8DgIVec2D8DgDVec2DeE8dist2intERKx"
 "_ZNK8DgDiscRFI8DgIVec2D8DgDVec2DeE8dist2strB5cxx11ERKx"
 "_ZNK8DgDiscRFI8DgIVec2D8DgDVec2DeE8setPointERK10DgLocationRK8DgRFBaseRS3_"
 "_ZNK8DgDiscRFI8DgIVec2D8DgDVec2DeE8setPointERK10DgLocationRS3_"
 "_ZNK8DgDiscRFI8DgIVec2D8DgDVec2DeE8setPointERKS0_R10DgLocation"
 "_ZNK8DgDiscRFI8DgIVec2D8DgDVec2DeE8setPointERKS0_RK8DgRFBaseR10DgLocation"
 "_ZNK8DgDiscRFI8DgIVec2D8DgDVec2DeE9makePointERK10DgLocation"
 "_ZNK8DgDiscRFI8DgIVec2D8DgDVec2DeE9makePointERKS0_"
 "_ZNK8DgIVec2DcvNSt7__cxx1112basic_stringIcSt11char_traitsIcESaIcEEEEv"
 "_ZNK8DgRFBase10vecAddressERK8DgDVec2D"
 "_ZNK8DgRFBase11vecLocationERK8DgDVec2D"
 "_ZNK8DgRFBase13getVecAddressERK13DgAddressBase"
 "_ZNK8DgRFBase14getVecLocationERK10DgLocation"
 "_ZNK8DgRFBase8undefLocEv"
 "_ZNK8DgRFBaseeqERKS_"
 "_ZNK8DgRFBaseneERKS_"
 "_ZNK9DgAddressI8DgDVec2DE7writeToERSo"
 "_ZNK9DgAddressI8DgIVec2DE7writeToERSo"
 "_ZNSt6vectorIP13DgAddressBaseSaIS1_EE17_M_realloc_insertIJS1_EEEvN9__gnu_cxx17__normal_iteratorIPS1_S3_EEDpOT_"
 "_ZNSt7__cxx1112basic_stringIcSt11char_traitsIcESaIcEE12_M_constructIPKcEEvT_S8_St20forward_iterator_tag"
 "_ZNSt7__cxx1112basic_stringIcSt11char_traitsIcESaIcEE12_M_constructIPcEEvT_S7_St20forward_iterator_tag"
 "_ZTI10DgDiscRF2D"
 "_ZTI10DgDistanceIeE"
 "_ZTI10DgDistanceIxE"
 "_ZTI11DgConverterI8DgDVec2De8DgIVec2DxE"
 "_ZTI11DgConverterI8DgDVec2DeS0_eE"
 "_ZTI11DgConverterI8DgIVec2Dx8DgDVec2DeE"
 "_ZTI11DgLocVector"
 "_ZTI12DgContCartRF"
 "_ZTI13DgAddressBase"
 "_ZTI13DgHexC2Grid2D"
 "_ZTI14DgDistanceBase"
 "_ZTI15DgConverterBase"
 "_ZTI21DgContAffineConverter"
 "_ZTI24DgContInvAffineConverter"
 "_ZTI4DgRFI8DgDVec2DeE"
 "_ZTI4DgRFI8DgIVec2DxE"
 "_ZTI8DgDiscRFI8DgIVec2D8DgDVec2DeE"
 "_ZTI8DgRFBase"
 "_ZTI9DgAddressI8DgDVec2DE"
 "_ZTI9DgAddressI8DgIVec2DE"
 "_ZTI9DgLocBase"
 "_ZTI9DgPolygon"
 "_ZTIN8DgDiscRFI8DgIVec2D8DgDVec2DeE16DgQuantConverterE"
 "_ZTIN8DgDiscRFI8DgIVec2D8DgDVec2DeE19DgInvQuantConverterE"
 "_ZTS10DgDiscRF2D"
 "_ZTS10DgDistanceIeE"
 "_ZTS10DgDistanceIxE"
 "_ZTS11DgConverterI8DgDVec2De8DgIVec2DxE"
 "_ZTS11DgConverterI8DgDVec2DeS0_eE"
 "_ZTS11DgConverterI8DgIVec2Dx8DgDVec2DeE"
 "_ZTS11DgLocVector"
 "_ZTS12DgContCartRF"
 "_ZTS13DgAddressBase"
 "_ZTS13DgHexC2Grid2D"
 "_ZTS14DgDistanceBase"
 "_ZTS15DgConverterBase"
 "_ZTS21DgContAffineConverter"
 "_ZTS24DgContInvAffineConverter"
 "_ZTS4DgRFI8DgDVec2DeE"
 "_ZTS4DgRFI8DgIVec2DxE"
 "_ZTS8DgDiscRFI8DgIVec2D8DgDVec2DeE"
 "_ZTS8DgRFBase"
 "_ZTS9DgAddressI8DgDVec2DE"
 "_ZTS9DgAddressI8DgIVec2DE"
 "_ZTS9DgLocBase"
 "_ZTS9DgPolygon"
 "_ZTSN8DgDiscRFI8DgIVec2D8DgDVec2DeE16DgQuantConverterE"
 "_ZTSN8DgDiscRFI8DgIVec2D8DgDVec2DeE19DgInvQuantConverterE"
 "_ZTV10DgDiscRF2D"
 "_ZTV10DgDistanceIeE"
 "_ZTV10DgDistanceIxE"
 "_ZTV11DgConverterI8DgDVec2De8DgIVec2DxE"
 "_ZTV11DgConverterI8DgDVec2DeS0_eE"
 "_ZTV11DgConverterI8DgIVec2Dx8DgDVec2DeE"
 "_ZTV12DgContCartRF"
 "_ZTV13DgHexC2Grid2D"
 "_ZTV21DgContAffineConverter"
 "_ZTV24DgContInvAffineConverter"
 "_ZTV4DgRFI8DgDVec2DeE"
 "_ZTV4DgRFI8DgIVec2DxE"
 "_ZTV8DgDiscRFI8DgIVec2D8DgDVec2DeE"
 "_ZTV9DgAddressI8DgDVec2DE"
 "_ZTV9DgAddressI8DgIVec2DE"
 "_ZTV9DgPolygon"
 "_ZTVN8DgDiscRFI8DgIVec2D8DgDVec2DeE16DgQuantConverterE"
 "_ZTVN8DgDiscRFI8DgIVec2D8DgDVec2DeE19DgInvQuantConverterE"
 "_ZGVZNK11DgDiscRFS2D12undefAddressEvE5undef"
 "_ZN10DgDistanceIeED0Ev"
 "_ZN10DgDistanceIeED1Ev"
 "_ZN10DgDistanceIxED0Ev"
 "_ZN10DgDistanceIxED1Ev"
 "_ZN10DgLocation12clearAddressEv"
 "_ZN10DgLocationC1ERKS_"
 "_ZN11DgLocVector9convertToERK8DgRFBase"
 "_ZN11DgLocVectorD1Ev"
 "_ZN11DgLocVectorD2Ev"
 "_ZN12DgContCartRFD0Ev"
 "_ZN12DgContCartRFD1Ev"
 "_ZN12DgHexGrid2DSC1ER11DgRFNetworkRK4DgRFI8DgDVec2DeEijbbRKNSt7__cxx1112basic_stringIcSt11char_traitsIcESaIcEEEbib"
 "_ZN12DgHexGrid2DSC1ERKS_"
 "_ZN12DgHexGrid2DSC2ER11DgRFNetworkRK4DgRFI8DgDVec2DeEijbbRKNSt7__cxx1112basic_stringIcSt11char_traitsIcESaIcEEEbib"
 "_ZN12DgHexGrid2DSC2ERKS_"
 "_ZN12DgHexGrid2DSD0Ev"
 "_ZN12DgHexGrid2DSD1Ev"
 "_ZN12DgHexGrid2DSD2Ev"
 "_ZN12DgHexGrid2DSaSERKS_"
 "_ZN17DgAddResConverterI8DgIVec2D8DgDVec2DeED0Ev"
 "_ZN17DgAddResConverterI8DgIVec2D8DgDVec2DeED1Ev"
 "_ZN17DgResAddConverterI8DgIVec2D8DgDVec2DeED0Ev"
 "_ZN17DgResAddConverterI8DgIVec2D8DgDVec2DeED1Ev"
 "_ZN21DgContAffineConverterD0Ev"
 "_ZN21DgContAffineConverterD1Ev"
 "_ZN24DgContInvAffineConverterD0Ev"
 "_ZN24DgContInvAffineConverterD1Ev"
 "_ZN3dgg4util9to_stringIiEENSt7__cxx1112basic_stringIcSt11char_traitsIcESaIcEEERKT_"
 "_ZN3dgg4util9to_stringIxEENSt7__cxx1112basic_stringIcSt11char_traitsIcESaIcEEERKT_"
 "_ZN4DgRFI8DgDVec2DeE6jumpRFEP10DgLocation"
 "_ZN4DgRFI8DgIVec2DxE6jumpRFEP10DgLocation"
 "_ZN4DgRFI8DgResAddI8DgIVec2DExE6jumpRFEP10DgLocation"
 "_ZN8DgDiscRFI8DgIVec2D8DgDVec2DeE16DgQuantConverterD0Ev"
 "_ZN8DgDiscRFI8DgIVec2D8DgDVec2DeE16DgQuantConverterD1Ev"
 "_ZN8DgDiscRFI8DgIVec2D8DgDVec2DeE19DgInvQuantConverterD0Ev"
 "_ZN8DgDiscRFI8DgIVec2D8DgDVec2DeE19DgInvQuantConverterD1Ev"
 "_ZN8DgDiscRFI8DgResAddI8DgIVec2DE8DgDVec2DeE16DgQuantConverterD0Ev"
 "_ZN8DgDiscRFI8DgResAddI8DgIVec2DE8DgDVec2DeE16DgQuantConverterD1Ev"
 "_ZN8DgDiscRFI8DgResAddI8DgIVec2DE8DgDVec2DeE19DgInvQuantConverterD0Ev"
 "_ZN8DgDiscRFI8DgResAddI8DgIVec2DE8DgDVec2DeE19DgInvQuantConverterD1Ev"
 "_ZN8DgResAddI8DgIVec2DEaSERKS1_"
 "_ZN9DgAddressI8DgDVec2DED0Ev"
 "_ZN9DgAddressI8DgDVec2DED1Ev"
 "_ZN9DgAddressI8DgIVec2DED0Ev"
 "_ZN9DgAddressI8DgIVec2DED1Ev"
 "_ZN9DgAddressI8DgResAddI8DgIVec2DEED0Ev"
 "_ZN9DgAddressI8DgResAddI8DgIVec2DEED1Ev"
 "_ZN9DgPolygonD0Ev"
 "_ZN9DgPolygonD1Ev"
 "_ZNK10DgDiscRF2D12undefAddressEv"
 "_ZNK10DgDiscRF2D7add2strB5cxx11ERK8DgIVec2D"
 "_ZNK10DgDiscRF2D7add2strB5cxx11ERK8DgIVec2Dc"
 "_ZNK10DgDiscRF2D7str2addEP8DgIVec2DPKcc"
 "_ZNK10DgLocation8asStringB5cxx11Ev"
 "_ZNK11DgConverterI8DgDVec2De8DgIVec2DxE22createConvertedAddressERK13DgAddressBase"
 "_ZNK11DgConverterI8DgDVec2De8DgResAddI8DgIVec2DExE22createConvertedAddressERK13DgAddressBase"
 "_ZNK11DgConverterI8DgDVec2DeS0_eE22createConvertedAddressERK13DgAddressBase"
 "_ZNK11DgConverterI8DgIVec2Dx8DgDVec2DeE22createConvertedAddressERK13DgAddressBase"
 "_ZNK11DgConverterI8DgIVec2Dx8DgResAddIS0_ExE22createConvertedAddressERK13DgAddressBase"
 "_ZNK11DgConverterI8DgResAddI8DgIVec2DEx8DgDVec2DeE22createConvertedAddressERK13DgAddressBase"
 "_ZNK11DgConverterI8DgResAddI8DgIVec2DExS1_xE22createConvertedAddressERK13DgAddressBase"
 "_ZNK11DgDiscRFS2D12undefAddressEv"
 "_ZNK11DgLocVector11cardinalityEv"
 "_ZNK11DgLocVector15asAddressStringB5cxx11Ec"
 "_ZNK11DgLocVector15asAddressStringB5cxx11Ev"
 "_ZNK11DgLocVector8asStringB5cxx11Ec"
 "_ZNK11DgLocVector8asStringB5cxx11Ev"
 "_ZNK12DgContCartRF10vecAddressERK8DgDVec2D"
 "_ZNK12DgContCartRF11vecLocationERK8DgDVec2D"
 "_ZNK12DgContCartRF12undefAddressEv"
 "_ZNK12DgContCartRF13getVecAddressERK13DgAddressBase"
 "_ZNK12DgContCartRF14getVecLocationERK10DgLocation"
 "_ZNK12DgContCartRF4distERK8DgDVec2DS2_"
 "_ZNK12DgContCartRF7add2strB5cxx11ERK8DgDVec2D"
 "_ZNK12DgContCartRF7add2strB5cxx11ERK8DgDVec2Dc"
 "_ZNK12DgContCartRF7str2addEP8DgDVec2DPKcc"
 "_ZNK12DgContCartRF8dist2dblERKe"
 "_ZNK12DgContCartRF8dist2intERKe"
 "_ZNK12DgContCartRF8dist2strB5cxx11ERKe"
 "_ZNK12DgHexGrid2DS13setAddParentsERK8DgResAddI8DgIVec2DER11DgLocVector"
 "_ZNK12DgHexGrid2DS17setAddAllChildrenERK8DgResAddI8DgIVec2DER11DgLocVector"
 "_ZNK12DgHexGrid2DS22setAddBoundaryChildrenERK8DgResAddI8DgIVec2DER11DgLocVector"
 "_ZNK12DgHexGrid2DS22setAddInteriorChildrenERK8DgResAddI8DgIVec2DER11DgLocVector"
 "_ZNK13DgHexC1Grid2D11invQuantifyERK8DgIVec2D"
 "_ZNK13DgHexC1Grid2D4distERK8DgIVec2DS2_"
 "_ZNK17DgAddResConverterI8DgIVec2D8DgDVec2DeE19convertTypedAddressERKS0_"
 "_ZNK17DgResAddConverterI8DgIVec2D8DgDVec2DeE19convertTypedAddressERK8DgResAddIS0_E"
 "_ZNK21DgContAffineConverter19convertTypedAddressERK8DgDVec2D"
 "_ZNK24DgContInvAffineConverter19convertTypedAddressERK8DgDVec2D"
 "_ZNK4DgRFI8DgDVec2DeE10fromStringER10DgLocationPKcc"
 "_ZNK4DgRFI8DgDVec2DeE10getAddressERK10DgLocation"
 "_ZNK4DgRFI8DgDVec2DeE11copyAddressERK13DgAddressBasePS2_"
 "_ZNK4DgRFI8DgDVec2DeE12equalAddressERK13DgAddressBaseS4_"
 "_ZNK4DgRFI8DgDVec2DeE12makeLocationERKS0_"
 "_ZNK4DgRFI8DgDVec2DeE13createAddressERK13DgAddressBase"
 "_ZNK4DgRFI8DgDVec2DeE13createAddressEv"
 "_ZNK4DgRFI8DgDVec2DeE14createLocationERK10DgLocationb"
 "_ZNK4DgRFI8DgDVec2DeE15toAddressStringB5cxx11ERK10DgLocation"
 "_ZNK4DgRFI8DgDVec2DeE15toAddressStringB5cxx11ERK10DgLocationc"
 "_ZNK4DgRFI8DgDVec2DeE15toAddressStringB5cxx11ERK11DgLocVector"
 "_ZNK4DgRFI8DgDVec2DeE15toAddressStringB5cxx11ERK11DgLocVectorc"
 "_ZNK4DgRFI8DgDVec2DeE5toIntERK14DgDistanceBase"
 "_ZNK4DgRFI8DgDVec2DeE8distanceERK10DgLocationS4_b"
 "_ZNK4DgRFI8DgDVec2DeE8toDoubleERK14DgDistanceBase"
 "_ZNK4DgRFI8DgDVec2DeE8toStringB5cxx11ERK10DgLocation"
 "_ZNK4DgRFI8DgDVec2DeE8toStringB5cxx11ERK10DgLocationc"
 "_ZNK4DgRFI8DgDVec2DeE8toStringB5cxx11ERK11DgLocVector"
 "_ZNK4DgRFI8DgDVec2DeE8toStringB5cxx11ERK11DgLocVectorc"
 "_ZNK4DgRFI8DgDVec2DeE8toStringB5cxx11ERK14DgDistanceBase"
 "_ZNK4DgRFI8DgIVec2DxE10fromStringER10DgLocationPKcc"
 "_ZNK4DgRFI8DgIVec2DxE10getAddressERK10DgLocation"
 "_ZNK4DgRFI8DgIVec2DxE11copyAddressERK13DgAddressBasePS2_"
 "_ZNK4DgRFI8DgIVec2DxE12equalAddressERK13DgAddressBaseS4_"
 "_ZNK4DgRFI8DgIVec2DxE12makeLocationERKS0_"
 "_ZNK4DgRFI8DgIVec2DxE13createAddressERK13DgAddressBase"
 "_ZNK4DgRFI8DgIVec2DxE13createAddressEv"
 "_ZNK4DgRFI8DgIVec2DxE14createLocationERK10DgLocationb"
 "_ZNK4DgRFI8DgIVec2DxE15toAddressStringB5cxx11ERK10DgLocation"
 "_ZNK4DgRFI8DgIVec2DxE15toAddressStringB5cxx11ERK10DgLocationc"
 "_ZNK4DgRFI8DgIVec2DxE15toAddressStringB5cxx11ERK11DgLocVector"
 "_ZNK4DgRFI8DgIVec2DxE15toAddressStringB5cxx11ERK11DgLocVectorc"
 "_ZNK4DgRFI8DgIVec2DxE5toIntERK14DgDistanceBase"
 "_ZNK4DgRFI8DgIVec2DxE8distanceERK10DgLocationS4_b"
 "_ZNK4DgRFI8DgIVec2DxE8toDoubleERK14DgDistanceBase"
 "_ZNK4DgRFI8DgIVec2DxE8toStringB5cxx11ERK10DgLocation"
 "_ZNK4DgRFI8DgIVec2DxE8toStringB5cxx11ERK10DgLocationc"
 "_ZNK4DgRFI8DgIVec2DxE8toStringB5cxx11ERK11DgLocVector"
 "_ZNK4DgRFI8DgIVec2DxE8toStringB5cxx11ERK11DgLocVectorc"
 "_ZNK4DgRFI8DgIVec2DxE8toStringB5cxx11ERK14DgDistanceBase"
 "_ZNK4DgRFI8DgResAddI8DgIVec2DExE10fromStringER10DgLocationPKcc"
 "_ZNK4DgRFI8DgResAddI8DgIVec2DExE10getAddressERK10DgLocation"
 "_ZNK4DgRFI8DgResAddI8DgIVec2DExE11copyAddressERK13DgAddressBasePS4_"
 "_ZNK4DgRFI8DgResAddI8DgIVec2DExE12equalAddressERK13DgAddressBaseS6_"
 "_ZNK4DgRFI8DgResAddI8DgIVec2DExE12makeLocationERKS2_"
 "_ZNK4DgRFI8DgResAddI8DgIVec2DExE13createAddressERK13DgAddressBase"
 "_ZNK4DgRFI8DgResAddI8DgIVec2DExE13createAddressEv"
 "_ZNK4DgRFI8DgResAddI8DgIVec2DExE14createLocationERK10DgLocationb"
 "_ZNK4DgRFI8DgResAddI8DgIVec2DExE15toAddressStringB5cxx11ERK10DgLocation"
 "_ZNK4DgRFI8DgResAddI8DgIVec2DExE15toAddressStringB5cxx11ERK10DgLocationc"
 "_ZNK4DgRFI8DgResAddI8DgIVec2DExE15toAddressStringB5cxx11ERK11DgLocVector"
 "_ZNK4DgRFI8DgResAddI8DgIVec2DExE15toAddressStringB5cxx11ERK11DgLocVectorc"
 "_ZNK4DgRFI8DgResAddI8DgIVec2DExE5toIntERK14DgDistanceBase"
 "_ZNK4DgRFI8DgResAddI8DgIVec2DExE8distanceERK10DgLocationS6_b"
 "_ZNK4DgRFI8DgResAddI8DgIVec2DExE8toDoubleERK14DgDistanceBase"
 "_ZNK4DgRFI8DgResAddI8DgIVec2DExE8toStringB5cxx11ERK10DgLocation"
 "_ZNK4DgRFI8DgResAddI8DgIVec2DExE8toStringB5cxx11ERK10DgLocationc"
 "_ZNK4DgRFI8DgResAddI8DgIVec2DExE8toStringB5cxx11ERK11DgLocVector"
 "_ZNK4DgRFI8DgResAddI8DgIVec2DExE8toStringB5cxx11ERK11DgLocVectorc"
 "_ZNK4DgRFI8DgResAddI8DgIVec2DExE8toStringB5cxx11ERK14DgDistanceBase"
 "_ZNK8DgDVec2DcvNSt7__cxx1112basic_stringIcSt11char_traitsIcESaIcEEEEv"
 "_ZNK8DgDiscRFI8DgIVec2D8DgDVec2DeE11setAddPointERKS0_R10DgLocation"
 "_ZNK8DgDiscRFI8DgIVec2D8DgDVec2DeE11setVerticesERK10DgLocationR9DgPolygon"
 "_ZNK8DgDiscRFI8DgIVec2D8DgDVec2DeE11setVerticesERK10DgLocationRK8DgRFBaseR9DgPolygon"
 "_ZNK8DgDiscRFI8DgIVec2D8DgDVec2DeE11setVerticesERKS0_R9DgPolygon"
 "_ZNK8DgDiscRFI8DgIVec2D8DgDVec2DeE11setVerticesERKS0_RK8DgRFBaseR9DgPolygon"
 "_ZNK8DgDiscRFI8DgIVec2D8DgDVec2DeE12makeVerticesERK10DgLocation"
 "_ZNK8DgDiscRFI8DgIVec2D8DgDVec2DeE12makeVerticesERKS0_"
 "_ZNK8DgDiscRFI8DgIVec2D8DgDVec2DeE12setNeighborsERK10DgLocationR11DgLocVector"
 "_ZNK8DgDiscRFI8DgIVec2D8DgDVec2DeE12setNeighborsERKS0_R11DgLocVector"
 "_ZNK8DgDiscRFI8DgIVec2D8DgDVec2DeE12setNeighborsERKS0_RK8DgRFBaseR11DgLocVector"
 "_ZNK8DgDiscRFI8DgIVec2D8DgDVec2DeE13makeNeighborsERK10DgLocation"
 "_ZNK8DgDiscRFI8DgIVec2D8DgDVec2DeE13makeNeighborsERKS0_"
 "_ZNK8DgDiscRFI8DgIVec2D8DgDVec2DeE16DgQuantConverter19convertTypedAddressERKS1_"
 "_ZNK8DgDiscRFI8DgIVec2D8DgDVec2DeE19DgInvQuantConverter19convertTypedAddressERKS0_"
 "_ZNK8DgDiscRFI8DgIVec2D8DgDVec2DeE8dist2dblERKx"
 "_ZNK8DgDiscRFI8DgIVec2D8DgDVec2DeE8dist2intERKx"
 "_ZNK8DgDiscRFI8DgIVec2D8DgDVec2DeE8dist2strB5cxx11ERKx"
 "_ZNK8DgDiscRFI8DgIVec2D8DgDVec2DeE8setPointERK10DgLocationRK8DgRFBaseRS3_"
 "_ZNK8DgDiscRFI8DgIVec2D8DgDVec2DeE8setPointERK10DgLocationRS3_"
 "_ZNK8DgDiscRFI8DgIVec2D8DgDVec2DeE8setPointERKS0_R10DgLocation"
 "_ZNK8DgDiscRFI8DgIVec2D8DgDVec2DeE8setPointERKS0_RK8DgRFBaseR10DgLocation"
 "_ZNK8DgDiscRFI8DgIVec2D8DgDVec2DeE9makePointERK10DgLocation"
 "_ZNK8DgDiscRFI8DgIVec2D8DgDVec2DeE9makePointERKS0_"
 "_ZNK8DgDiscRFI8DgResAddI8DgIVec2DE8DgDVec2DeE11setAddPointERKS2_R10DgLocation"
 "_ZNK8DgDiscRFI8DgResAddI8DgIVec2DE8DgDVec2DeE11setVerticesERK10DgLocationR9DgPolygon"
 "_ZNK8DgDiscRFI8DgResAddI8DgIVec2DE8DgDVec2DeE11setVerticesERK10DgLocationRK8DgRFBaseR9DgPolygon"
 "_ZNK8DgDiscRFI8DgResAddI8DgIVec2DE8DgDVec2DeE11setVerticesERKS2_R9DgPolygon"
 "_ZNK8DgDiscRFI8DgResAddI8DgIVec2DE8DgDVec2DeE11setVerticesERKS2_RK8DgRFBaseR9DgPolygon"
 "_ZNK8DgDiscRFI8DgResAddI8DgIVec2DE8DgDVec2DeE12makeVerticesERK10DgLocation"
 "_ZNK8DgDiscRFI8DgResAddI8DgIVec2DE8DgDVec2DeE12makeVerticesERKS2_"
 "_ZNK8DgDiscRFI8DgResAddI8DgIVec2DE8DgDVec2DeE12setNeighborsERK10DgLocationR11DgLocVector"
 "_ZNK8DgDiscRFI8DgResAddI8DgIVec2DE8DgDVec2DeE12setNeighborsERKS2_R11DgLocVector"
 "_ZNK8DgDiscRFI8DgResAddI8DgIVec2DE8DgDVec2DeE12setNeighborsERKS2_RK8DgRFBaseR11DgLocVector"
 "_ZNK8DgDiscRFI8DgResAddI8DgIVec2DE8DgDVec2DeE13makeNeighborsERK10DgLocation"
 "_ZNK8DgDiscRFI8DgResAddI8DgIVec2DE8DgDVec2DeE13makeNeighborsERKS2_"
 "_ZNK8DgDiscRFI8DgResAddI8DgIVec2DE8DgDVec2DeE16DgQuantConverter19convertTypedAddressERKS3_"
 "_ZNK8DgDiscRFI8DgResAddI8DgIVec2DE8DgDVec2DeE19DgInvQuantConverter19convertTypedAddressERKS2_"
 "_ZNK8DgDiscRFI8DgResAddI8DgIVec2DE8DgDVec2DeE8dist2dblERKx"
 "_ZNK8DgDiscRFI8DgResAddI8DgIVec2DE8DgDVec2DeE8dist2intERKx"
 "_ZNK8DgDiscRFI8DgResAddI8DgIVec2DE8DgDVec2DeE8dist2strB5cxx11ERKx"
 "_ZNK8DgDiscRFI8DgResAddI8DgIVec2DE8DgDVec2DeE8setPointERK10DgLocationRK8DgRFBaseRS5_"
 "_ZNK8DgDiscRFI8DgResAddI8DgIVec2DE8DgDVec2DeE8setPointERK10DgLocationRS5_"
 "_ZNK8DgDiscRFI8DgResAddI8DgIVec2DE8DgDVec2DeE8setPointERKS2_R10DgLocation"
 "_ZNK8DgDiscRFI8DgResAddI8DgIVec2DE8DgDVec2DeE8setPointERKS2_RK8DgRFBaseR10DgLocation"
 "_ZNK8DgDiscRFI8DgResAddI8DgIVec2DE8DgDVec2DeE9makePointERK10DgLocation"
 "_ZNK8DgDiscRFI8DgResAddI8DgIVec2DE8DgDVec2DeE9makePointERKS2_"
 "_ZNK8DgIVec2DcvNSt7__cxx1112basic_stringIcSt11char_traitsIcESaIcEEEEv"
 "_ZNK8DgRFBase10vecAddressERK8DgDVec2D"
 "_ZNK8DgRFBase11vecLocationERK8DgDVec2D"
 "_ZNK8DgRFBase13getVecAddressERK13DgAddressBase"
 "_ZNK8DgRFBase14getVecLocationERK10DgLocation"
 "_ZNK8DgRFBase8undefLocEv"
 "_ZNK8DgRFBaseeqERKS_"
 "_ZNK8DgRFBaseneERKS_"
 "_ZNK8DgResAddI8DgIVec2DEcvNSt7__cxx1112basic_stringIcSt11char_traitsIcESaIcEEEEv"
 "_ZNK9DgAddressI8DgDVec2DE7writeToERSo"
 "_ZNK9DgAddressI8DgIVec2DE7writeToERSo"
 "_ZNK9DgAddressI8DgResAddI8DgIVec2DEE7writeToERSo"
 "_ZNK9DgDiscRFSI8DgIVec2D8DgDVec2DeE10setParentsERK8DgResAddIS0_ER11DgLocVector"
 "_ZNK9DgDiscRFSI8DgIVec2D8DgDVec2DeE10setParentsERK8DgResAddIS0_ERK8DgRFBaseR11DgLocVector"
 "_ZNK9DgDiscRFSI8DgIVec2D8DgDVec2DeE10setParentsEiRK10DgLocationR11DgLocVector"
 "_ZNK9DgDiscRFSI8DgIVec2D8DgDVec2DeE11invQuantifyERK8DgResAddIS0_E"
 "_ZNK9DgDiscRFSI8DgIVec2D8DgDVec2DeE11makeParentsERK8DgResAddIS0_E"
 "_ZNK9DgDiscRFSI8DgIVec2D8DgDVec2DeE11makeParentsEiRK10DgLocation"
 "_ZNK9DgDiscRFSI8DgIVec2D8DgDVec2DeE14setAddVerticesERK8DgResAddIS0_ER9DgPolygon"
 "_ZNK9DgDiscRFSI8DgIVec2D8DgDVec2DeE14setAllChildrenERK8DgResAddIS0_ER11DgLocVector"
 "_ZNK9DgDiscRFSI8DgIVec2D8DgDVec2DeE14setAllChildrenERK8DgResAddIS0_ERK8DgRFBaseR11DgLocVector"
 "_ZNK9DgDiscRFSI8DgIVec2D8DgDVec2DeE14setAllChildrenEiRK10DgLocationR11DgLocVector"
 "_ZNK9DgDiscRFSI8DgIVec2D8DgDVec2DeE15makeAllChildrenERK8DgResAddIS0_E"
 "_ZNK9DgDiscRFSI8DgIVec2D8DgDVec2DeE15makeAllChildrenEiRK10DgLocation"
 "_ZNK9DgDiscRFSI8DgIVec2D8DgDVec2DeE15setAddNeighborsERK8DgResAddIS0_ER11DgLocVector"
 "_ZNK9DgDiscRFSI8DgIVec2D8DgDVec2DeE19setBoundaryChildrenERK8DgResAddIS0_ER11DgLocVector"
 "_ZNK9DgDiscRFSI8DgIVec2D8DgDVec2DeE19setBoundaryChildrenERK8DgResAddIS0_ERK8DgRFBaseR11DgLocVector"
 "_ZNK9DgDiscRFSI8DgIVec2D8DgDVec2DeE19setBoundaryChildrenEiRK10DgLocationR11DgLocVector"
 "_ZNK9DgDiscRFSI8DgIVec2D8DgDVec2DeE19setInteriorChildrenERK8DgResAddIS0_ER11DgLocVector"
 "_ZNK9DgDiscRFSI8DgIVec2D8DgDVec2DeE19setInteriorChildrenERK8DgResAddIS0_ERK8DgRFBaseR11DgLocVector"
 "_ZNK9DgDiscRFSI8DgIVec2D8DgDVec2DeE19setInteriorChildrenEiRK10DgLocationR11DgLocVector"
 "_ZNK9DgDiscRFSI8DgIVec2D8DgDVec2DeE20makeBoundaryChildrenERK8DgResAddIS0_E"
 "_ZNK9DgDiscRFSI8DgIVec2D8DgDVec2DeE20makeBoundaryChildrenEiRK10DgLocation"
 "_ZNK9DgDiscRFSI8DgIVec2D8DgDVec2DeE20makeInteriorChildrenERK8DgResAddIS0_E"
 "_ZNK9DgDiscRFSI8DgIVec2D8DgDVec2DeE20makeInteriorChildrenEiRK10DgLocation"
 "_ZNK9DgDiscRFSI8DgIVec2D8DgDVec2DeE4distERK8DgResAddIS0_ES6_"
 "_ZNK9DgDiscRFSI8DgIVec2D8DgDVec2DeE7add2strB5cxx11ERK8DgResAddIS0_E"
 "_ZNK9DgDiscRFSI8DgIVec2D8DgDVec2DeE7add2strB5cxx11ERK8DgResAddIS0_Ec"
 "_ZNK9DgDiscRFSI8DgIVec2D8DgDVec2DeE7str2addEP8DgResAddIS0_EPKcc"
 "_ZNK9DgDiscRFSI8DgIVec2D8DgDVec2DeE8quantifyERKS1_"
 "_ZNSt6vectorIP8DgDiscRFI8DgIVec2D8DgDVec2DeESaIS4_EE17_M_default_appendEj"
 "_ZNSt7__cxx1112basic_stringIcSt11char_traitsIcESaIcEE12_M_constructIPKcEEvT_S8_St20forward_iterator_tag"
 "_ZNSt7__cxx1112basic_stringIcSt11char_traitsIcESaIcEE12_M_constructIPcEEvT_S7_St20forward_iterator_tag"
 "_ZNSt7__cxx1115basic_stringbufIcSt11char_traitsIcESaIcEED1Ev"
 "_ZStplIcSt11char_traitsIcESaIcEENSt7__cxx1112basic_stringIT_T0_T1_EEOS8_S9_"
 "_ZTI10DgDiscRF2D"
 "_ZTI10DgDistanceIeE"
 "_ZTI10DgDistanceIxE"
 "_ZTI11DgConverterI8DgDVec2De8DgIVec2DxE"
 "_ZTI11DgConverterI8DgDVec2De8DgResAddI8DgIVec2DExE"
 "_ZTI11DgConverterI8DgDVec2DeS0_eE"
 "_ZTI11DgConverterI8DgIVec2Dx8DgDVec2DeE"
 "_ZTI11DgConverterI8DgIVec2Dx8DgResAddIS0_ExE"
 "_ZTI11DgConverterI8DgResAddI8DgIVec2DEx8DgDVec2DeE"
 "_ZTI11DgConverterI8DgResAddI8DgIVec2DExS1_xE"
 "_ZTI11DgDiscRFS2D"
 "_ZTI11DgLocVector"
 "_ZTI12DgContCartRF"
 "_ZTI12DgHexGrid2DS"
 "_ZTI13DgAddressBase"
 "_ZTI14DgDistanceBase"
 "_ZTI15DgConverterBase"
 "_ZTI17DgAddResConverterI8DgIVec2D8DgDVec2DeE"
 "_ZTI17DgResAddConverterI8DgIVec2D8DgDVec2DeE"
 "_ZTI21DgContAffineConverter"
 "_ZTI24DgContInvAffineConverter"
 "_ZTI4DgRFI8DgDVec2DeE"
 "_ZTI4DgRFI8DgIVec2DxE"
 "_ZTI4DgRFI8DgResAddI8DgIVec2DExE"
 "_ZTI8DgDiscRFI8DgIVec2D8DgDVec2DeE"
 "_ZTI8DgDiscRFI8DgResAddI8DgIVec2DE8DgDVec2DeE"
 "_ZTI8DgRFBase"
 "_ZTI9DgAddressI8DgDVec2DE"
 "_ZTI9DgAddressI8DgIVec2DE"
 "_ZTI9DgAddressI8DgResAddI8DgIVec2DEE"
 "_ZTI9DgDiscRFSI8DgIVec2D8DgDVec2DeE"
 "_ZTI9DgLocBase"
 "_ZTI9DgPolygon"
 "_ZTIN8DgDiscRFI8DgIVec2D8DgDVec2DeE16DgQuantConverterE"
 "_ZTIN8DgDiscRFI8DgIVec2D8DgDVec2DeE19DgInvQuantConverterE"
 "_ZTIN8DgDiscRFI8DgResAddI8DgIVec2DE8DgDVec2DeE16DgQuantConverterE"
 "_ZTIN8DgDiscRFI8DgResAddI8DgIVec2DE8DgDVec2DeE19DgInvQuantConverterE"
 "_ZTS10DgDiscRF2D"
 "_ZTS10DgDistanceIeE"
 "_ZTS10DgDistanceIxE"
 "_ZTS11DgConverterI8DgDVec2De8DgIVec2DxE"
 "_ZTS11DgConverterI8DgDVec2De8DgResAddI8DgIVec2DExE"
 "_ZTS11DgConverterI8DgDVec2DeS0_eE"
 "_ZTS11DgConverterI8DgIVec2Dx8DgDVec2DeE"
 "_ZTS11DgConverterI8DgIVec2Dx8DgResAddIS0_ExE"
 "_ZTS11DgConverterI8DgResAddI8DgIVec2DEx8DgDVec2DeE"
 "_ZTS11DgConverterI8DgResAddI8DgIVec2DExS1_xE"
 "_ZTS11DgDiscRFS2D"
 "_ZTS11DgLocVector"
 "_ZTS12DgContCartRF"
 "_ZTS12DgHexGrid2DS"
 "_ZTS13DgAddressBase"
 "_ZTS14DgDistanceBase"
 "_ZTS15DgConverterBase"
 "_ZTS17DgAddResConverterI8DgIVec2D8DgDVec2DeE"
 "_ZTS17DgResAddConverterI8DgIVec2D8DgDVec2DeE"
 "_ZTS21DgContAffineConverter"
 "_ZTS24DgContInvAffineConverter"
 "_ZTS4DgRFI8DgDVec2DeE"
 "_ZTS4DgRFI8DgIVec2DxE"
 "_ZTS4DgRFI8DgResAddI8DgIVec2DExE"
 "_ZTS8DgDiscRFI8DgIVec2D8DgDVec2DeE"
 "_ZTS8DgDiscRFI8DgResAddI8DgIVec2DE8DgDVec2DeE"
 "_ZTS8DgRFBase"
 "_ZTS9DgAddressI8DgDVec2DE"
 "_ZTS9DgAddressI8DgIVec2DE"
 "_ZTS9DgAddressI8DgResAddI8DgIVec2DEE"
 "_ZTS9DgDiscRFSI8DgIVec2D8DgDVec2DeE"
 "_ZTS9DgLocBase"
 "_ZTS9DgPolygon"
 "_ZTSN8DgDiscRFI8DgIVec2D8DgDVec2DeE16DgQuantConverterE"
 "_ZTSN8DgDiscRFI8DgIVec2D8DgDVec2DeE19DgInvQuantConverterE"
 "_ZTSN8DgDiscRFI8DgResAddI8DgIVec2DE8DgDVec2DeE16DgQuantConverterE"
 "_ZTSN8DgDiscRFI8DgResAddI8DgIVec2DE8DgDVec2DeE19DgInvQuantConverterE"
 "_ZTV10DgDiscRF2D"
 "_ZTV10DgDistanceIeE"
 "_ZTV10DgDistanceIxE"
 "_ZTV11DgConverterI8DgDVec2De8DgIVec2DxE"
 "_ZTV11DgConverterI8DgDVec2De8DgResAddI8DgIVec2DExE"
 "_ZTV11DgConverterI8DgDVec2DeS0_eE"
 "_ZTV11DgConverterI8DgIVec2Dx8DgDVec2DeE"
 "_ZTV11DgConverterI8DgIVec2Dx8DgResAddIS0_ExE"
 "_ZTV11DgConverterI8DgResAddI8DgIVec2DEx8DgDVec2DeE"
 "_ZTV11DgConverterI8DgResAddI8DgIVec2DExS1_xE"
 "_ZTV11DgDiscRFS2D"
 "_ZTV12DgContCartRF"
 "_ZTV12DgHexGrid2DS"
 "_ZTV17DgAddResConverterI8DgIVec2D8DgDVec2DeE"
 "_ZTV17DgResAddConverterI8DgIVec2D8DgDVec2DeE"
 "_ZTV21DgContAffineConverter"
 "_ZTV24DgContInvAffineConverter"
 "_ZTV4DgRFI8DgDVec2DeE"
 "_ZTV4DgRFI8DgIVec2DxE"
 "_ZTV4DgRFI8DgResAddI8DgIVec2DExE"
 "_ZTV8DgDiscRFI8DgIVec2D8DgDVec2DeE"
 "_ZTV8DgDiscRFI8DgResAddI8DgIVec2DE8DgDVec2DeE"
 "_ZTV9DgAddressI8DgDVec2DE"
 "_ZTV9DgAddressI8DgIVec2DE"
 "_ZTV9DgAddressI8DgResAddI8DgIVec2DEE"
 "_ZTV9DgDiscRFSI8DgIVec2D8DgDVec2DeE"
 "_ZTV9DgPolygon"
 "_ZTVN8DgDiscRFI8DgIVec2D8DgDVec2DeE16DgQuantConverterE"
 "_ZTVN8DgDiscRFI8DgIVec2D8DgDVec2DeE19DgInvQuantConverterE"
 "_ZTVN8DgDiscRFI8DgResAddI8DgIVec2DE8DgDVec2DeE16DgQuantConverterE"
 "_ZTVN8DgDiscRFI8DgResAddI8DgIVec2DE8DgDVec2DeE19DgInvQuantConverterE"
 "_ZZNK11DgDiscRFS2D12undefAddressEvE5undef"
 "_ZGVZNK13DgVertex2DDRF12undefAddressEvE5undef"
 "_ZGVZNK14DgInterleaveRF12undefAddressEvE5undef"
 "_ZGVZNK8DgQ2DDRF12undefAddressEvE5undef"
 "_ZN10DgDistanceIeED0Ev"
 "_ZN10DgDistanceIeED1Ev"
 "_ZN10DgDistanceIxED0Ev"
 "_ZN10DgDistanceIxED1Ev"
 "_ZN10DgLocation12clearAddressEv"
 "_ZN10DgLocationC1ERKS_"
 "_ZN11DgLocVector9convertToERK8DgRFBase"
 "_ZN11DgLocVectorD2Ev"
 "_ZN11DgQ2DDCoord16undefDgQ2DDCoordE"
 "_ZN11DgQ2DICoord16undefDgQ2DICoordE"
 "_ZN11DgQ2DICoordaSERKS_"
 "_ZN12DgContCartRFD0Ev"
 "_ZN12DgContCartRFD1Ev"
 "_ZN12DgPlaneTriRFD0Ev"
 "_ZN12DgPlaneTriRFD1Ev"
 "_ZN13DgVertex2DDRF10vertTable_E"
 "_ZN13DgVertex2DDRF9triTable_E"
 "_ZN13DgVertex2DDRFD0Ev"
 "_ZN13DgVertex2DDRFD1Ev"
 "_ZN14DgInterleaveRFD0Ev"
 "_ZN14DgInterleaveRFD1Ev"
 "_ZN14DgPlaneTriProjC1ERK4DgRFI14DgProjTriCoordeERKS0_I8DgDVec2DeE"
 "_ZN14DgPlaneTriProjC2ERK4DgRFI14DgProjTriCoordeERKS0_I8DgDVec2DeE"
 "_ZN14DgPlaneTriProjD0Ev"
 "_ZN14DgPlaneTriProjD1Ev"
 "_ZN15Dg2WayConverterC2ERK15DgConverterBaseS2_"
 "_ZN17DgInterleaveCoordaSERKS_"
 "_ZN18DgQ2DDtoIConverterC1ERK4DgRFI11DgQ2DDCoordeERKS0_I11DgQ2DICoordxE"
 "_ZN18DgQ2DDtoIConverterC2ERK4DgRFI11DgQ2DDCoordeERKS0_I11DgQ2DICoordxE"
 "_ZN18DgQ2DDtoIConverterD0Ev"
 "_ZN18DgQ2DDtoIConverterD1Ev"
 "_ZN18DgQ2DItoDConverterC1ERK4DgRFI11DgQ2DICoordxERKS0_I11DgQ2DDCoordeE"
 "_ZN18DgQ2DItoDConverterC2ERK4DgRFI11DgQ2DICoordxERKS0_I11DgQ2DDCoordeE"
 "_ZN18DgQ2DItoDConverterD0Ev"
 "_ZN18DgQ2DItoDConverterD1Ev"
 "_ZN20DgProjTriToVertex2DDD0Ev"
 "_ZN20DgProjTriToVertex2DDD1Ev"
 "_ZN20DgVertex2DDtoProjTriD0Ev"
 "_ZN20DgVertex2DDtoProjTriD1Ev"
 "_ZN26DgQ2DDtoVertex2DDConverterC1ERK4DgRFI11DgQ2DDCoordeERKS0_I16DgVertex2DDCoordeE"
 "_ZN26DgQ2DDtoVertex2DDConverterC2ERK4DgRFI11DgQ2DDCoordeERKS0_I16DgVertex2DDCoordeE"
 "_ZN26DgQ2DDtoVertex2DDConverterD0Ev"
 "_ZN26DgQ2DDtoVertex2DDConverterD1Ev"
 "_ZN26DgVertex2DDToQ2DDConverterC1ERK4DgRFI16DgVertex2DDCoordeERKS0_I11DgQ2DDCoordeE"
 "_ZN26DgVertex2DDToQ2DDConverterC2ERK4DgRFI16DgVertex2DDCoordeERKS0_I11DgQ2DDCoordeE"
 "_ZN26DgVertex2DDToQ2DDConverterD0Ev"
 "_ZN26DgVertex2DDToQ2DDConverterD1Ev"
 "_ZN27DgQ2DItoInterleaveConverterC1ERK4DgRFI11DgQ2DICoordxERKS0_I17DgInterleaveCoordxE"
 "_ZN27DgQ2DItoInterleaveConverterC2ERK4DgRFI11DgQ2DICoordxERKS0_I17DgInterleaveCoordxE"
 "_ZN27DgQ2DItoInterleaveConverterD0Ev"
 "_ZN27DgQ2DItoInterleaveConverterD1Ev"
 "_ZN3dgg4util9to_stringIeEENSt7__cxx1112basic_stringIcSt11char_traitsIcESaIcEEERKT_"
 "_ZN3dgg4util9to_stringIiEENSt7__cxx1112basic_stringIcSt11char_traitsIcESaIcEEERKT_"
 "_ZN3dgg4util9to_stringIjEENSt7__cxx1112basic_stringIcSt11char_traitsIcESaIcEEERKT_"
 "_ZN3dgg4util9to_stringIxEENSt7__cxx1112basic_stringIcSt11char_traitsIcESaIcEEERKT_"
 "_ZN4DgRFI11DgQ2DDCoordeE6jumpRFEP10DgLocation"
 "_ZN4DgRFI11DgQ2DICoordxE6jumpRFEP10DgLocation"
 "_ZN4DgRFI16DgVertex2DDCoordeE6jumpRFEP10DgLocation"
 "_ZN4DgRFI17DgInterleaveCoordxE6jumpRFEP10DgLocation"
 "_ZN4DgRFI8DgDVec2DeE6jumpRFEP10DgLocation"
 "_ZN6DgIDGG10edgeTable_E"
 "_ZN6DgIDGG10initializeEv"
 "_ZN6DgIDGGC1ERK10DgGeoSphRFRK10DgGeoCoordejiRKNSt7__cxx1112basic_stringIcSt11char_traitsIcESaIcEEESD_SD_bibij"
 "_ZN6DgIDGGC1ERKS_"
 "_ZN6DgIDGGC2ERK10DgGeoSphRFRK10DgGeoCoordejiRKNSt7__cxx1112basic_stringIcSt11char_traitsIcESaIcEEESD_SD_bibij"
 "_ZN6DgIDGGC2ERKS_"
 "_ZN6DgIDGGD0Ev"
 "_ZN6DgIDGGD1Ev"
 "_ZN6DgIDGGD2Ev"
 "_ZN8DgDiscRFI11DgQ2DICoord10DgGeoCoordeE16DgQuantConverterD0Ev"
 "_ZN8DgDiscRFI11DgQ2DICoord10DgGeoCoordeE16DgQuantConverterD1Ev"
 "_ZN8DgDiscRFI11DgQ2DICoord10DgGeoCoordeE19DgInvQuantConverterD0Ev"
 "_ZN8DgDiscRFI11DgQ2DICoord10DgGeoCoordeE19DgInvQuantConverterD1Ev"
 "_ZN8DgQ2DDRFD0Ev"
 "_ZN8DgQ2DDRFD1Ev"
 "_ZN8DgRFBaseC2ER11DgRFNetworkRKNSt7__cxx1112basic_stringIcSt11char_traitsIcESaIcEEE"
 "_ZN9DgAddressI10DgGeoCoordED0Ev"
 "_ZN9DgAddressI10DgGeoCoordED1Ev"
 "_ZN9DgAddressI11DgQ2DDCoordED0Ev"
 "_ZN9DgAddressI11DgQ2DDCoordED1Ev"
 "_ZN9DgAddressI11DgQ2DICoordED0Ev"
 "_ZN9DgAddressI11DgQ2DICoordED1Ev"
 "_ZN9DgAddressI14DgProjTriCoordED0Ev"
 "_ZN9DgAddressI14DgProjTriCoordED1Ev"
 "_ZN9DgAddressI16DgVertex2DDCoordED0Ev"
 "_ZN9DgAddressI16DgVertex2DDCoordED1Ev"
 "_ZN9DgAddressI17DgInterleaveCoordED0Ev"
 "_ZN9DgAddressI17DgInterleaveCoordED1Ev"
 "_ZN9DgAddressI8DgDVec2DED0Ev"
 "_ZN9DgAddressI8DgDVec2DED1Ev"
 "_ZN9DgPolygonD0Ev"
 "_ZN9DgPolygonD1Ev"
 "_ZNK10DgLocation8asStringB5cxx11Ev"
 "_ZNK11DgConverterI10DgGeoCoorde11DgQ2DICoordxE22createConvertedAddressERK13DgAddressBase"
 "_ZNK11DgConverterI11DgQ2DDCoorde11DgQ2DICoordxE22createConvertedAddressERK13DgAddressBase"
 "_ZNK11DgConverterI11DgQ2DDCoorde16DgVertex2DDCoordeE22createConvertedAddressERK13DgAddressBase"
 "_ZNK11DgConverterI11DgQ2DICoordx10DgGeoCoordeE22createConvertedAddressERK13DgAddressBase"
 "_ZNK11DgConverterI11DgQ2DICoordx11DgQ2DDCoordeE22createConvertedAddressERK13DgAddressBase"
 "_ZNK11DgConverterI11DgQ2DICoordx17DgInterleaveCoordxE22createConvertedAddressERK13DgAddressBase"
 "_ZNK11DgConverterI14DgProjTriCoorde16DgVertex2DDCoordeE22createConvertedAddressERK13DgAddressBase"
 "_ZNK11DgConverterI14DgProjTriCoorde8DgDVec2DeE22createConvertedAddressERK13DgAddressBase"
 "_ZNK11DgConverterI16DgVertex2DDCoorde11DgQ2DDCoordeE22createConvertedAddressERK13DgAddressBase"
 "_ZNK11DgConverterI16DgVertex2DDCoorde14DgProjTriCoordeE22createConvertedAddressERK13DgAddressBase"
 "_ZNK11DgLocVector11cardinalityEv"
 "_ZNK11DgLocVector15asAddressStringB5cxx11Ec"
 "_ZNK11DgLocVector15asAddressStringB5cxx11Ev"
 "_ZNK11DgLocVector8asStringB5cxx11Ec"
 "_ZNK11DgLocVector8asStringB5cxx11Ev"
 "_ZNK11DgQ2DDCoordcvNSt7__cxx1112basic_stringIcSt11char_traitsIcESaIcEEEEv"
 "_ZNK11DgQ2DICoordcvNSt7__cxx1112basic_stringIcSt11char_traitsIcESaIcEEEEv"
 "_ZNK12DgContCartRF10vecAddressERK8DgDVec2D"
 "_ZNK12DgContCartRF11vecLocationERK8DgDVec2D"
 "_ZNK12DgContCartRF12undefAddressEv"
 "_ZNK12DgContCartRF13getVecAddressERK13DgAddressBase"
 "_ZNK12DgContCartRF14getVecLocationERK10DgLocation"
 "_ZNK12DgContCartRF4distERK8DgDVec2DS2_"
 "_ZNK12DgContCartRF7add2strB5cxx11ERK8DgDVec2D"
 "_ZNK12DgContCartRF7add2strB5cxx11ERK8DgDVec2Dc"
 "_ZNK12DgContCartRF7str2addEP8DgDVec2DPKcc"
 "_ZNK12DgContCartRF8dist2dblERKe"
 "_ZNK12DgContCartRF8dist2intERKe"
 "_ZNK12DgContCartRF8dist2strB5cxx11ERKe"
 "_ZNK13DgVertex2DDRF12undefAddressEv"
 "_ZNK13DgVertex2DDRF4distERK16DgVertex2DDCoordS2_"
 "_ZNK13DgVertex2DDRF7add2strB5cxx11ERK16DgVertex2DDCoord"
 "_ZNK13DgVertex2DDRF7add2strB5cxx11ERK16DgVertex2DDCoordc"
 "_ZNK13DgVertex2DDRF7str2addEP16DgVertex2DDCoordPKcc"
 "_ZNK13DgVertex2DDRF8dist2dblERKe"
 "_ZNK13DgVertex2DDRF8dist2intERKe"
 "_ZNK13DgVertex2DDRF8dist2strB5cxx11ERKe"
 "_ZNK14DgInterleaveRF12undefAddressEv"
 "_ZNK14DgInterleaveRF4distERK17DgInterleaveCoordS2_"
 "_ZNK14DgInterleaveRF7add2strB5cxx11ERK17DgInterleaveCoord"
 "_ZNK14DgInterleaveRF7add2strB5cxx11ERK17DgInterleaveCoordc"
 "_ZNK14DgInterleaveRF7str2addEP17DgInterleaveCoordPKcc"
 "_ZNK14DgInterleaveRF8dist2dblERKx"
 "_ZNK14DgInterleaveRF8dist2intERKx"
 "_ZNK14DgInterleaveRF8dist2strB5cxx11ERKx"
 "_ZNK14DgPlaneTriProj19convertTypedAddressERK14DgProjTriCoord"
 "_ZNK14DgProjTriCoordcvNSt7__cxx1112basic_stringIcSt11char_traitsIcESaIcEEEEv"
 "_ZNK16DgVertex2DDCoordcvNSt7__cxx1112basic_stringIcSt11char_traitsIcESaIcEEEEv"
 "_ZNK18DgQ2DDtoIConverter19convertTypedAddressERK11DgQ2DDCoord"
 "_ZNK18DgQ2DItoDConverter19convertTypedAddressERK11DgQ2DICoord"
 "_ZNK20DgProjTriToVertex2DD19convertTypedAddressERK14DgProjTriCoord"
 "_ZNK20DgVertex2DDtoProjTri19convertTypedAddressERK16DgVertex2DDCoord"
 "_ZNK26DgQ2DDtoVertex2DDConverter19convertTypedAddressERK11DgQ2DDCoord"
 "_ZNK26DgVertex2DDToQ2DDConverter19convertTypedAddressERK16DgVertex2DDCoord"
 "_ZNK27DgQ2DItoInterleaveConverter19convertTypedAddressERK11DgQ2DICoord"
 "_ZNK4DgRFI11DgQ2DDCoordeE10fromStringER10DgLocationPKcc"
 "_ZNK4DgRFI11DgQ2DDCoordeE10getAddressERK10DgLocation"
 "_ZNK4DgRFI11DgQ2DDCoordeE11copyAddressERK13DgAddressBasePS2_"
 "_ZNK4DgRFI11DgQ2DDCoordeE12equalAddressERK13DgAddressBaseS4_"
 "_ZNK4DgRFI11DgQ2DDCoordeE12makeLocationERKS0_"
 "_ZNK4DgRFI11DgQ2DDCoordeE13createAddressERK13DgAddressBase"
 "_ZNK4DgRFI11DgQ2DDCoordeE13createAddressEv"
 "_ZNK4DgRFI11DgQ2DDCoordeE14createLocationERK10DgLocationb"
 "_ZNK4DgRFI11DgQ2DDCoordeE15toAddressStringB5cxx11ERK10DgLocation"
 "_ZNK4DgRFI11DgQ2DDCoordeE15toAddressStringB5cxx11ERK10DgLocationc"
 "_ZNK4DgRFI11DgQ2DDCoordeE15toAddressStringB5cxx11ERK11DgLocVector"
 "_ZNK4DgRFI11DgQ2DDCoordeE15toAddressStringB5cxx11ERK11DgLocVectorc"
 "_ZNK4DgRFI11DgQ2DDCoordeE5toIntERK14DgDistanceBase"
 "_ZNK4DgRFI11DgQ2DDCoordeE8distanceERK10DgLocationS4_b"
 "_ZNK4DgRFI11DgQ2DDCoordeE8toDoubleERK14DgDistanceBase"
 "_ZNK4DgRFI11DgQ2DDCoordeE8toStringB5cxx11ERK10DgLocation"
 "_ZNK4DgRFI11DgQ2DDCoordeE8toStringB5cxx11ERK10DgLocationc"
 "_ZNK4DgRFI11DgQ2DDCoordeE8toStringB5cxx11ERK11DgLocVector"
 "_ZNK4DgRFI11DgQ2DDCoordeE8toStringB5cxx11ERK11DgLocVectorc"
 "_ZNK4DgRFI11DgQ2DDCoordeE8toStringB5cxx11ERK14DgDistanceBase"
 "_ZNK4DgRFI11DgQ2DICoordxE10fromStringER10DgLocationPKcc"
 "_ZNK4DgRFI11DgQ2DICoordxE10getAddressERK10DgLocation"
 "_ZNK4DgRFI11DgQ2DICoordxE11copyAddressERK13DgAddressBasePS2_"
 "_ZNK4DgRFI11DgQ2DICoordxE12equalAddressERK13DgAddressBaseS4_"
 "_ZNK4DgRFI11DgQ2DICoordxE12makeLocationERKS0_"
 "_ZNK4DgRFI11DgQ2DICoordxE13createAddressERK13DgAddressBase"
 "_ZNK4DgRFI11DgQ2DICoordxE13createAddressEv"
 "_ZNK4DgRFI11DgQ2DICoordxE14createLocationERK10DgLocationb"
 "_ZNK4DgRFI11DgQ2DICoordxE15toAddressStringB5cxx11ERK10DgLocation"
 "_ZNK4DgRFI11DgQ2DICoordxE15toAddressStringB5cxx11ERK10DgLocationc"
 "_ZNK4DgRFI11DgQ2DICoordxE15toAddressStringB5cxx11ERK11DgLocVector"
 "_ZNK4DgRFI11DgQ2DICoordxE15toAddressStringB5cxx11ERK11DgLocVectorc"
 "_ZNK4DgRFI11DgQ2DICoordxE5toIntERK14DgDistanceBase"
 "_ZNK4DgRFI11DgQ2DICoordxE8distanceERK10DgLocationS4_b"
 "_ZNK4DgRFI11DgQ2DICoordxE8toDoubleERK14DgDistanceBase"
 "_ZNK4DgRFI11DgQ2DICoordxE8toStringB5cxx11ERK10DgLocation"
 "_ZNK4DgRFI11DgQ2DICoordxE8toStringB5cxx11ERK10DgLocationc"
 "_ZNK4DgRFI11DgQ2DICoordxE8toStringB5cxx11ERK11DgLocVector"
 "_ZNK4DgRFI11DgQ2DICoordxE8toStringB5cxx11ERK11DgLocVectorc"
 "_ZNK4DgRFI11DgQ2DICoordxE8toStringB5cxx11ERK14DgDistanceBase"
 "_ZNK4DgRFI16DgVertex2DDCoordeE10fromStringER10DgLocationPKcc"
 "_ZNK4DgRFI16DgVertex2DDCoordeE10getAddressERK10DgLocation"
 "_ZNK4DgRFI16DgVertex2DDCoordeE11copyAddressERK13DgAddressBasePS2_"
 "_ZNK4DgRFI16DgVertex2DDCoordeE12equalAddressERK13DgAddressBaseS4_"
 "_ZNK4DgRFI16DgVertex2DDCoordeE12makeLocationERKS0_"
 "_ZNK4DgRFI16DgVertex2DDCoordeE13createAddressERK13DgAddressBase"
 "_ZNK4DgRFI16DgVertex2DDCoordeE13createAddressEv"
 "_ZNK4DgRFI16DgVertex2DDCoordeE14createLocationERK10DgLocationb"
 "_ZNK4DgRFI16DgVertex2DDCoordeE15toAddressStringB5cxx11ERK10DgLocation"
 "_ZNK4DgRFI16DgVertex2DDCoordeE15toAddressStringB5cxx11ERK10DgLocationc"
 "_ZNK4DgRFI16DgVertex2DDCoordeE15toAddressStringB5cxx11ERK11DgLocVector"
 "_ZNK4DgRFI16DgVertex2DDCoordeE15toAddressStringB5cxx11ERK11DgLocVectorc"
 "_ZNK4DgRFI16DgVertex2DDCoordeE5toIntERK14DgDistanceBase"
 "_ZNK4DgRFI16DgVertex2DDCoordeE8distanceERK10DgLocationS4_b"
 "_ZNK4DgRFI16DgVertex2DDCoordeE8toDoubleERK14DgDistanceBase"
 "_ZNK4DgRFI16DgVertex2DDCoordeE8toStringB5cxx11ERK10DgLocation"
 "_ZNK4DgRFI16DgVertex2DDCoordeE8toStringB5cxx11ERK10DgLocationc"
 "_ZNK4DgRFI16DgVertex2DDCoordeE8toStringB5cxx11ERK11DgLocVector"
 "_ZNK4DgRFI16DgVertex2DDCoordeE8toStringB5cxx11ERK11DgLocVectorc"
 "_ZNK4DgRFI16DgVertex2DDCoordeE8toStringB5cxx11ERK14DgDistanceBase"
 "_ZNK4DgRFI17DgInterleaveCoordxE10fromStringER10DgLocationPKcc"
 "_ZNK4DgRFI17DgInterleaveCoordxE10getAddressERK10DgLocation"
 "_ZNK4DgRFI17DgInterleaveCoordxE11copyAddressERK13DgAddressBasePS2_"
 "_ZNK4DgRFI17DgInterleaveCoordxE12equalAddressERK13DgAddressBaseS4_"
 "_ZNK4DgRFI17DgInterleaveCoordxE12makeLocationERKS0_"
 "_ZNK4DgRFI17DgInterleaveCoordxE13createAddressERK13DgAddressBase"
 "_ZNK4DgRFI17DgInterleaveCoordxE13createAddressEv"
 "_ZNK4DgRFI17DgInterleaveCoordxE14createLocationERK10DgLocationb"
 "_ZNK4DgRFI17DgInterleaveCoordxE15toAddressStringB5cxx11ERK10DgLocation"
 "_ZNK4DgRFI17DgInterleaveCoordxE15toAddressStringB5cxx11ERK10DgLocationc"
 "_ZNK4DgRFI17DgInterleaveCoordxE15toAddressStringB5cxx11ERK11DgLocVector"
 "_ZNK4DgRFI17DgInterleaveCoordxE15toAddressStringB5cxx11ERK11DgLocVectorc"
 "_ZNK4DgRFI17DgInterleaveCoordxE5toIntERK14DgDistanceBase"
 "_ZNK4DgRFI17DgInterleaveCoordxE8distanceERK10DgLocationS4_b"
 "_ZNK4DgRFI17DgInterleaveCoordxE8toDoubleERK14DgDistanceBase"
 "_ZNK4DgRFI17DgInterleaveCoordxE8toStringB5cxx11ERK10DgLocation"
 "_ZNK4DgRFI17DgInterleaveCoordxE8toStringB5cxx11ERK10DgLocationc"
 "_ZNK4DgRFI17DgInterleaveCoordxE8toStringB5cxx11ERK11DgLocVector"
 "_ZNK4DgRFI17DgInterleaveCoordxE8toStringB5cxx11ERK11DgLocVectorc"
 "_ZNK4DgRFI17DgInterleaveCoordxE8toStringB5cxx11ERK14DgDistanceBase"
 "_ZNK4DgRFI8DgDVec2DeE10fromStringER10DgLocationPKcc"
 "_ZNK4DgRFI8DgDVec2DeE10getAddressERK10DgLocation"
 "_ZNK4DgRFI8DgDVec2DeE11copyAddressERK13DgAddressBasePS2_"
 "_ZNK4DgRFI8DgDVec2DeE12equalAddressERK13DgAddressBaseS4_"
 "_ZNK4DgRFI8DgDVec2DeE12makeLocationERKS0_"
 "_ZNK4DgRFI8DgDVec2DeE13createAddressERK13DgAddressBase"
 "_ZNK4DgRFI8DgDVec2DeE13createAddressEv"
 "_ZNK4DgRFI8DgDVec2DeE14createLocationERK10DgLocationb"
 "_ZNK4DgRFI8DgDVec2DeE15toAddressStringB5cxx11ERK10DgLocation"
 "_ZNK4DgRFI8DgDVec2DeE15toAddressStringB5cxx11ERK10DgLocationc"
 "_ZNK4DgRFI8DgDVec2DeE15toAddressStringB5cxx11ERK11DgLocVector"
 "_ZNK4DgRFI8DgDVec2DeE15toAddressStringB5cxx11ERK11DgLocVectorc"
 "_ZNK4DgRFI8DgDVec2DeE5toIntERK14DgDistanceBase"
 "_ZNK4DgRFI8DgDVec2DeE8distanceERK10DgLocationS4_b"
 "_ZNK4DgRFI8DgDVec2DeE8toDoubleERK14DgDistanceBase"
 "_ZNK4DgRFI8DgDVec2DeE8toStringB5cxx11ERK10DgLocation"
 "_ZNK4DgRFI8DgDVec2DeE8toStringB5cxx11ERK10DgLocationc"
 "_ZNK4DgRFI8DgDVec2DeE8toStringB5cxx11ERK11DgLocVector"
 "_ZNK4DgRFI8DgDVec2DeE8toStringB5cxx11ERK11DgLocVectorc"
 "_ZNK4DgRFI8DgDVec2DeE8toStringB5cxx11ERK14DgDistanceBase"
 "_ZNK4DgRFI8DgIVec2DxE10getAddressERK10DgLocation"
 "_ZNK6DgIDGG11invQuantifyERK11DgQ2DICoord"
 "_ZNK6DgIDGG11setVerticesERK10DgLocationR9DgPolygoni"
 "_ZNK6DgIDGG12undefAddressEv"
 "_ZNK6DgIDGG14setAddVerticesERK11DgQ2DICoordR9DgPolygon"
 "_ZNK6DgIDGG14setAddVerticesERK11DgQ2DICoordR9DgPolygoni"
 "_ZNK6DgIDGG15setAddNeighborsERK11DgQ2DICoordR11DgLocVector"
 "_ZNK6DgIDGG4distERK11DgQ2DICoordS2_"
 "_ZNK6DgIDGG7add2strB5cxx11ERK11DgQ2DICoord"
 "_ZNK6DgIDGG7add2strB5cxx11ERK11DgQ2DICoordc"
 "_ZNK6DgIDGG7str2addEP11DgQ2DICoordPKcc"
 "_ZNK6DgIDGG8quantifyERK10DgGeoCoord"
 "_ZNK8DgDVec2DcvNSt7__cxx1112basic_stringIcSt11char_traitsIcESaIcEEEEv"
 "_ZNK8DgDiscRFI11DgQ2DICoord10DgGeoCoordeE11setAddPointERKS0_R10DgLocation"
 "_ZNK8DgDiscRFI11DgQ2DICoord10DgGeoCoordeE11setVerticesERK10DgLocationR9DgPolygon"
 "_ZNK8DgDiscRFI11DgQ2DICoord10DgGeoCoordeE11setVerticesERK10DgLocationRK8DgRFBaseR9DgPolygon"
 "_ZNK8DgDiscRFI11DgQ2DICoord10DgGeoCoordeE11setVerticesERKS0_R9DgPolygon"
 "_ZNK8DgDiscRFI11DgQ2DICoord10DgGeoCoordeE11setVerticesERKS0_RK8DgRFBaseR9DgPolygon"
 "_ZNK8DgDiscRFI11DgQ2DICoord10DgGeoCoordeE12makeVerticesERK10DgLocation"
 "_ZNK8DgDiscRFI11DgQ2DICoord10DgGeoCoordeE12makeVerticesERKS0_"
 "_ZNK8DgDiscRFI11DgQ2DICoord10DgGeoCoordeE12setNeighborsERK10DgLocationR11DgLocVector"
 "_ZNK8DgDiscRFI11DgQ2DICoord10DgGeoCoordeE12setNeighborsERKS0_R11DgLocVector"
 "_ZNK8DgDiscRFI11DgQ2DICoord10DgGeoCoordeE12setNeighborsERKS0_RK8DgRFBaseR11DgLocVector"
 "_ZNK8DgDiscRFI11DgQ2DICoord10DgGeoCoordeE13makeNeighborsERK10DgLocation"
 "_ZNK8DgDiscRFI11DgQ2DICoord10DgGeoCoordeE13makeNeighborsERKS0_"
 "_ZNK8DgDiscRFI11DgQ2DICoord10DgGeoCoordeE16DgQuantConverter19convertTypedAddressERKS1_"
 "_ZNK8DgDiscRFI11DgQ2DICoord10DgGeoCoordeE19DgInvQuantConverter19convertTypedAddressERKS0_"
 "_ZNK8DgDiscRFI11DgQ2DICoord10DgGeoCoordeE8dist2dblERKx"
 "_ZNK8DgDiscRFI11DgQ2DICoord10DgGeoCoordeE8dist2intERKx"
 "_ZNK8DgDiscRFI11DgQ2DICoord10DgGeoCoordeE8dist2strB5cxx11ERKx"
 "_ZNK8DgDiscRFI11DgQ2DICoord10DgGeoCoordeE8setPointERK10DgLocationRK8DgRFBaseRS3_"
 "_ZNK8DgDiscRFI11DgQ2DICoord10DgGeoCoordeE8setPointERK10DgLocationRS3_"
 "_ZNK8DgDiscRFI11DgQ2DICoord10DgGeoCoordeE8setPointERKS0_R10DgLocation"
 "_ZNK8DgDiscRFI11DgQ2DICoord10DgGeoCoordeE8setPointERKS0_RK8DgRFBaseR10DgLocation"
 "_ZNK8DgDiscRFI11DgQ2DICoord10DgGeoCoordeE9makePointERK10DgLocation"
 "_ZNK8DgDiscRFI11DgQ2DICoord10DgGeoCoordeE9makePointERKS0_"
 "_ZNK8DgIVec2DcvNSt7__cxx1112basic_stringIcSt11char_traitsIcESaIcEEEEv"
 "_ZNK8DgQ2DDRF12undefAddressEv"
 "_ZNK8DgQ2DDRF4distERK11DgQ2DDCoordS2_"
 "_ZNK8DgQ2DDRF7add2strB5cxx11ERK11DgQ2DDCoord"
 "_ZNK8DgQ2DDRF7add2strB5cxx11ERK11DgQ2DDCoordc"
 "_ZNK8DgQ2DDRF7str2addEP11DgQ2DDCoordPKcc"
 "_ZNK8DgQ2DDRF8dist2dblERKe"
 "_ZNK8DgQ2DDRF8dist2intERKe"
 "_ZNK8DgQ2DDRF8dist2strB5cxx11ERKe"
 "_ZNK8DgRFBase10vecAddressERK8DgDVec2D"
 "_ZNK8DgRFBase11vecLocationERK8DgDVec2D"
 "_ZNK8DgRFBase13getVecAddressERK13DgAddressBase"
 "_ZNK8DgRFBase14getVecLocationERK10DgLocation"
 "_ZNK8DgRFBase8undefLocEv"
 "_ZNK8DgRFBaseeqERKS_"
 "_ZNK8DgRFBaseneERKS_"
 "_ZNK9DgAddressI10DgGeoCoordE7writeToERSo"
 "_ZNK9DgAddressI11DgQ2DDCoordE7writeToERSo"
 "_ZNK9DgAddressI11DgQ2DICoordE7writeToERSo"
 "_ZNK9DgAddressI14DgProjTriCoordE7writeToERSo"
 "_ZNK9DgAddressI16DgVertex2DDCoordE7writeToERSo"
 "_ZNK9DgAddressI17DgInterleaveCoordE7writeToERSo"
 "_ZNK9DgAddressI8DgDVec2DE7writeToERSo"
 "_ZNKSt5ctypeIcE8do_widenEc"
 "_ZNSt6vectorIP13DgAddressBaseSaIS1_EE14_M_fill_insertEN9__gnu_cxx17__normal_iteratorIPS1_S3_EEjRKS1_"
 "_ZNSt6vectorIP13DgAddressBaseSaIS1_EE17_M_default_appendEj"
 "_ZNSt6vectorIPK15DgConverterBaseSaIS2_EE12emplace_backIJS2_EEEvDpOT_"
 "_ZNSt6vectorIPK15DgConverterBaseSaIS2_EE17_M_default_appendEj"
 "_ZNSt6vectorIPK15DgConverterBaseSaIS2_EE17_M_realloc_insertIJRKS2_EEEvN9__gnu_cxx17__normal_iteratorIPS2_S4_EEDpOT_"
 "_ZNSt6vectorIPK15DgConverterBaseSaIS2_EE6resizeEj"
 "_ZNSt6vectorIPK15DgConverterBaseSaIS2_EE9push_backERKS2_"
 "_ZNSt6vectorIS_IP15DgConverterBaseSaIS1_EESaIS3_EED1Ev"
 "_ZNSt7__cxx1112basic_stringIcSt11char_traitsIcESaIcEE12_M_constructIPKcEEvT_S8_St20forward_iterator_tag"
 "_ZNSt7__cxx1115basic_stringbufIcSt11char_traitsIcESaIcEED1Ev"
 "_ZStplIcSt11char_traitsIcESaIcEENSt7__cxx1112basic_stringIT_T0_T1_EEOS8_S9_"
 "_ZStplIcSt11char_traitsIcESaIcEENSt7__cxx1112basic_stringIT_T0_T1_EEPKS5_RKS8_"
 "_ZTI10DgDiscRF2D"
 "_ZTI10DgDistanceIeE"
 "_ZTI10DgDistanceIxE"
 "_ZTI11DgConverterI10DgGeoCoorde11DgQ2DICoordxE"
 "_ZTI11DgConverterI11DgQ2DDCoorde11DgQ2DICoordxE"
 "_ZTI11DgConverterI11DgQ2DDCoorde16DgVertex2DDCoordeE"
 "_ZTI11DgConverterI11DgQ2DICoordx10DgGeoCoordeE"
 "_ZTI11DgConverterI11DgQ2DICoordx11DgQ2DDCoordeE"
 "_ZTI11DgConverterI11DgQ2DICoordx17DgInterleaveCoordxE"
 "_ZTI11DgConverterI14DgProjTriCoorde16DgVertex2DDCoordeE"
 "_ZTI11DgConverterI14DgProjTriCoorde8DgDVec2DeE"
 "_ZTI11DgConverterI16DgVertex2DDCoorde11DgQ2DDCoordeE"
 "_ZTI11DgConverterI16DgVertex2DDCoorde14DgProjTriCoordeE"
 "_ZTI11DgLocVector"
 "_ZTI12DgContCartRF"
 "_ZTI12DgPlaneTriRF"
 "_ZTI13DgAddressBase"
 "_ZTI13DgVertex2DDRF"
 "_ZTI14DgDistanceBase"
 "_ZTI14DgInterleaveRF"
 "_ZTI14DgPlaneTriProj"
 "_ZTI15DgConverterBase"
 "_ZTI18DgQ2DDtoIConverter"
 "_ZTI18DgQ2DItoDConverter"
 "_ZTI20DgProjTriToVertex2DD"
 "_ZTI20DgVertex2DDtoProjTri"
 "_ZTI26DgQ2DDtoVertex2DDConverter"
 "_ZTI26DgVertex2DDToQ2DDConverter"
 "_ZTI27DgQ2DItoInterleaveConverter"
 "_ZTI4DgRFI11DgQ2DDCoordeE"
 "_ZTI4DgRFI11DgQ2DICoordxE"
 "_ZTI4DgRFI16DgVertex2DDCoordeE"
 "_ZTI4DgRFI17DgInterleaveCoordxE"
 "_ZTI4DgRFI8DgDVec2DeE"
 "_ZTI4DgRFI8DgIVec2DxE"
 "_ZTI6DgIDGG"
 "_ZTI8DgDiscRFI11DgQ2DICoord10DgGeoCoordeE"
 "_ZTI8DgDiscRFI8DgIVec2D8DgDVec2DeE"
 "_ZTI8DgQ2DDRF"
 "_ZTI8DgRFBase"
 "_ZTI9DgAddressI10DgGeoCoordE"
 "_ZTI9DgAddressI11DgQ2DDCoordE"
 "_ZTI9DgAddressI11DgQ2DICoordE"
 "_ZTI9DgAddressI14DgProjTriCoordE"
 "_ZTI9DgAddressI16DgVertex2DDCoordE"
 "_ZTI9DgAddressI17DgInterleaveCoordE"
 "_ZTI9DgAddressI8DgDVec2DE"
 "_ZTI9DgLocBase"
 "_ZTI9DgPolygon"
 "_ZTIN8DgDiscRFI11DgQ2DICoord10DgGeoCoordeE16DgQuantConverterE"
 "_ZTIN8DgDiscRFI11DgQ2DICoord10DgGeoCoordeE19DgInvQuantConverterE"
 "_ZTS10DgDiscRF2D"
 "_ZTS10DgDistanceIeE"
 "_ZTS10DgDistanceIxE"
 "_ZTS11DgConverterI10DgGeoCoorde11DgQ2DICoordxE"
 "_ZTS11DgConverterI11DgQ2DDCoorde11DgQ2DICoordxE"
 "_ZTS11DgConverterI11DgQ2DDCoorde16DgVertex2DDCoordeE"
 "_ZTS11DgConverterI11DgQ2DICoordx10DgGeoCoordeE"
 "_ZTS11DgConverterI11DgQ2DICoordx11DgQ2DDCoordeE"
 "_ZTS11DgConverterI11DgQ2DICoordx17DgInterleaveCoordxE"
 "_ZTS11DgConverterI14DgProjTriCoorde16DgVertex2DDCoordeE"
 "_ZTS11DgConverterI14DgProjTriCoorde8DgDVec2DeE"
 "_ZTS11DgConverterI16DgVertex2DDCoorde11DgQ2DDCoordeE"
 "_ZTS11DgConverterI16DgVertex2DDCoorde14DgProjTriCoordeE"
 "_ZTS11DgLocVector"
 "_ZTS12DgContCartRF"
 "_ZTS12DgPlaneTriRF"
 "_ZTS13DgAddressBase"
 "_ZTS13DgVertex2DDRF"
 "_ZTS14DgDistanceBase"
 "_ZTS14DgInterleaveRF"
 "_ZTS14DgPlaneTriProj"
 "_ZTS15DgConverterBase"
 "_ZTS18DgQ2DDtoIConverter"
 "_ZTS18DgQ2DItoDConverter"
 "_ZTS20DgProjTriToVertex2DD"
 "_ZTS20DgVertex2DDtoProjTri"
 "_ZTS26DgQ2DDtoVertex2DDConverter"
 "_ZTS26DgVertex2DDToQ2DDConverter"
 "_ZTS27DgQ2DItoInterleaveConverter"
 "_ZTS4DgRFI11DgQ2DDCoordeE"
 "_ZTS4DgRFI11DgQ2DICoordxE"
 "_ZTS4DgRFI16DgVertex2DDCoordeE"
 "_ZTS4DgRFI17DgInterleaveCoordxE"
 "_ZTS4DgRFI8DgDVec2DeE"
 "_ZTS4DgRFI8DgIVec2DxE"
 "_ZTS6DgIDGG"
 "_ZTS8DgDiscRFI11DgQ2DICoord10DgGeoCoordeE"
 "_ZTS8DgDiscRFI8DgIVec2D8DgDVec2DeE"
 "_ZTS8DgQ2DDRF"
 "_ZTS8DgRFBase"
 "_ZTS9DgAddressI10DgGeoCoordE"
 "_ZTS9DgAddressI11DgQ2DDCoordE"
 "_ZTS9DgAddressI11DgQ2DICoordE"
 "_ZTS9DgAddressI14DgProjTriCoordE"
 "_ZTS9DgAddressI16DgVertex2DDCoordE"
 "_ZTS9DgAddressI17DgInterleaveCoordE"
 "_ZTS9DgAddressI8DgDVec2DE"
 "_ZTS9DgLocBase"
 "_ZTS9DgPolygon"
 "_ZTSN8DgDiscRFI11DgQ2DICoord10DgGeoCoordeE16DgQuantConverterE"
 "_ZTSN8DgDiscRFI11DgQ2DICoord10DgGeoCoordeE19DgInvQuantConverterE"
 "_ZTV10DgDistanceIeE"
 "_ZTV10DgDistanceIxE"
 "_ZTV11DgConverterI10DgGeoCoorde11DgQ2DICoordxE"
 "_ZTV11DgConverterI11DgQ2DDCoorde11DgQ2DICoordxE"
 "_ZTV11DgConverterI11DgQ2DDCoorde16DgVertex2DDCoordeE"
 "_ZTV11DgConverterI11DgQ2DICoordx10DgGeoCoordeE"
 "_ZTV11DgConverterI11DgQ2DICoordx11DgQ2DDCoordeE"
 "_ZTV11DgConverterI11DgQ2DICoordx17DgInterleaveCoordxE"
 "_ZTV11DgConverterI14DgProjTriCoorde16DgVertex2DDCoordeE"
 "_ZTV11DgConverterI14DgProjTriCoorde8DgDVec2DeE"
 "_ZTV11DgConverterI16DgVertex2DDCoorde11DgQ2DDCoordeE"
 "_ZTV11DgConverterI16DgVertex2DDCoorde14DgProjTriCoordeE"
 "_ZTV12DgContCartRF"
 "_ZTV12DgPlaneTriRF"
 "_ZTV13DgVertex2DDRF"
 "_ZTV14DgInterleaveRF"
 "_ZTV14DgPlaneTriProj"
 "_ZTV18DgQ2DDtoIConverter"
 "_ZTV18DgQ2DItoDConverter"
 "_ZTV20DgProjTriToVertex2DD"
 "_ZTV20DgVertex2DDtoProjTri"
 "_ZTV26DgQ2DDtoVertex2DDConverter"
 "_ZTV26DgVertex2DDToQ2DDConverter"
 "_ZTV27DgQ2DItoInterleaveConverter"
 "_ZTV4DgRFI11DgQ2DDCoordeE"
 "_ZTV4DgRFI11DgQ2DICoordxE"
 "_ZTV4DgRFI16DgVertex2DDCoordeE"
 "_ZTV4DgRFI17DgInterleaveCoordxE"
 "_ZTV4DgRFI8DgDVec2DeE"
 "_ZTV6DgIDGG"
 "_ZTV8DgDiscRFI11DgQ2DICoord10DgGeoCoordeE"
 "_ZTV8DgQ2DDRF"
 "_ZTV9DgAddressI10DgGeoCoordE"
 "_ZTV9DgAddressI11DgQ2DDCoordE"
 "_ZTV9DgAddressI11DgQ2DICoordE"
 "_ZTV9DgAddressI14DgProjTriCoordE"
 "_ZTV9DgAddressI16DgVertex2DDCoordE"
 "_ZTV9DgAddressI17DgInterleaveCoordE"
 "_ZTV9DgAddressI8DgDVec2DE"
 "_ZTV9DgPolygon"
 "_ZTVN8DgDiscRFI11DgQ2DICoord10DgGeoCoordeE16DgQuantConverterE"
 "_ZTVN8DgDiscRFI11DgQ2DICoord10DgGeoCoordeE19DgInvQuantConverterE"
 "_ZZNK13DgVertex2DDRF12undefAddressEvE5undef"
 "_ZZNK14DgInterleaveRF12undefAddressEvE5undef"
 "_ZZNK8DgQ2DDRF12undefAddressEvE5undef"
 "_ZeqRKNSt7__cxx1112basic_stringIcSt11char_traitsIcESaIcEEEPKc"
 "_ZGVZNK7DgIDGGS12undefAddressEvE5undef"
 "_ZN10DgDistanceIxED0Ev"
 "_ZN10DgDistanceIxED1Ev"
 "_ZN10DgLocation12clearAddressEv"
 "_ZN11DgLocVector9convertToERK8DgRFBase"
 "_ZN17DgAddResConverterI11DgQ2DICoord10DgGeoCoordeED0Ev"
 "_ZN17DgAddResConverterI11DgQ2DICoord10DgGeoCoordeED1Ev"
 "_ZN17DgResAddConverterI11DgQ2DICoord10DgGeoCoordeED0Ev"
 "_ZN17DgResAddConverterI11DgQ2DICoord10DgGeoCoordeED1Ev"
 "_ZN3dgg4util9to_stringIeEENSt7__cxx1112basic_stringIcSt11char_traitsIcESaIcEEERKT_"
 "_ZN3dgg4util9to_stringIiEENSt7__cxx1112basic_stringIcSt11char_traitsIcESaIcEEERKT_"
 "_ZN3dgg4util9to_stringIxEENSt7__cxx1112basic_stringIcSt11char_traitsIcESaIcEEERKT_"
 "_ZN4DgRFI8DgResAddI11DgQ2DICoordExE6jumpRFEP10DgLocation"
 "_ZN7DgIDGGS6makeRFER11DgRFNetworkRK10DgGeoSphRFRK10DgGeoCoordejiRKNSt7__cxx1112basic_stringIcSt11char_traitsIcESaIcEEESF_SF_bib"
 "_ZN7DgIDGGSC1ER11DgRFNetworkRK10DgGeoSphRFRK10DgGeoCoordejiRKNSt7__cxx1112basic_stringIcSt11char_traitsIcESaIcEEESF_SF_bib"
 "_ZN7DgIDGGSC2ER11DgRFNetworkRK10DgGeoSphRFRK10DgGeoCoordejiRKNSt7__cxx1112basic_stringIcSt11char_traitsIcESaIcEEESF_SF_bib"
 "_ZN8DgDiscRFI8DgResAddI11DgQ2DICoordE10DgGeoCoordeE16DgQuantConverterD0Ev"
 "_ZN8DgDiscRFI8DgResAddI11DgQ2DICoordE10DgGeoCoordeE16DgQuantConverterD1Ev"
 "_ZN8DgDiscRFI8DgResAddI11DgQ2DICoordE10DgGeoCoordeE19DgInvQuantConverterD0Ev"
 "_ZN8DgDiscRFI8DgResAddI11DgQ2DICoordE10DgGeoCoordeE19DgInvQuantConverterD1Ev"
 "_ZN9DgAddressI10DgGeoCoordED0Ev"
 "_ZN9DgAddressI10DgGeoCoordED1Ev"
 "_ZN9DgAddressI11DgQ2DICoordED0Ev"
 "_ZN9DgAddressI11DgQ2DICoordED1Ev"
 "_ZN9DgAddressI8DgResAddI11DgQ2DICoordEED0Ev"
 "_ZN9DgAddressI8DgResAddI11DgQ2DICoordEED1Ev"
 "_ZN9DgPolygonD0Ev"
 "_ZN9DgPolygonD1Ev"
 "_ZNK10DgLocation8asStringB5cxx11Ev"
 "_ZNK11DgConverterI10DgGeoCoorde8DgResAddI11DgQ2DICoordExE22createConvertedAddressERK13DgAddressBase"
 "_ZNK11DgConverterI11DgQ2DICoordx8DgResAddIS0_ExE22createConvertedAddressERK13DgAddressBase"
 "_ZNK11DgConverterI8DgResAddI11DgQ2DICoordEx10DgGeoCoordeE22createConvertedAddressERK13DgAddressBase"
 "_ZNK11DgConverterI8DgResAddI11DgQ2DICoordExS1_xE22createConvertedAddressERK13DgAddressBase"
 "_ZNK11DgLocVector11cardinalityEv"
 "_ZNK11DgLocVector15asAddressStringB5cxx11Ec"
 "_ZNK11DgLocVector15asAddressStringB5cxx11Ev"
 "_ZNK11DgLocVector8asStringB5cxx11Ec"
 "_ZNK11DgLocVector8asStringB5cxx11Ev"
 "_ZNK11DgQ2DICoordcvNSt7__cxx1112basic_stringIcSt11char_traitsIcESaIcEEEEv"
 "_ZNK17DgAddResConverterI11DgQ2DICoord10DgGeoCoordeE19convertTypedAddressERKS0_"
 "_ZNK17DgResAddConverterI11DgQ2DICoord10DgGeoCoordeE19convertTypedAddressERK8DgResAddIS0_E"
 "_ZNK4DgRFI10DgGeoCoordeE10getAddressERK10DgLocation"
 "_ZNK4DgRFI11DgQ2DICoordxE10getAddressERK10DgLocation"
 "_ZNK4DgRFI8DgResAddI11DgQ2DICoordExE10fromStringER10DgLocationPKcc"
 "_ZNK4DgRFI8DgResAddI11DgQ2DICoordExE10getAddressERK10DgLocation"
 "_ZNK4DgRFI8DgResAddI11DgQ2DICoordExE11copyAddressERK13DgAddressBasePS4_"
 "_ZNK4DgRFI8DgResAddI11DgQ2DICoordExE12equalAddressERK13DgAddressBaseS6_"
 "_ZNK4DgRFI8DgResAddI11DgQ2DICoordExE12makeLocationERKS2_"
 "_ZNK4DgRFI8DgResAddI11DgQ2DICoordExE13createAddressERK13DgAddressBase"
 "_ZNK4DgRFI8DgResAddI11DgQ2DICoordExE13createAddressEv"
 "_ZNK4DgRFI8DgResAddI11DgQ2DICoordExE14createLocationERK10DgLocationb"
 "_ZNK4DgRFI8DgResAddI11DgQ2DICoordExE15toAddressStringB5cxx11ERK10DgLocation"
 "_ZNK4DgRFI8DgResAddI11DgQ2DICoordExE15toAddressStringB5cxx11ERK10DgLocationc"
 "_ZNK4DgRFI8DgResAddI11DgQ2DICoordExE15toAddressStringB5cxx11ERK11DgLocVector"
 "_ZNK4DgRFI8DgResAddI11DgQ2DICoordExE15toAddressStringB5cxx11ERK11DgLocVectorc"
 "_ZNK4DgRFI8DgResAddI11DgQ2DICoordExE5toIntERK14DgDistanceBase"
 "_ZNK4DgRFI8DgResAddI11DgQ2DICoordExE8distanceERK10DgLocationS6_b"
 "_ZNK4DgRFI8DgResAddI11DgQ2DICoordExE8toDoubleERK14DgDistanceBase"
 "_ZNK4DgRFI8DgResAddI11DgQ2DICoordExE8toStringB5cxx11ERK10DgLocation"
 "_ZNK4DgRFI8DgResAddI11DgQ2DICoordExE8toStringB5cxx11ERK10DgLocationc"
 "_ZNK4DgRFI8DgResAddI11DgQ2DICoordExE8toStringB5cxx11ERK11DgLocVector"
 "_ZNK4DgRFI8DgResAddI11DgQ2DICoordExE8toStringB5cxx11ERK11DgLocVectorc"
 "_ZNK4DgRFI8DgResAddI11DgQ2DICoordExE8toStringB5cxx11ERK14DgDistanceBase"
 "_ZNK6DgIDGG14setAddVerticesERK11DgQ2DICoordR9DgPolygon"
 "_ZNK6DgIDGG15setAddNeighborsERK11DgQ2DICoordR11DgLocVector"
 "_ZNK6DgIDGG7add2strB5cxx11ERK11DgQ2DICoordc"
 "_ZNK7DgIDGGS12undefAddressEv"
 "_ZNK8DgDiscRFI11DgQ2DICoord10DgGeoCoordeE11setVerticesERKS0_R9DgPolygon"
 "_ZNK8DgDiscRFI8DgResAddI11DgQ2DICoordE10DgGeoCoordeE11setAddPointERKS2_R10DgLocation"
 "_ZNK8DgDiscRFI8DgResAddI11DgQ2DICoordE10DgGeoCoordeE11setVerticesERK10DgLocationR9DgPolygon"
 "_ZNK8DgDiscRFI8DgResAddI11DgQ2DICoordE10DgGeoCoordeE11setVerticesERK10DgLocationRK8DgRFBaseR9DgPolygon"
 "_ZNK8DgDiscRFI8DgResAddI11DgQ2DICoordE10DgGeoCoordeE11setVerticesERKS2_R9DgPolygon"
 "_ZNK8DgDiscRFI8DgResAddI11DgQ2DICoordE10DgGeoCoordeE11setVerticesERKS2_RK8DgRFBaseR9DgPolygon"
 "_ZNK8DgDiscRFI8DgResAddI11DgQ2DICoordE10DgGeoCoordeE12makeVerticesERK10DgLocation"
 "_ZNK8DgDiscRFI8DgResAddI11DgQ2DICoordE10DgGeoCoordeE12makeVerticesERKS2_"
 "_ZNK8DgDiscRFI8DgResAddI11DgQ2DICoordE10DgGeoCoordeE12setNeighborsERK10DgLocationR11DgLocVector"
 "_ZNK8DgDiscRFI8DgResAddI11DgQ2DICoordE10DgGeoCoordeE12setNeighborsERKS2_R11DgLocVector"
 "_ZNK8DgDiscRFI8DgResAddI11DgQ2DICoordE10DgGeoCoordeE12setNeighborsERKS2_RK8DgRFBaseR11DgLocVector"
 "_ZNK8DgDiscRFI8DgResAddI11DgQ2DICoordE10DgGeoCoordeE13makeNeighborsERK10DgLocation"
 "_ZNK8DgDiscRFI8DgResAddI11DgQ2DICoordE10DgGeoCoordeE13makeNeighborsERKS2_"
 "_ZNK8DgDiscRFI8DgResAddI11DgQ2DICoordE10DgGeoCoordeE16DgQuantConverter19convertTypedAddressERKS3_"
 "_ZNK8DgDiscRFI8DgResAddI11DgQ2DICoordE10DgGeoCoordeE19DgInvQuantConverter19convertTypedAddressERKS2_"
 "_ZNK8DgDiscRFI8DgResAddI11DgQ2DICoordE10DgGeoCoordeE8dist2dblERKx"
 "_ZNK8DgDiscRFI8DgResAddI11DgQ2DICoordE10DgGeoCoordeE8dist2intERKx"
 "_ZNK8DgDiscRFI8DgResAddI11DgQ2DICoordE10DgGeoCoordeE8dist2strB5cxx11ERKx"
 "_ZNK8DgDiscRFI8DgResAddI11DgQ2DICoordE10DgGeoCoordeE8setPointERK10DgLocationRK8DgRFBaseRS5_"
 "_ZNK8DgDiscRFI8DgResAddI11DgQ2DICoordE10DgGeoCoordeE8setPointERK10DgLocationRS5_"
 "_ZNK8DgDiscRFI8DgResAddI11DgQ2DICoordE10DgGeoCoordeE8setPointERKS2_R10DgLocation"
 "_ZNK8DgDiscRFI8DgResAddI11DgQ2DICoordE10DgGeoCoordeE8setPointERKS2_RK8DgRFBaseR10DgLocation"
 "_ZNK8DgDiscRFI8DgResAddI11DgQ2DICoordE10DgGeoCoordeE9makePointERK10DgLocation"
 "_ZNK8DgDiscRFI8DgResAddI11DgQ2DICoordE10DgGeoCoordeE9makePointERKS2_"
 "_ZNK8DgRFBase10vecAddressERK8DgDVec2D"
 "_ZNK8DgRFBase11vecLocationERK8DgDVec2D"
 "_ZNK8DgRFBase13getVecAddressERK13DgAddressBase"
 "_ZNK8DgRFBase14getVecLocationERK10DgLocation"
 "_ZNK8DgRFBase8undefLocEv"
 "_ZNK8DgRFBaseeqERKS_"
 "_ZNK8DgRFBaseneERKS_"
 "_ZNK8DgResAddI11DgQ2DICoordEcvNSt7__cxx1112basic_stringIcSt11char_traitsIcESaIcEEEEv"
 "_ZNK9DgAddressI10DgGeoCoordE7writeToERSo"
 "_ZNK9DgAddressI11DgQ2DICoordE7writeToERSo"
 "_ZNK9DgAddressI8DgResAddI11DgQ2DICoordEE7writeToERSo"
 "_ZNK9DgDiscRFSI11DgQ2DICoord10DgGeoCoordeE10setParentsERK8DgResAddIS0_ER11DgLocVector"
 "_ZNK9DgDiscRFSI11DgQ2DICoord10DgGeoCoordeE10setParentsERK8DgResAddIS0_ERK8DgRFBaseR11DgLocVector"
 "_ZNK9DgDiscRFSI11DgQ2DICoord10DgGeoCoordeE10setParentsEiRK10DgLocationR11DgLocVector"
 "_ZNK9DgDiscRFSI11DgQ2DICoord10DgGeoCoordeE11invQuantifyERK8DgResAddIS0_E"
 "_ZNK9DgDiscRFSI11DgQ2DICoord10DgGeoCoordeE11makeParentsERK8DgResAddIS0_E"
 "_ZNK9DgDiscRFSI11DgQ2DICoord10DgGeoCoordeE11makeParentsEiRK10DgLocation"
 "_ZNK9DgDiscRFSI11DgQ2DICoord10DgGeoCoordeE14setAddVerticesERK8DgResAddIS0_ER9DgPolygon"
 "_ZNK9DgDiscRFSI11DgQ2DICoord10DgGeoCoordeE14setAllChildrenERK8DgResAddIS0_ER11DgLocVector"
 "_ZNK9DgDiscRFSI11DgQ2DICoord10DgGeoCoordeE14setAllChildrenERK8DgResAddIS0_ERK8DgRFBaseR11DgLocVector"
 "_ZNK9DgDiscRFSI11DgQ2DICoord10DgGeoCoordeE14setAllChildrenEiRK10DgLocationR11DgLocVector"
 "_ZNK9DgDiscRFSI11DgQ2DICoord10DgGeoCoordeE15makeAllChildrenERK8DgResAddIS0_E"
 "_ZNK9DgDiscRFSI11DgQ2DICoord10DgGeoCoordeE15makeAllChildrenEiRK10DgLocation"
 "_ZNK9DgDiscRFSI11DgQ2DICoord10DgGeoCoordeE15setAddNeighborsERK8DgResAddIS0_ER11DgLocVector"
 "_ZNK9DgDiscRFSI11DgQ2DICoord10DgGeoCoordeE19setBoundaryChildrenERK8DgResAddIS0_ER11DgLocVector"
 "_ZNK9DgDiscRFSI11DgQ2DICoord10DgGeoCoordeE19setBoundaryChildrenERK8DgResAddIS0_ERK8DgRFBaseR11DgLocVector"
 "_ZNK9DgDiscRFSI11DgQ2DICoord10DgGeoCoordeE19setBoundaryChildrenEiRK10DgLocationR11DgLocVector"
 "_ZNK9DgDiscRFSI11DgQ2DICoord10DgGeoCoordeE19setInteriorChildrenERK8DgResAddIS0_ER11DgLocVector"
 "_ZNK9DgDiscRFSI11DgQ2DICoord10DgGeoCoordeE19setInteriorChildrenERK8DgResAddIS0_ERK8DgRFBaseR11DgLocVector"
 "_ZNK9DgDiscRFSI11DgQ2DICoord10DgGeoCoordeE19setInteriorChildrenEiRK10DgLocationR11DgLocVector"
 "_ZNK9DgDiscRFSI11DgQ2DICoord10DgGeoCoordeE20makeBoundaryChildrenERK8DgResAddIS0_E"
 "_ZNK9DgDiscRFSI11DgQ2DICoord10DgGeoCoordeE20makeBoundaryChildrenEiRK10DgLocation"
 "_ZNK9DgDiscRFSI11DgQ2DICoord10DgGeoCoordeE20makeInteriorChildrenERK8DgResAddIS0_E"
 "_ZNK9DgDiscRFSI11DgQ2DICoord10DgGeoCoordeE20makeInteriorChildrenEiRK10DgLocation"
 "_ZNK9DgDiscRFSI11DgQ2DICoord10DgGeoCoordeE4distERK8DgResAddIS0_ES6_"
 "_ZNK9DgDiscRFSI11DgQ2DICoord10DgGeoCoordeE7add2strB5cxx11ERK8DgResAddIS0_E"
 "_ZNK9DgDiscRFSI11DgQ2DICoord10DgGeoCoordeE7add2strB5cxx11ERK8DgResAddIS0_Ec"
 "_ZNK9DgDiscRFSI11DgQ2DICoord10DgGeoCoordeE7str2addEP8DgResAddIS0_EPKcc"
 "_ZNK9DgDiscRFSI11DgQ2DICoord10DgGeoCoordeE8quantifyERKS1_"
 "_ZNSt6vectorIP8DgDiscRFI11DgQ2DICoord10DgGeoCoordeESaIS4_EE17_M_default_appendEj"
 "_ZNSt7__cxx1112basic_stringIcSt11char_traitsIcESaIcEE12_M_constructIPKcEEvT_S8_St20forward_iterator_tag"
 "_ZNSt7__cxx1112basic_stringIcSt11char_traitsIcESaIcEE12_M_constructIPcEEvT_S7_St20forward_iterator_tag"
 "_ZNSt7__cxx1115basic_stringbufIcSt11char_traitsIcESaIcEED1Ev"
 "_ZTI10DgDistanceIxE"
 "_ZTI11DgConverterI10DgGeoCoorde8DgResAddI11DgQ2DICoordExE"
 "_ZTI11DgConverterI11DgQ2DICoordx8DgResAddIS0_ExE"
 "_ZTI11DgConverterI8DgResAddI11DgQ2DICoordEx10DgGeoCoordeE"
 "_ZTI11DgConverterI8DgResAddI11DgQ2DICoordExS1_xE"
 "_ZTI11DgLocVector"
 "_ZTI13DgAddressBase"
 "_ZTI14DgDistanceBase"
 "_ZTI15DgConverterBase"
 "_ZTI17DgAddResConverterI11DgQ2DICoord10DgGeoCoordeE"
 "_ZTI17DgResAddConverterI11DgQ2DICoord10DgGeoCoordeE"
 "_ZTI4DgRFI8DgResAddI11DgQ2DICoordExE"
 "_ZTI7DgIDGGS"
 "_ZTI8DgDiscRFI8DgResAddI11DgQ2DICoordE10DgGeoCoordeE"
 "_ZTI8DgRFBase"
 "_ZTI9DgAddressI10DgGeoCoordE"
 "_ZTI9DgAddressI11DgQ2DICoordE"
 "_ZTI9DgAddressI8DgResAddI11DgQ2DICoordEE"
 "_ZTI9DgDiscRFSI11DgQ2DICoord10DgGeoCoordeE"
 "_ZTI9DgLocBase"
 "_ZTI9DgPolygon"
 "_ZTIN8DgDiscRFI8DgResAddI11DgQ2DICoordE10DgGeoCoordeE16DgQuantConverterE"
 "_ZTIN8DgDiscRFI8DgResAddI11DgQ2DICoordE10DgGeoCoordeE19DgInvQuantConverterE"
 "_ZTS10DgDistanceIxE"
 "_ZTS11DgConverterI10DgGeoCoorde8DgResAddI11DgQ2DICoordExE"
 "_ZTS11DgConverterI11DgQ2DICoordx8DgResAddIS0_ExE"
 "_ZTS11DgConverterI8DgResAddI11DgQ2DICoordEx10DgGeoCoordeE"
 "_ZTS11DgConverterI8DgResAddI11DgQ2DICoordExS1_xE"
 "_ZTS11DgLocVector"
 "_ZTS13DgAddressBase"
 "_ZTS14DgDistanceBase"
 "_ZTS15DgConverterBase"
 "_ZTS17DgAddResConverterI11DgQ2DICoord10DgGeoCoordeE"
 "_ZTS17DgResAddConverterI11DgQ2DICoord10DgGeoCoordeE"
 "_ZTS4DgRFI8DgResAddI11DgQ2DICoordExE"
 "_ZTS7DgIDGGS"
 "_ZTS8DgDiscRFI8DgResAddI11DgQ2DICoordE10DgGeoCoordeE"
 "_ZTS8DgRFBase"
 "_ZTS9DgAddressI10DgGeoCoordE"
 "_ZTS9DgAddressI11DgQ2DICoordE"
 "_ZTS9DgAddressI8DgResAddI11DgQ2DICoordEE"
 "_ZTS9DgDiscRFSI11DgQ2DICoord10DgGeoCoordeE"
 "_ZTS9DgLocBase"
 "_ZTS9DgPolygon"
 "_ZTSN8DgDiscRFI8DgResAddI11DgQ2DICoordE10DgGeoCoordeE16DgQuantConverterE"
 "_ZTSN8DgDiscRFI8DgResAddI11DgQ2DICoordE10DgGeoCoordeE19DgInvQuantConverterE"
 "_ZTV10DgDistanceIxE"
 "_ZTV11DgConverterI10DgGeoCoorde8DgResAddI11DgQ2DICoordExE"
 "_ZTV11DgConverterI11DgQ2DICoordx8DgResAddIS0_ExE"
 "_ZTV11DgConverterI8DgResAddI11DgQ2DICoordEx10DgGeoCoordeE"
 "_ZTV11DgConverterI8DgResAddI11DgQ2DICoordExS1_xE"
 "_ZTV17DgAddResConverterI11DgQ2DICoord10DgGeoCoordeE"
 "_ZTV17DgResAddConverterI11DgQ2DICoord10DgGeoCoordeE"
 "_ZTV4DgRFI8DgResAddI11DgQ2DICoordExE"
 "_ZTV7DgIDGGS"
 "_ZTV8DgDiscRFI8DgResAddI11DgQ2DICoordE10DgGeoCoordeE"
 "_ZTV9DgAddressI10DgGeoCoordE"
 "_ZTV9DgAddressI11DgQ2DICoordE"
 "_ZTV9DgAddressI8DgResAddI11DgQ2DICoordEE"
 "_ZTV9DgDiscRFSI11DgQ2DICoord10DgGeoCoordeE"
 "_ZTV9DgPolygon"
 "_ZTVN8DgDiscRFI8DgResAddI11DgQ2DICoordE10DgGeoCoordeE16DgQuantConverterE"
 "_ZTVN8DgDiscRFI8DgResAddI11DgQ2DICoordE10DgGeoCoordeE19DgInvQuantConverterE"
 "_ZZNK7DgIDGGS12undefAddressEvE5undef"
 "_ZGVZNK7DgIDGGS12undefAddressEvE5undef"
 "_ZN10DgDistanceIxED0Ev"
 "_ZN10DgDistanceIxED1Ev"
 "_ZN10DgLocation12clearAddressEv"
 "_ZN11DgLocVector9convertToERK8DgRFBase"
 "_ZN11DgLocVectorD1Ev"
 "_ZN11DgLocVectorD2Ev"
 "_ZN3dgg4util9to_stringIeEENSt7__cxx1112basic_stringIcSt11char_traitsIcESaIcEEERKT_"
 "_ZN3dgg4util9to_stringIiEENSt7__cxx1112basic_stringIcSt11char_traitsIcESaIcEEERKT_"
 "_ZN3dgg4util9to_stringIxEENSt7__cxx1112basic_stringIcSt11char_traitsIcESaIcEEERKT_"
 "_ZN4DgRFI8DgResAddI11DgQ2DICoordExE6jumpRFEP10DgLocation"
 "_ZN8DgDiscRFI8DgResAddI11DgQ2DICoordE10DgGeoCoordeE16DgQuantConverterD0Ev"
 "_ZN8DgDiscRFI8DgResAddI11DgQ2DICoordE10DgGeoCoordeE16DgQuantConverterD1Ev"
 "_ZN8DgDiscRFI8DgResAddI11DgQ2DICoordE10DgGeoCoordeE19DgInvQuantConverterD0Ev"
 "_ZN8DgDiscRFI8DgResAddI11DgQ2DICoordE10DgGeoCoordeE19DgInvQuantConverterD1Ev"
 "_ZN9DgAddressI10DgGeoCoordED0Ev"
 "_ZN9DgAddressI10DgGeoCoordED1Ev"
 "_ZN9DgAddressI8DgResAddI11DgQ2DICoordEED0Ev"
 "_ZN9DgAddressI8DgResAddI11DgQ2DICoordEED1Ev"
 "_ZN9DgIDGGS3HC1ERKS_"
 "_ZN9DgIDGGS3HC2ERKS_"
 "_ZN9DgIDGGS3HD0Ev"
 "_ZN9DgIDGGS3HD1Ev"
 "_ZN9DgIDGGS3HD2Ev"
 "_ZN9DgIDGGS3HaSERKS_"
 "_ZN9DgPolygonD0Ev"
 "_ZN9DgPolygonD1Ev"
 "_ZNK10DgLocation8asStringB5cxx11Ev"
 "_ZNK11DgConverterI10DgGeoCoorde8DgResAddI11DgQ2DICoordExE22createConvertedAddressERK13DgAddressBase"
 "_ZNK11DgConverterI8DgResAddI11DgQ2DICoordEx10DgGeoCoordeE22createConvertedAddressERK13DgAddressBase"
 "_ZNK11DgLocVector11cardinalityEv"
 "_ZNK11DgLocVector15asAddressStringB5cxx11Ec"
 "_ZNK11DgLocVector15asAddressStringB5cxx11Ev"
 "_ZNK11DgLocVector8asStringB5cxx11Ec"
 "_ZNK11DgLocVector8asStringB5cxx11Ev"
 "_ZNK11DgQ2DICoordcvNSt7__cxx1112basic_stringIcSt11char_traitsIcESaIcEEEEv"
 "_ZNK4DgRFI10DgGeoCoordeE10getAddressERK10DgLocation"
 "_ZNK4DgRFI11DgQ2DICoordxE10getAddressERK10DgLocation"
 "_ZNK4DgRFI8DgResAddI11DgQ2DICoordExE10fromStringER10DgLocationPKcc"
 "_ZNK4DgRFI8DgResAddI11DgQ2DICoordExE10getAddressERK10DgLocation"
 "_ZNK4DgRFI8DgResAddI11DgQ2DICoordExE11copyAddressERK13DgAddressBasePS4_"
 "_ZNK4DgRFI8DgResAddI11DgQ2DICoordExE12equalAddressERK13DgAddressBaseS6_"
 "_ZNK4DgRFI8DgResAddI11DgQ2DICoordExE12makeLocationERKS2_"
 "_ZNK4DgRFI8DgResAddI11DgQ2DICoordExE13createAddressERK13DgAddressBase"
 "_ZNK4DgRFI8DgResAddI11DgQ2DICoordExE13createAddressEv"
 "_ZNK4DgRFI8DgResAddI11DgQ2DICoordExE14createLocationERK10DgLocationb"
 "_ZNK4DgRFI8DgResAddI11DgQ2DICoordExE15toAddressStringB5cxx11ERK10DgLocation"
 "_ZNK4DgRFI8DgResAddI11DgQ2DICoordExE15toAddressStringB5cxx11ERK10DgLocationc"
 "_ZNK4DgRFI8DgResAddI11DgQ2DICoordExE15toAddressStringB5cxx11ERK11DgLocVector"
 "_ZNK4DgRFI8DgResAddI11DgQ2DICoordExE15toAddressStringB5cxx11ERK11DgLocVectorc"
 "_ZNK4DgRFI8DgResAddI11DgQ2DICoordExE5toIntERK14DgDistanceBase"
 "_ZNK4DgRFI8DgResAddI11DgQ2DICoordExE8distanceERK10DgLocationS6_b"
 "_ZNK4DgRFI8DgResAddI11DgQ2DICoordExE8toDoubleERK14DgDistanceBase"
 "_ZNK4DgRFI8DgResAddI11DgQ2DICoordExE8toStringB5cxx11ERK10DgLocation"
 "_ZNK4DgRFI8DgResAddI11DgQ2DICoordExE8toStringB5cxx11ERK10DgLocationc"
 "_ZNK4DgRFI8DgResAddI11DgQ2DICoordExE8toStringB5cxx11ERK11DgLocVector"
 "_ZNK4DgRFI8DgResAddI11DgQ2DICoordExE8toStringB5cxx11ERK11DgLocVectorc"
 "_ZNK4DgRFI8DgResAddI11DgQ2DICoordExE8toStringB5cxx11ERK14DgDistanceBase"
 "_ZNK6DgIDGG14setAddVerticesERK11DgQ2DICoordR9DgPolygon"
 "_ZNK6DgIDGG15setAddNeighborsERK11DgQ2DICoordR11DgLocVector"
 "_ZNK6DgIDGG7add2strB5cxx11ERK11DgQ2DICoordc"
 "_ZNK7DgIDGGS12undefAddressEv"
 "_ZNK8DgDiscRFI11DgQ2DICoord10DgGeoCoordeE11setVerticesERKS0_R9DgPolygon"
 "_ZNK8DgDiscRFI8DgResAddI11DgQ2DICoordE10DgGeoCoordeE11setAddPointERKS2_R10DgLocation"
 "_ZNK8DgDiscRFI8DgResAddI11DgQ2DICoordE10DgGeoCoordeE11setVerticesERK10DgLocationR9DgPolygon"
 "_ZNK8DgDiscRFI8DgResAddI11DgQ2DICoordE10DgGeoCoordeE11setVerticesERK10DgLocationRK8DgRFBaseR9DgPolygon"
 "_ZNK8DgDiscRFI8DgResAddI11DgQ2DICoordE10DgGeoCoordeE11setVerticesERKS2_R9DgPolygon"
 "_ZNK8DgDiscRFI8DgResAddI11DgQ2DICoordE10DgGeoCoordeE11setVerticesERKS2_RK8DgRFBaseR9DgPolygon"
 "_ZNK8DgDiscRFI8DgResAddI11DgQ2DICoordE10DgGeoCoordeE12makeVerticesERK10DgLocation"
 "_ZNK8DgDiscRFI8DgResAddI11DgQ2DICoordE10DgGeoCoordeE12makeVerticesERKS2_"
 "_ZNK8DgDiscRFI8DgResAddI11DgQ2DICoordE10DgGeoCoordeE12setNeighborsERK10DgLocationR11DgLocVector"
 "_ZNK8DgDiscRFI8DgResAddI11DgQ2DICoordE10DgGeoCoordeE12setNeighborsERKS2_R11DgLocVector"
 "_ZNK8DgDiscRFI8DgResAddI11DgQ2DICoordE10DgGeoCoordeE12setNeighborsERKS2_RK8DgRFBaseR11DgLocVector"
 "_ZNK8DgDiscRFI8DgResAddI11DgQ2DICoordE10DgGeoCoordeE13makeNeighborsERK10DgLocation"
 "_ZNK8DgDiscRFI8DgResAddI11DgQ2DICoordE10DgGeoCoordeE13makeNeighborsERKS2_"
 "_ZNK8DgDiscRFI8DgResAddI11DgQ2DICoordE10DgGeoCoordeE16DgQuantConverter19convertTypedAddressERKS3_"
 "_ZNK8DgDiscRFI8DgResAddI11DgQ2DICoordE10DgGeoCoordeE19DgInvQuantConverter19convertTypedAddressERKS2_"
 "_ZNK8DgDiscRFI8DgResAddI11DgQ2DICoordE10DgGeoCoordeE8dist2dblERKx"
 "_ZNK8DgDiscRFI8DgResAddI11DgQ2DICoordE10DgGeoCoordeE8dist2intERKx"
 "_ZNK8DgDiscRFI8DgResAddI11DgQ2DICoordE10DgGeoCoordeE8dist2strB5cxx11ERKx"
 "_ZNK8DgDiscRFI8DgResAddI11DgQ2DICoordE10DgGeoCoordeE8setPointERK10DgLocationRK8DgRFBaseRS5_"
 "_ZNK8DgDiscRFI8DgResAddI11DgQ2DICoordE10DgGeoCoordeE8setPointERK10DgLocationRS5_"
 "_ZNK8DgDiscRFI8DgResAddI11DgQ2DICoordE10DgGeoCoordeE8setPointERKS2_R10DgLocation"
 "_ZNK8DgDiscRFI8DgResAddI11DgQ2DICoordE10DgGeoCoordeE8setPointERKS2_RK8DgRFBaseR10DgLocation"
 "_ZNK8DgDiscRFI8DgResAddI11DgQ2DICoordE10DgGeoCoordeE9makePointERK10DgLocation"
 "_ZNK8DgDiscRFI8DgResAddI11DgQ2DICoordE10DgGeoCoordeE9makePointERKS2_"
 "_ZNK8DgRFBase10vecAddressERK8DgDVec2D"
 "_ZNK8DgRFBase11vecLocationERK8DgDVec2D"
 "_ZNK8DgRFBase13getVecAddressERK13DgAddressBase"
 "_ZNK8DgRFBase14getVecLocationERK10DgLocation"
 "_ZNK8DgRFBase8undefLocEv"
 "_ZNK8DgRFBaseeqERKS_"
 "_ZNK8DgRFBaseneERKS_"
 "_ZNK8DgResAddI11DgQ2DICoordEcvNSt7__cxx1112basic_stringIcSt11char_traitsIcESaIcEEEEv"
 "_ZNK9DgAddressI10DgGeoCoordE7writeToERSo"
 "_ZNK9DgAddressI8DgResAddI11DgQ2DICoordEE7writeToERSo"
 "_ZNK9DgDiscRFSI11DgQ2DICoord10DgGeoCoordeE10setParentsERK8DgResAddIS0_ER11DgLocVector"
 "_ZNK9DgDiscRFSI11DgQ2DICoord10DgGeoCoordeE10setParentsERK8DgResAddIS0_ERK8DgRFBaseR11DgLocVector"
 "_ZNK9DgDiscRFSI11DgQ2DICoord10DgGeoCoordeE10setParentsEiRK10DgLocationR11DgLocVector"
 "_ZNK9DgDiscRFSI11DgQ2DICoord10DgGeoCoordeE11invQuantifyERK8DgResAddIS0_E"
 "_ZNK9DgDiscRFSI11DgQ2DICoord10DgGeoCoordeE11makeParentsERK8DgResAddIS0_E"
 "_ZNK9DgDiscRFSI11DgQ2DICoord10DgGeoCoordeE11makeParentsEiRK10DgLocation"
 "_ZNK9DgDiscRFSI11DgQ2DICoord10DgGeoCoordeE14setAddVerticesERK8DgResAddIS0_ER9DgPolygon"
 "_ZNK9DgDiscRFSI11DgQ2DICoord10DgGeoCoordeE14setAllChildrenERK8DgResAddIS0_ER11DgLocVector"
 "_ZNK9DgDiscRFSI11DgQ2DICoord10DgGeoCoordeE14setAllChildrenERK8DgResAddIS0_ERK8DgRFBaseR11DgLocVector"
 "_ZNK9DgDiscRFSI11DgQ2DICoord10DgGeoCoordeE14setAllChildrenEiRK10DgLocationR11DgLocVector"
 "_ZNK9DgDiscRFSI11DgQ2DICoord10DgGeoCoordeE15makeAllChildrenERK8DgResAddIS0_E"
 "_ZNK9DgDiscRFSI11DgQ2DICoord10DgGeoCoordeE15makeAllChildrenEiRK10DgLocation"
 "_ZNK9DgDiscRFSI11DgQ2DICoord10DgGeoCoordeE15setAddNeighborsERK8DgResAddIS0_ER11DgLocVector"
 "_ZNK9DgDiscRFSI11DgQ2DICoord10DgGeoCoordeE19setBoundaryChildrenERK8DgResAddIS0_ER11DgLocVector"
 "_ZNK9DgDiscRFSI11DgQ2DICoord10DgGeoCoordeE19setBoundaryChildrenERK8DgResAddIS0_ERK8DgRFBaseR11DgLocVector"
 "_ZNK9DgDiscRFSI11DgQ2DICoord10DgGeoCoordeE19setBoundaryChildrenEiRK10DgLocationR11DgLocVector"
 "_ZNK9DgDiscRFSI11DgQ2DICoord10DgGeoCoordeE19setInteriorChildrenERK8DgResAddIS0_ER11DgLocVector"
 "_ZNK9DgDiscRFSI11DgQ2DICoord10DgGeoCoordeE19setInteriorChildrenERK8DgResAddIS0_ERK8DgRFBaseR11DgLocVector"
 "_ZNK9DgDiscRFSI11DgQ2DICoord10DgGeoCoordeE19setInteriorChildrenEiRK10DgLocationR11DgLocVector"
 "_ZNK9DgDiscRFSI11DgQ2DICoord10DgGeoCoordeE20makeBoundaryChildrenERK8DgResAddIS0_E"
 "_ZNK9DgDiscRFSI11DgQ2DICoord10DgGeoCoordeE20makeBoundaryChildrenEiRK10DgLocation"
 "_ZNK9DgDiscRFSI11DgQ2DICoord10DgGeoCoordeE20makeInteriorChildrenERK8DgResAddIS0_E"
 "_ZNK9DgDiscRFSI11DgQ2DICoord10DgGeoCoordeE20makeInteriorChildrenEiRK10DgLocation"
 "_ZNK9DgDiscRFSI11DgQ2DICoord10DgGeoCoordeE4distERK8DgResAddIS0_ES6_"
 "_ZNK9DgDiscRFSI11DgQ2DICoord10DgGeoCoordeE7add2strB5cxx11ERK8DgResAddIS0_E"
 "_ZNK9DgDiscRFSI11DgQ2DICoord10DgGeoCoordeE7add2strB5cxx11ERK8DgResAddIS0_Ec"
 "_ZNK9DgDiscRFSI11DgQ2DICoord10DgGeoCoordeE7str2addEP8DgResAddIS0_EPKcc"
 "_ZNK9DgDiscRFSI11DgQ2DICoord10DgGeoCoordeE8quantifyERKS1_"
 "_ZNK9DgIDGGS3H13setAddParentsERK8DgResAddI11DgQ2DICoordER11DgLocVector"
 "_ZNK9DgIDGGS3H17setAddAllChildrenERK8DgResAddI11DgQ2DICoordER11DgLocVector"
 "_ZNK9DgIDGGS3H22setAddBoundaryChildrenERK8DgResAddI11DgQ2DICoordER11DgLocVector"
 "_ZNK9DgIDGGS3H22setAddInteriorChildrenERK8DgResAddI11DgQ2DICoordER11DgLocVector"
 "_ZNSt7__cxx1112basic_stringIcSt11char_traitsIcESaIcEE12_M_constructIPKcEEvT_S8_St20forward_iterator_tag"
 "_ZNSt7__cxx1112basic_stringIcSt11char_traitsIcESaIcEE12_M_constructIPcEEvT_S7_St20forward_iterator_tag"
 "_ZNSt7__cxx1115basic_stringbufIcSt11char_traitsIcESaIcEED1Ev"
 "_ZTI10DgDistanceIxE"
 "_ZTI11DgConverterI10DgGeoCoorde8DgResAddI11DgQ2DICoordExE"
 "_ZTI11DgConverterI8DgResAddI11DgQ2DICoordEx10DgGeoCoordeE"
 "_ZTI11DgLocVector"
 "_ZTI13DgAddressBase"
 "_ZTI14DgDistanceBase"
 "_ZTI15DgConverterBase"
 "_ZTI4DgRFI8DgResAddI11DgQ2DICoordExE"
 "_ZTI7DgIDGGS"
 "_ZTI8DgDiscRFI8DgResAddI11DgQ2DICoordE10DgGeoCoordeE"
 "_ZTI8DgRFBase"
 "_ZTI9DgAddressI10DgGeoCoordE"
 "_ZTI9DgAddressI8DgResAddI11DgQ2DICoordEE"
 "_ZTI9DgDiscRFSI11DgQ2DICoord10DgGeoCoordeE"
 "_ZTI9DgIDGGS3H"
 "_ZTI9DgLocBase"
 "_ZTI9DgPolygon"
 "_ZTIN8DgDiscRFI8DgResAddI11DgQ2DICoordE10DgGeoCoordeE16DgQuantConverterE"
 "_ZTIN8DgDiscRFI8DgResAddI11DgQ2DICoordE10DgGeoCoordeE19DgInvQuantConverterE"
 "_ZTS10DgDistanceIxE"
 "_ZTS11DgConverterI10DgGeoCoorde8DgResAddI11DgQ2DICoordExE"
 "_ZTS11DgConverterI8DgResAddI11DgQ2DICoordEx10DgGeoCoordeE"
 "_ZTS11DgLocVector"
 "_ZTS13DgAddressBase"
 "_ZTS14DgDistanceBase"
 "_ZTS15DgConverterBase"
 "_ZTS4DgRFI8DgResAddI11DgQ2DICoordExE"
 "_ZTS7DgIDGGS"
 "_ZTS8DgDiscRFI8DgResAddI11DgQ2DICoordE10DgGeoCoordeE"
 "_ZTS8DgRFBase"
 "_ZTS9DgAddressI10DgGeoCoordE"
 "_ZTS9DgAddressI8DgResAddI11DgQ2DICoordEE"
 "_ZTS9DgDiscRFSI11DgQ2DICoord10DgGeoCoordeE"
 "_ZTS9DgIDGGS3H"
 "_ZTS9DgLocBase"
 "_ZTS9DgPolygon"
 "_ZTSN8DgDiscRFI8DgResAddI11DgQ2DICoordE10DgGeoCoordeE16DgQuantConverterE"
 "_ZTSN8DgDiscRFI8DgResAddI11DgQ2DICoordE10DgGeoCoordeE19DgInvQuantConverterE"
 "_ZTV10DgDistanceIxE"
 "_ZTV11DgConverterI10DgGeoCoorde8DgResAddI11DgQ2DICoordExE"
 "_ZTV11DgConverterI8DgResAddI11DgQ2DICoordEx10DgGeoCoordeE"
 "_ZTV4DgRFI8DgResAddI11DgQ2DICoordExE"
 "_ZTV7DgIDGGS"
 "_ZTV8DgDiscRFI8DgResAddI11DgQ2DICoordE10DgGeoCoordeE"
 "_ZTV9DgAddressI10DgGeoCoordE"
 "_ZTV9DgAddressI8DgResAddI11DgQ2DICoordEE"
 "_ZTV9DgDiscRFSI11DgQ2DICoord10DgGeoCoordeE"
 "_ZTV9DgIDGGS3H"
 "_ZTV9DgPolygon"
 "_ZTVN8DgDiscRFI8DgResAddI11DgQ2DICoordE10DgGeoCoordeE16DgQuantConverterE"
 "_ZTVN8DgDiscRFI8DgResAddI11DgQ2DICoordE10DgGeoCoordeE19DgInvQuantConverterE"
 "_ZZNK7DgIDGGS12undefAddressEvE5undef"
 "_ZGVZNK7DgIDGGS12undefAddressEvE5undef"
 "_ZN10DgDistanceIxED0Ev"
 "_ZN10DgDistanceIxED1Ev"
 "_ZN10DgIDGGS43HC1ERKS_"
 "_ZN10DgIDGGS43HC2ERKS_"
 "_ZN10DgIDGGS43HD0Ev"
 "_ZN10DgIDGGS43HD1Ev"
 "_ZN10DgIDGGS43HD2Ev"
 "_ZN10DgIDGGS43HaSERKS_"
 "_ZN10DgLocation12clearAddressEv"
 "_ZN11DgLocVector9convertToERK8DgRFBase"
 "_ZN3dgg4util9to_stringIeEENSt7__cxx1112basic_stringIcSt11char_traitsIcESaIcEEERKT_"
 "_ZN3dgg4util9to_stringIiEENSt7__cxx1112basic_stringIcSt11char_traitsIcESaIcEEERKT_"
 "_ZN3dgg4util9to_stringIxEENSt7__cxx1112basic_stringIcSt11char_traitsIcESaIcEEERKT_"
 "_ZN4DgRFI8DgResAddI11DgQ2DICoordExE6jumpRFEP10DgLocation"
 "_ZN8DgDiscRFI8DgResAddI11DgQ2DICoordE10DgGeoCoordeE16DgQuantConverterD0Ev"
 "_ZN8DgDiscRFI8DgResAddI11DgQ2DICoordE10DgGeoCoordeE16DgQuantConverterD1Ev"
 "_ZN8DgDiscRFI8DgResAddI11DgQ2DICoordE10DgGeoCoordeE19DgInvQuantConverterD0Ev"
 "_ZN8DgDiscRFI8DgResAddI11DgQ2DICoordE10DgGeoCoordeE19DgInvQuantConverterD1Ev"
 "_ZN9DgAddressI10DgGeoCoordED0Ev"
 "_ZN9DgAddressI10DgGeoCoordED1Ev"
 "_ZN9DgAddressI8DgResAddI11DgQ2DICoordEED0Ev"
 "_ZN9DgAddressI8DgResAddI11DgQ2DICoordEED1Ev"
 "_ZN9DgPolygonD0Ev"
 "_ZN9DgPolygonD1Ev"
 "_ZNK10DgIDGGS43H13setAddParentsERK8DgResAddI11DgQ2DICoordER11DgLocVector"
 "_ZNK10DgIDGGS43H17setAddAllChildrenERK8DgResAddI11DgQ2DICoordER11DgLocVector"
 "_ZNK10DgIDGGS43H22setAddBoundaryChildrenERK8DgResAddI11DgQ2DICoordER11DgLocVector"
 "_ZNK10DgIDGGS43H22setAddInteriorChildrenERK8DgResAddI11DgQ2DICoordER11DgLocVector"
 "_ZNK10DgLocation8asStringB5cxx11Ev"
 "_ZNK11DgConverterI10DgGeoCoorde8DgResAddI11DgQ2DICoordExE22createConvertedAddressERK13DgAddressBase"
 "_ZNK11DgConverterI8DgResAddI11DgQ2DICoordEx10DgGeoCoordeE22createConvertedAddressERK13DgAddressBase"
 "_ZNK11DgLocVector11cardinalityEv"
 "_ZNK11DgLocVector15asAddressStringB5cxx11Ec"
 "_ZNK11DgLocVector15asAddressStringB5cxx11Ev"
 "_ZNK11DgLocVector8asStringB5cxx11Ec"
 "_ZNK11DgLocVector8asStringB5cxx11Ev"
 "_ZNK11DgQ2DICoordcvNSt7__cxx1112basic_stringIcSt11char_traitsIcESaIcEEEEv"
 "_ZNK4DgRFI10DgGeoCoordeE10getAddressERK10DgLocation"
 "_ZNK4DgRFI11DgQ2DICoordxE10getAddressERK10DgLocation"
 "_ZNK4DgRFI8DgResAddI11DgQ2DICoordExE10fromStringER10DgLocationPKcc"
 "_ZNK4DgRFI8DgResAddI11DgQ2DICoordExE10getAddressERK10DgLocation"
 "_ZNK4DgRFI8DgResAddI11DgQ2DICoordExE11copyAddressERK13DgAddressBasePS4_"
 "_ZNK4DgRFI8DgResAddI11DgQ2DICoordExE12equalAddressERK13DgAddressBaseS6_"
 "_ZNK4DgRFI8DgResAddI11DgQ2DICoordExE12makeLocationERKS2_"
 "_ZNK4DgRFI8DgResAddI11DgQ2DICoordExE13createAddressERK13DgAddressBase"
 "_ZNK4DgRFI8DgResAddI11DgQ2DICoordExE13createAddressEv"
 "_ZNK4DgRFI8DgResAddI11DgQ2DICoordExE14createLocationERK10DgLocationb"
 "_ZNK4DgRFI8DgResAddI11DgQ2DICoordExE15toAddressStringB5cxx11ERK10DgLocation"
 "_ZNK4DgRFI8DgResAddI11DgQ2DICoordExE15toAddressStringB5cxx11ERK10DgLocationc"
 "_ZNK4DgRFI8DgResAddI11DgQ2DICoordExE15toAddressStringB5cxx11ERK11DgLocVector"
 "_ZNK4DgRFI8DgResAddI11DgQ2DICoordExE15toAddressStringB5cxx11ERK11DgLocVectorc"
 "_ZNK4DgRFI8DgResAddI11DgQ2DICoordExE5toIntERK14DgDistanceBase"
 "_ZNK4DgRFI8DgResAddI11DgQ2DICoordExE8distanceERK10DgLocationS6_b"
 "_ZNK4DgRFI8DgResAddI11DgQ2DICoordExE8toDoubleERK14DgDistanceBase"
 "_ZNK4DgRFI8DgResAddI11DgQ2DICoordExE8toStringB5cxx11ERK10DgLocation"
 "_ZNK4DgRFI8DgResAddI11DgQ2DICoordExE8toStringB5cxx11ERK10DgLocationc"
 "_ZNK4DgRFI8DgResAddI11DgQ2DICoordExE8toStringB5cxx11ERK11DgLocVector"
 "_ZNK4DgRFI8DgResAddI11DgQ2DICoordExE8toStringB5cxx11ERK11DgLocVectorc"
 "_ZNK4DgRFI8DgResAddI11DgQ2DICoordExE8toStringB5cxx11ERK14DgDistanceBase"
 "_ZNK6DgIDGG14setAddVerticesERK11DgQ2DICoordR9DgPolygon"
 "_ZNK6DgIDGG15setAddNeighborsERK11DgQ2DICoordR11DgLocVector"
 "_ZNK6DgIDGG7add2strB5cxx11ERK11DgQ2DICoordc"
 "_ZNK7DgIDGGS12undefAddressEv"
 "_ZNK8DgDiscRFI11DgQ2DICoord10DgGeoCoordeE11setVerticesERKS0_R9DgPolygon"
 "_ZNK8DgDiscRFI8DgResAddI11DgQ2DICoordE10DgGeoCoordeE11setAddPointERKS2_R10DgLocation"
 "_ZNK8DgDiscRFI8DgResAddI11DgQ2DICoordE10DgGeoCoordeE11setVerticesERK10DgLocationR9DgPolygon"
 "_ZNK8DgDiscRFI8DgResAddI11DgQ2DICoordE10DgGeoCoordeE11setVerticesERK10DgLocationRK8DgRFBaseR9DgPolygon"
 "_ZNK8DgDiscRFI8DgResAddI11DgQ2DICoordE10DgGeoCoordeE11setVerticesERKS2_R9DgPolygon"
 "_ZNK8DgDiscRFI8DgResAddI11DgQ2DICoordE10DgGeoCoordeE11setVerticesERKS2_RK8DgRFBaseR9DgPolygon"
 "_ZNK8DgDiscRFI8DgResAddI11DgQ2DICoordE10DgGeoCoordeE12makeVerticesERK10DgLocation"
 "_ZNK8DgDiscRFI8DgResAddI11DgQ2DICoordE10DgGeoCoordeE12makeVerticesERKS2_"
 "_ZNK8DgDiscRFI8DgResAddI11DgQ2DICoordE10DgGeoCoordeE12setNeighborsERK10DgLocationR11DgLocVector"
 "_ZNK8DgDiscRFI8DgResAddI11DgQ2DICoordE10DgGeoCoordeE12setNeighborsERKS2_R11DgLocVector"
 "_ZNK8DgDiscRFI8DgResAddI11DgQ2DICoordE10DgGeoCoordeE12setNeighborsERKS2_RK8DgRFBaseR11DgLocVector"
 "_ZNK8DgDiscRFI8DgResAddI11DgQ2DICoordE10DgGeoCoordeE13makeNeighborsERK10DgLocation"
 "_ZNK8DgDiscRFI8DgResAddI11DgQ2DICoordE10DgGeoCoordeE13makeNeighborsERKS2_"
 "_ZNK8DgDiscRFI8DgResAddI11DgQ2DICoordE10DgGeoCoordeE16DgQuantConverter19convertTypedAddressERKS3_"
 "_ZNK8DgDiscRFI8DgResAddI11DgQ2DICoordE10DgGeoCoordeE19DgInvQuantConverter19convertTypedAddressERKS2_"
 "_ZNK8DgDiscRFI8DgResAddI11DgQ2DICoordE10DgGeoCoordeE8dist2dblERKx"
 "_ZNK8DgDiscRFI8DgResAddI11DgQ2DICoordE10DgGeoCoordeE8dist2intERKx"
 "_ZNK8DgDiscRFI8DgResAddI11DgQ2DICoordE10DgGeoCoordeE8dist2strB5cxx11ERKx"
 "_ZNK8DgDiscRFI8DgResAddI11DgQ2DICoordE10DgGeoCoordeE8setPointERK10DgLocationRK8DgRFBaseRS5_"
 "_ZNK8DgDiscRFI8DgResAddI11DgQ2DICoordE10DgGeoCoordeE8setPointERK10DgLocationRS5_"
 "_ZNK8DgDiscRFI8DgResAddI11DgQ2DICoordE10DgGeoCoordeE8setPointERKS2_R10DgLocation"
 "_ZNK8DgDiscRFI8DgResAddI11DgQ2DICoordE10DgGeoCoordeE8setPointERKS2_RK8DgRFBaseR10DgLocation"
 "_ZNK8DgDiscRFI8DgResAddI11DgQ2DICoordE10DgGeoCoordeE9makePointERK10DgLocation"
 "_ZNK8DgDiscRFI8DgResAddI11DgQ2DICoordE10DgGeoCoordeE9makePointERKS2_"
 "_ZNK8DgRFBase10vecAddressERK8DgDVec2D"
 "_ZNK8DgRFBase11vecLocationERK8DgDVec2D"
 "_ZNK8DgRFBase13getVecAddressERK13DgAddressBase"
 "_ZNK8DgRFBase14getVecLocationERK10DgLocation"
 "_ZNK8DgRFBase8undefLocEv"
 "_ZNK8DgRFBaseeqERKS_"
 "_ZNK8DgRFBaseneERKS_"
 "_ZNK8DgResAddI11DgQ2DICoordEcvNSt7__cxx1112basic_stringIcSt11char_traitsIcESaIcEEEEv"
 "_ZNK9DgAddressI10DgGeoCoordE7writeToERSo"
 "_ZNK9DgAddressI8DgResAddI11DgQ2DICoordEE7writeToERSo"
 "_ZNK9DgDiscRFSI11DgQ2DICoord10DgGeoCoordeE10setParentsERK8DgResAddIS0_ER11DgLocVector"
 "_ZNK9DgDiscRFSI11DgQ2DICoord10DgGeoCoordeE10setParentsERK8DgResAddIS0_ERK8DgRFBaseR11DgLocVector"
 "_ZNK9DgDiscRFSI11DgQ2DICoord10DgGeoCoordeE10setParentsEiRK10DgLocationR11DgLocVector"
 "_ZNK9DgDiscRFSI11DgQ2DICoord10DgGeoCoordeE11invQuantifyERK8DgResAddIS0_E"
 "_ZNK9DgDiscRFSI11DgQ2DICoord10DgGeoCoordeE11makeParentsERK8DgResAddIS0_E"
 "_ZNK9DgDiscRFSI11DgQ2DICoord10DgGeoCoordeE11makeParentsEiRK10DgLocation"
 "_ZNK9DgDiscRFSI11DgQ2DICoord10DgGeoCoordeE14setAddVerticesERK8DgResAddIS0_ER9DgPolygon"
 "_ZNK9DgDiscRFSI11DgQ2DICoord10DgGeoCoordeE14setAllChildrenERK8DgResAddIS0_ER11DgLocVector"
 "_ZNK9DgDiscRFSI11DgQ2DICoord10DgGeoCoordeE14setAllChildrenERK8DgResAddIS0_ERK8DgRFBaseR11DgLocVector"
 "_ZNK9DgDiscRFSI11DgQ2DICoord10DgGeoCoordeE14setAllChildrenEiRK10DgLocationR11DgLocVector"
 "_ZNK9DgDiscRFSI11DgQ2DICoord10DgGeoCoordeE15makeAllChildrenERK8DgResAddIS0_E"
 "_ZNK9DgDiscRFSI11DgQ2DICoord10DgGeoCoordeE15makeAllChildrenEiRK10DgLocation"
 "_ZNK9DgDiscRFSI11DgQ2DICoord10DgGeoCoordeE15setAddNeighborsERK8DgResAddIS0_ER11DgLocVector"
 "_ZNK9DgDiscRFSI11DgQ2DICoord10DgGeoCoordeE19setBoundaryChildrenERK8DgResAddIS0_ER11DgLocVector"
 "_ZNK9DgDiscRFSI11DgQ2DICoord10DgGeoCoordeE19setBoundaryChildrenERK8DgResAddIS0_ERK8DgRFBaseR11DgLocVector"
 "_ZNK9DgDiscRFSI11DgQ2DICoord10DgGeoCoordeE19setBoundaryChildrenEiRK10DgLocationR11DgLocVector"
 "_ZNK9DgDiscRFSI11DgQ2DICoord10DgGeoCoordeE19setInteriorChildrenERK8DgResAddIS0_ER11DgLocVector"
 "_ZNK9DgDiscRFSI11DgQ2DICoord10DgGeoCoordeE19setInteriorChildrenERK8DgResAddIS0_ERK8DgRFBaseR11DgLocVector"
 "_ZNK9DgDiscRFSI11DgQ2DICoord10DgGeoCoordeE19setInteriorChildrenEiRK10DgLocationR11DgLocVector"
 "_ZNK9DgDiscRFSI11DgQ2DICoord10DgGeoCoordeE20makeBoundaryChildrenERK8DgResAddIS0_E"
 "_ZNK9DgDiscRFSI11DgQ2DICoord10DgGeoCoordeE20makeBoundaryChildrenEiRK10DgLocation"
 "_ZNK9DgDiscRFSI11DgQ2DICoord10DgGeoCoordeE20makeInteriorChildrenERK8DgResAddIS0_E"
 "_ZNK9DgDiscRFSI11DgQ2DICoord10DgGeoCoordeE20makeInteriorChildrenEiRK10DgLocation"
 "_ZNK9DgDiscRFSI11DgQ2DICoord10DgGeoCoordeE4distERK8DgResAddIS0_ES6_"
 "_ZNK9DgDiscRFSI11DgQ2DICoord10DgGeoCoordeE7add2strB5cxx11ERK8DgResAddIS0_E"
 "_ZNK9DgDiscRFSI11DgQ2DICoord10DgGeoCoordeE7add2strB5cxx11ERK8DgResAddIS0_Ec"
 "_ZNK9DgDiscRFSI11DgQ2DICoord10DgGeoCoordeE7str2addEP8DgResAddIS0_EPKcc"
 "_ZNK9DgDiscRFSI11DgQ2DICoord10DgGeoCoordeE8quantifyERKS1_"
 "_ZNSt7__cxx1112basic_stringIcSt11char_traitsIcESaIcEE12_M_constructIPKcEEvT_S8_St20forward_iterator_tag"
 "_ZNSt7__cxx1112basic_stringIcSt11char_traitsIcESaIcEE12_M_constructIPcEEvT_S7_St20forward_iterator_tag"
 "_ZNSt7__cxx1115basic_stringbufIcSt11char_traitsIcESaIcEED1Ev"
 "_ZTI10DgDistanceIxE"
 "_ZTI10DgIDGGS43H"
 "_ZTI11DgConverterI10DgGeoCoorde8DgResAddI11DgQ2DICoordExE"
 "_ZTI11DgConverterI8DgResAddI11DgQ2DICoordEx10DgGeoCoordeE"
 "_ZTI11DgLocVector"
 "_ZTI13DgAddressBase"
 "_ZTI14DgDistanceBase"
 "_ZTI15DgConverterBase"
 "_ZTI4DgRFI8DgResAddI11DgQ2DICoordExE"
 "_ZTI7DgIDGGS"
 "_ZTI8DgDiscRFI8DgResAddI11DgQ2DICoordE10DgGeoCoordeE"
 "_ZTI8DgRFBase"
 "_ZTI9DgAddressI10DgGeoCoordE"
 "_ZTI9DgAddressI8DgResAddI11DgQ2DICoordEE"
 "_ZTI9DgDiscRFSI11DgQ2DICoord10DgGeoCoordeE"
 "_ZTI9DgLocBase"
 "_ZTI9DgPolygon"
 "_ZTIN8DgDiscRFI8DgResAddI11DgQ2DICoordE10DgGeoCoordeE16DgQuantConverterE"
 "_ZTIN8DgDiscRFI8DgResAddI11DgQ2DICoordE10DgGeoCoordeE19DgInvQuantConverterE"
 "_ZTS10DgDistanceIxE"
 "_ZTS10DgIDGGS43H"
 "_ZTS11DgConverterI10DgGeoCoorde8DgResAddI11DgQ2DICoordExE"
 "_ZTS11DgConverterI8DgResAddI11DgQ2DICoordEx10DgGeoCoordeE"
 "_ZTS11DgLocVector"
 "_ZTS13DgAddressBase"
 "_ZTS14DgDistanceBase"
 "_ZTS15DgConverterBase"
 "_ZTS4DgRFI8DgResAddI11DgQ2DICoordExE"
 "_ZTS7DgIDGGS"
 "_ZTS8DgDiscRFI8DgResAddI11DgQ2DICoordE10DgGeoCoordeE"
 "_ZTS8DgRFBase"
 "_ZTS9DgAddressI10DgGeoCoordE"
 "_ZTS9DgAddressI8DgResAddI11DgQ2DICoordEE"
 "_ZTS9DgDiscRFSI11DgQ2DICoord10DgGeoCoordeE"
 "_ZTS9DgLocBase"
 "_ZTS9DgPolygon"
 "_ZTSN8DgDiscRFI8DgResAddI11DgQ2DICoordE10DgGeoCoordeE16DgQuantConverterE"
 "_ZTSN8DgDiscRFI8DgResAddI11DgQ2DICoordE10DgGeoCoordeE19DgInvQuantConverterE"
 "_ZTV10DgDistanceIxE"
 "_ZTV10DgIDGGS43H"
 "_ZTV11DgConverterI10DgGeoCoorde8DgResAddI11DgQ2DICoordExE"
 "_ZTV11DgConverterI8DgResAddI11DgQ2DICoordEx10DgGeoCoordeE"
 "_ZTV4DgRFI8DgResAddI11DgQ2DICoordExE"
 "_ZTV7DgIDGGS"
 "_ZTV8DgDiscRFI8DgResAddI11DgQ2DICoordE10DgGeoCoordeE"
 "_ZTV9DgAddressI10DgGeoCoordE"
 "_ZTV9DgAddressI8DgResAddI11DgQ2DICoordEE"
 "_ZTV9DgDiscRFSI11DgQ2DICoord10DgGeoCoordeE"
 "_ZTV9DgPolygon"
 "_ZTVN8DgDiscRFI8DgResAddI11DgQ2DICoordE10DgGeoCoordeE16DgQuantConverterE"
 "_ZTVN8DgDiscRFI8DgResAddI11DgQ2DICoordE10DgGeoCoordeE19DgInvQuantConverterE"
 "_ZZNK7DgIDGGS12undefAddressEvE5undef"
 "_ZGVZNK7DgIDGGS12undefAddressEvE5undef"
 "_ZN10DgDistanceIxED0Ev"
 "_ZN10DgDistanceIxED1Ev"
 "_ZN10DgLocation12clearAddressEv"
 "_ZN11DgLocVector9convertToERK8DgRFBase"
 "_ZN3dgg4util9to_stringIeEENSt7__cxx1112basic_stringIcSt11char_traitsIcESaIcEEERKT_"
 "_ZN3dgg4util9to_stringIiEENSt7__cxx1112basic_stringIcSt11char_traitsIcESaIcEEERKT_"
 "_ZN3dgg4util9to_stringIxEENSt7__cxx1112basic_stringIcSt11char_traitsIcESaIcEEERKT_"
 "_ZN4DgRFI8DgResAddI11DgQ2DICoordExE6jumpRFEP10DgLocation"
 "_ZN8DgDiscRFI8DgResAddI11DgQ2DICoordE10DgGeoCoordeE16DgQuantConverterD0Ev"
 "_ZN8DgDiscRFI8DgResAddI11DgQ2DICoordE10DgGeoCoordeE16DgQuantConverterD1Ev"
 "_ZN8DgDiscRFI8DgResAddI11DgQ2DICoordE10DgGeoCoordeE19DgInvQuantConverterD0Ev"
 "_ZN8DgDiscRFI8DgResAddI11DgQ2DICoordE10DgGeoCoordeE19DgInvQuantConverterD1Ev"
 "_ZN9DgAddressI10DgGeoCoordED0Ev"
 "_ZN9DgAddressI10DgGeoCoordED1Ev"
 "_ZN9DgAddressI8DgResAddI11DgQ2DICoordEED0Ev"
 "_ZN9DgAddressI8DgResAddI11DgQ2DICoordEED1Ev"
 "_ZN9DgIDGGS4DC1ERKS_"
 "_ZN9DgIDGGS4DC2ERKS_"
 "_ZN9DgIDGGS4DD0Ev"
 "_ZN9DgIDGGS4DD1Ev"
 "_ZN9DgIDGGS4DD2Ev"
 "_ZN9DgIDGGS4DaSERKS_"
 "_ZN9DgPolygonD0Ev"
 "_ZN9DgPolygonD1Ev"
 "_ZNK10DgLocation8asStringB5cxx11Ev"
 "_ZNK11DgConverterI10DgGeoCoorde8DgResAddI11DgQ2DICoordExE22createConvertedAddressERK13DgAddressBase"
 "_ZNK11DgConverterI8DgResAddI11DgQ2DICoordEx10DgGeoCoordeE22createConvertedAddressERK13DgAddressBase"
 "_ZNK11DgLocVector11cardinalityEv"
 "_ZNK11DgLocVector15asAddressStringB5cxx11Ec"
 "_ZNK11DgLocVector15asAddressStringB5cxx11Ev"
 "_ZNK11DgLocVector8asStringB5cxx11Ec"
 "_ZNK11DgLocVector8asStringB5cxx11Ev"
 "_ZNK11DgQ2DICoordcvNSt7__cxx1112basic_stringIcSt11char_traitsIcESaIcEEEEv"
 "_ZNK4DgRFI10DgGeoCoordeE10getAddressERK10DgLocation"
 "_ZNK4DgRFI11DgQ2DICoordxE10getAddressERK10DgLocation"
 "_ZNK4DgRFI8DgResAddI11DgQ2DICoordExE10fromStringER10DgLocationPKcc"
 "_ZNK4DgRFI8DgResAddI11DgQ2DICoordExE10getAddressERK10DgLocation"
 "_ZNK4DgRFI8DgResAddI11DgQ2DICoordExE11copyAddressERK13DgAddressBasePS4_"
 "_ZNK4DgRFI8DgResAddI11DgQ2DICoordExE12equalAddressERK13DgAddressBaseS6_"
 "_ZNK4DgRFI8DgResAddI11DgQ2DICoordExE12makeLocationERKS2_"
 "_ZNK4DgRFI8DgResAddI11DgQ2DICoordExE13createAddressERK13DgAddressBase"
 "_ZNK4DgRFI8DgResAddI11DgQ2DICoordExE13createAddressEv"
 "_ZNK4DgRFI8DgResAddI11DgQ2DICoordExE14createLocationERK10DgLocationb"
 "_ZNK4DgRFI8DgResAddI11DgQ2DICoordExE15toAddressStringB5cxx11ERK10DgLocation"
 "_ZNK4DgRFI8DgResAddI11DgQ2DICoordExE15toAddressStringB5cxx11ERK10DgLocationc"
 "_ZNK4DgRFI8DgResAddI11DgQ2DICoordExE15toAddressStringB5cxx11ERK11DgLocVector"
 "_ZNK4DgRFI8DgResAddI11DgQ2DICoordExE15toAddressStringB5cxx11ERK11DgLocVectorc"
 "_ZNK4DgRFI8DgResAddI11DgQ2DICoordExE5toIntERK14DgDistanceBase"
 "_ZNK4DgRFI8DgResAddI11DgQ2DICoordExE8distanceERK10DgLocationS6_b"
 "_ZNK4DgRFI8DgResAddI11DgQ2DICoordExE8toDoubleERK14DgDistanceBase"
 "_ZNK4DgRFI8DgResAddI11DgQ2DICoordExE8toStringB5cxx11ERK10DgLocation"
 "_ZNK4DgRFI8DgResAddI11DgQ2DICoordExE8toStringB5cxx11ERK10DgLocationc"
 "_ZNK4DgRFI8DgResAddI11DgQ2DICoordExE8toStringB5cxx11ERK11DgLocVector"
 "_ZNK4DgRFI8DgResAddI11DgQ2DICoordExE8toStringB5cxx11ERK11DgLocVectorc"
 "_ZNK4DgRFI8DgResAddI11DgQ2DICoordExE8toStringB5cxx11ERK14DgDistanceBase"
 "_ZNK6DgIDGG14setAddVerticesERK11DgQ2DICoordR9DgPolygon"
 "_ZNK6DgIDGG15setAddNeighborsERK11DgQ2DICoordR11DgLocVector"
 "_ZNK6DgIDGG7add2strB5cxx11ERK11DgQ2DICoordc"
 "_ZNK7DgIDGGS12undefAddressEv"
 "_ZNK8DgDiscRFI11DgQ2DICoord10DgGeoCoordeE11setVerticesERKS0_R9DgPolygon"
 "_ZNK8DgDiscRFI8DgResAddI11DgQ2DICoordE10DgGeoCoordeE11setAddPointERKS2_R10DgLocation"
 "_ZNK8DgDiscRFI8DgResAddI11DgQ2DICoordE10DgGeoCoordeE11setVerticesERK10DgLocationR9DgPolygon"
 "_ZNK8DgDiscRFI8DgResAddI11DgQ2DICoordE10DgGeoCoordeE11setVerticesERK10DgLocationRK8DgRFBaseR9DgPolygon"
 "_ZNK8DgDiscRFI8DgResAddI11DgQ2DICoordE10DgGeoCoordeE11setVerticesERKS2_R9DgPolygon"
 "_ZNK8DgDiscRFI8DgResAddI11DgQ2DICoordE10DgGeoCoordeE11setVerticesERKS2_RK8DgRFBaseR9DgPolygon"
 "_ZNK8DgDiscRFI8DgResAddI11DgQ2DICoordE10DgGeoCoordeE12makeVerticesERK10DgLocation"
 "_ZNK8DgDiscRFI8DgResAddI11DgQ2DICoordE10DgGeoCoordeE12makeVerticesERKS2_"
 "_ZNK8DgDiscRFI8DgResAddI11DgQ2DICoordE10DgGeoCoordeE12setNeighborsERK10DgLocationR11DgLocVector"
 "_ZNK8DgDiscRFI8DgResAddI11DgQ2DICoordE10DgGeoCoordeE12setNeighborsERKS2_R11DgLocVector"
 "_ZNK8DgDiscRFI8DgResAddI11DgQ2DICoordE10DgGeoCoordeE12setNeighborsERKS2_RK8DgRFBaseR11DgLocVector"
 "_ZNK8DgDiscRFI8DgResAddI11DgQ2DICoordE10DgGeoCoordeE13makeNeighborsERK10DgLocation"
 "_ZNK8DgDiscRFI8DgResAddI11DgQ2DICoordE10DgGeoCoordeE13makeNeighborsERKS2_"
 "_ZNK8DgDiscRFI8DgResAddI11DgQ2DICoordE10DgGeoCoordeE16DgQuantConverter19convertTypedAddressERKS3_"
 "_ZNK8DgDiscRFI8DgResAddI11DgQ2DICoordE10DgGeoCoordeE19DgInvQuantConverter19convertTypedAddressERKS2_"
 "_ZNK8DgDiscRFI8DgResAddI11DgQ2DICoordE10DgGeoCoordeE8dist2dblERKx"
 "_ZNK8DgDiscRFI8DgResAddI11DgQ2DICoordE10DgGeoCoordeE8dist2intERKx"
 "_ZNK8DgDiscRFI8DgResAddI11DgQ2DICoordE10DgGeoCoordeE8dist2strB5cxx11ERKx"
 "_ZNK8DgDiscRFI8DgResAddI11DgQ2DICoordE10DgGeoCoordeE8setPointERK10DgLocationRK8DgRFBaseRS5_"
 "_ZNK8DgDiscRFI8DgResAddI11DgQ2DICoordE10DgGeoCoordeE8setPointERK10DgLocationRS5_"
 "_ZNK8DgDiscRFI8DgResAddI11DgQ2DICoordE10DgGeoCoordeE8setPointERKS2_R10DgLocation"
 "_ZNK8DgDiscRFI8DgResAddI11DgQ2DICoordE10DgGeoCoordeE8setPointERKS2_RK8DgRFBaseR10DgLocation"
 "_ZNK8DgDiscRFI8DgResAddI11DgQ2DICoordE10DgGeoCoordeE9makePointERK10DgLocation"
 "_ZNK8DgDiscRFI8DgResAddI11DgQ2DICoordE10DgGeoCoordeE9makePointERKS2_"
 "_ZNK8DgRFBase10vecAddressERK8DgDVec2D"
 "_ZNK8DgRFBase11vecLocationERK8DgDVec2D"
 "_ZNK8DgRFBase13getVecAddressERK13DgAddressBase"
 "_ZNK8DgRFBase14getVecLocationERK10DgLocation"
 "_ZNK8DgRFBase8undefLocEv"
 "_ZNK8DgRFBaseeqERKS_"
 "_ZNK8DgRFBaseneERKS_"
 "_ZNK8DgResAddI11DgQ2DICoordEcvNSt7__cxx1112basic_stringIcSt11char_traitsIcESaIcEEEEv"
 "_ZNK9DgAddressI10DgGeoCoordE7writeToERSo"
 "_ZNK9DgAddressI8DgResAddI11DgQ2DICoordEE7writeToERSo"
 "_ZNK9DgDiscRFSI11DgQ2DICoord10DgGeoCoordeE10setParentsERK8DgResAddIS0_ER11DgLocVector"
 "_ZNK9DgDiscRFSI11DgQ2DICoord10DgGeoCoordeE10setParentsERK8DgResAddIS0_ERK8DgRFBaseR11DgLocVector"
 "_ZNK9DgDiscRFSI11DgQ2DICoord10DgGeoCoordeE10setParentsEiRK10DgLocationR11DgLocVector"
 "_ZNK9DgDiscRFSI11DgQ2DICoord10DgGeoCoordeE11invQuantifyERK8DgResAddIS0_E"
 "_ZNK9DgDiscRFSI11DgQ2DICoord10DgGeoCoordeE11makeParentsERK8DgResAddIS0_E"
 "_ZNK9DgDiscRFSI11DgQ2DICoord10DgGeoCoordeE11makeParentsEiRK10DgLocation"
 "_ZNK9DgDiscRFSI11DgQ2DICoord10DgGeoCoordeE14setAddVerticesERK8DgResAddIS0_ER9DgPolygon"
 "_ZNK9DgDiscRFSI11DgQ2DICoord10DgGeoCoordeE14setAllChildrenERK8DgResAddIS0_ER11DgLocVector"
 "_ZNK9DgDiscRFSI11DgQ2DICoord10DgGeoCoordeE14setAllChildrenERK8DgResAddIS0_ERK8DgRFBaseR11DgLocVector"
 "_ZNK9DgDiscRFSI11DgQ2DICoord10DgGeoCoordeE14setAllChildrenEiRK10DgLocationR11DgLocVector"
 "_ZNK9DgDiscRFSI11DgQ2DICoord10DgGeoCoordeE15makeAllChildrenERK8DgResAddIS0_E"
 "_ZNK9DgDiscRFSI11DgQ2DICoord10DgGeoCoordeE15makeAllChildrenEiRK10DgLocation"
 "_ZNK9DgDiscRFSI11DgQ2DICoord10DgGeoCoordeE15setAddNeighborsERK8DgResAddIS0_ER11DgLocVector"
 "_ZNK9DgDiscRFSI11DgQ2DICoord10DgGeoCoordeE19setBoundaryChildrenERK8DgResAddIS0_ER11DgLocVector"
 "_ZNK9DgDiscRFSI11DgQ2DICoord10DgGeoCoordeE19setBoundaryChildrenERK8DgResAddIS0_ERK8DgRFBaseR11DgLocVector"
 "_ZNK9DgDiscRFSI11DgQ2DICoord10DgGeoCoordeE19setBoundaryChildrenEiRK10DgLocationR11DgLocVector"
 "_ZNK9DgDiscRFSI11DgQ2DICoord10DgGeoCoordeE19setInteriorChildrenERK8DgResAddIS0_ER11DgLocVector"
 "_ZNK9DgDiscRFSI11DgQ2DICoord10DgGeoCoordeE19setInteriorChildrenERK8DgResAddIS0_ERK8DgRFBaseR11DgLocVector"
 "_ZNK9DgDiscRFSI11DgQ2DICoord10DgGeoCoordeE19setInteriorChildrenEiRK10DgLocationR11DgLocVector"
 "_ZNK9DgDiscRFSI11DgQ2DICoord10DgGeoCoordeE20makeBoundaryChildrenERK8DgResAddIS0_E"
 "_ZNK9DgDiscRFSI11DgQ2DICoord10DgGeoCoordeE20makeBoundaryChildrenEiRK10DgLocation"
 "_ZNK9DgDiscRFSI11DgQ2DICoord10DgGeoCoordeE20makeInteriorChildrenERK8DgResAddIS0_E"
 "_ZNK9DgDiscRFSI11DgQ2DICoord10DgGeoCoordeE20makeInteriorChildrenEiRK10DgLocation"
 "_ZNK9DgDiscRFSI11DgQ2DICoord10DgGeoCoordeE4distERK8DgResAddIS0_ES6_"
 "_ZNK9DgDiscRFSI11DgQ2DICoord10DgGeoCoordeE7add2strB5cxx11ERK8DgResAddIS0_E"
 "_ZNK9DgDiscRFSI11DgQ2DICoord10DgGeoCoordeE7add2strB5cxx11ERK8DgResAddIS0_Ec"
 "_ZNK9DgDiscRFSI11DgQ2DICoord10DgGeoCoordeE7str2addEP8DgResAddIS0_EPKcc"
 "_ZNK9DgDiscRFSI11DgQ2DICoord10DgGeoCoordeE8quantifyERKS1_"
 "_ZNK9DgIDGGS4D13setAddParentsERK8DgResAddI11DgQ2DICoordER11DgLocVector"
 "_ZNK9DgIDGGS4D17setAddAllChildrenERK8DgResAddI11DgQ2DICoordER11DgLocVector"
 "_ZNK9DgIDGGS4D22setAddBoundaryChildrenERK8DgResAddI11DgQ2DICoordER11DgLocVector"
 "_ZNK9DgIDGGS4D22setAddInteriorChildrenERK8DgResAddI11DgQ2DICoordER11DgLocVector"
 "_ZNSt6vectorIP13DgAddressBaseSaIS1_EE17_M_realloc_insertIJS1_EEEvN9__gnu_cxx17__normal_iteratorIPS1_S3_EEDpOT_"
 "_ZNSt7__cxx1112basic_stringIcSt11char_traitsIcESaIcEE12_M_constructIPKcEEvT_S8_St20forward_iterator_tag"
 "_ZNSt7__cxx1112basic_stringIcSt11char_traitsIcESaIcEE12_M_constructIPcEEvT_S7_St20forward_iterator_tag"
 "_ZNSt7__cxx1115basic_stringbufIcSt11char_traitsIcESaIcEED1Ev"
 "_ZTI10DgDistanceIxE"
 "_ZTI11DgConverterI10DgGeoCoorde8DgResAddI11DgQ2DICoordExE"
 "_ZTI11DgConverterI8DgResAddI11DgQ2DICoordEx10DgGeoCoordeE"
 "_ZTI11DgLocVector"
 "_ZTI13DgAddressBase"
 "_ZTI14DgDistanceBase"
 "_ZTI15DgConverterBase"
 "_ZTI4DgRFI8DgResAddI11DgQ2DICoordExE"
 "_ZTI7DgIDGGS"
 "_ZTI8DgDiscRFI8DgResAddI11DgQ2DICoordE10DgGeoCoordeE"
 "_ZTI8DgRFBase"
 "_ZTI9DgAddressI10DgGeoCoordE"
 "_ZTI9DgAddressI8DgResAddI11DgQ2DICoordEE"
 "_ZTI9DgDiscRFSI11DgQ2DICoord10DgGeoCoordeE"
 "_ZTI9DgIDGGS4D"
 "_ZTI9DgLocBase"
 "_ZTI9DgPolygon"
 "_ZTIN8DgDiscRFI8DgResAddI11DgQ2DICoordE10DgGeoCoordeE16DgQuantConverterE"
 "_ZTIN8DgDiscRFI8DgResAddI11DgQ2DICoordE10DgGeoCoordeE19DgInvQuantConverterE"
 "_ZTS10DgDistanceIxE"
 "_ZTS11DgConverterI10DgGeoCoorde8DgResAddI11DgQ2DICoordExE"
 "_ZTS11DgConverterI8DgResAddI11DgQ2DICoordEx10DgGeoCoordeE"
 "_ZTS11DgLocVector"
 "_ZTS13DgAddressBase"
 "_ZTS14DgDistanceBase"
 "_ZTS15DgConverterBase"
 "_ZTS4DgRFI8DgResAddI11DgQ2DICoordExE"
 "_ZTS7DgIDGGS"
 "_ZTS8DgDiscRFI8DgResAddI11DgQ2DICoordE10DgGeoCoordeE"
 "_ZTS8DgRFBase"
 "_ZTS9DgAddressI10DgGeoCoordE"
 "_ZTS9DgAddressI8DgResAddI11DgQ2DICoordEE"
 "_ZTS9DgDiscRFSI11DgQ2DICoord10DgGeoCoordeE"
 "_ZTS9DgIDGGS4D"
 "_ZTS9DgLocBase"
 "_ZTS9DgPolygon"
 "_ZTSN8DgDiscRFI8DgResAddI11DgQ2DICoordE10DgGeoCoordeE16DgQuantConverterE"
 "_ZTSN8DgDiscRFI8DgResAddI11DgQ2DICoordE10DgGeoCoordeE19DgInvQuantConverterE"
 "_ZTV10DgDistanceIxE"
 "_ZTV11DgConverterI10DgGeoCoorde8DgResAddI11DgQ2DICoordExE"
 "_ZTV11DgConverterI8DgResAddI11DgQ2DICoordEx10DgGeoCoordeE"
 "_ZTV4DgRFI8DgResAddI11DgQ2DICoordExE"
 "_ZTV7DgIDGGS"
 "_ZTV8DgDiscRFI8DgResAddI11DgQ2DICoordE10DgGeoCoordeE"
 "_ZTV9DgAddressI10DgGeoCoordE"
 "_ZTV9DgAddressI8DgResAddI11DgQ2DICoordEE"
 "_ZTV9DgDiscRFSI11DgQ2DICoord10DgGeoCoordeE"
 "_ZTV9DgIDGGS4D"
 "_ZTV9DgPolygon"
 "_ZTVN8DgDiscRFI8DgResAddI11DgQ2DICoordE10DgGeoCoordeE16DgQuantConverterE"
 "_ZTVN8DgDiscRFI8DgResAddI11DgQ2DICoordE10DgGeoCoordeE19DgInvQuantConverterE"
 "_ZZNK7DgIDGGS12undefAddressEvE5undef"
 "_ZGVZNK7DgIDGGS12undefAddressEvE5undef"
 "_ZN10DgDistanceIxED0Ev"
 "_ZN10DgDistanceIxED1Ev"
 "_ZN10DgLocation12clearAddressEv"
 "_ZN11DgLocVector9convertToERK8DgRFBase"
 "_ZN11DgLocVectorD1Ev"
 "_ZN11DgLocVectorD2Ev"
 "_ZN3dgg4util9to_stringIeEENSt7__cxx1112basic_stringIcSt11char_traitsIcESaIcEEERKT_"
 "_ZN3dgg4util9to_stringIiEENSt7__cxx1112basic_stringIcSt11char_traitsIcESaIcEEERKT_"
 "_ZN3dgg4util9to_stringIxEENSt7__cxx1112basic_stringIcSt11char_traitsIcESaIcEEERKT_"
 "_ZN4DgRFI8DgResAddI11DgQ2DICoordExE6jumpRFEP10DgLocation"
 "_ZN8DgDiscRFI8DgResAddI11DgQ2DICoordE10DgGeoCoordeE16DgQuantConverterD0Ev"
 "_ZN8DgDiscRFI8DgResAddI11DgQ2DICoordE10DgGeoCoordeE16DgQuantConverterD1Ev"
 "_ZN8DgDiscRFI8DgResAddI11DgQ2DICoordE10DgGeoCoordeE19DgInvQuantConverterD0Ev"
 "_ZN8DgDiscRFI8DgResAddI11DgQ2DICoordE10DgGeoCoordeE19DgInvQuantConverterD1Ev"
 "_ZN9DgAddressI10DgGeoCoordED0Ev"
 "_ZN9DgAddressI10DgGeoCoordED1Ev"
 "_ZN9DgAddressI8DgResAddI11DgQ2DICoordEED0Ev"
 "_ZN9DgAddressI8DgResAddI11DgQ2DICoordEED1Ev"
 "_ZN9DgIDGGS4HC1ERKS_"
 "_ZN9DgIDGGS4HC2ERKS_"
 "_ZN9DgIDGGS4HD0Ev"
 "_ZN9DgIDGGS4HD1Ev"
 "_ZN9DgIDGGS4HD2Ev"
 "_ZN9DgIDGGS4HaSERKS_"
 "_ZN9DgPolygonD0Ev"
 "_ZN9DgPolygonD1Ev"
 "_ZNK10DgLocation8asStringB5cxx11Ev"
 "_ZNK11DgConverterI10DgGeoCoorde8DgResAddI11DgQ2DICoordExE22createConvertedAddressERK13DgAddressBase"
 "_ZNK11DgConverterI8DgResAddI11DgQ2DICoordEx10DgGeoCoordeE22createConvertedAddressERK13DgAddressBase"
 "_ZNK11DgLocVector11cardinalityEv"
 "_ZNK11DgLocVector15asAddressStringB5cxx11Ec"
 "_ZNK11DgLocVector15asAddressStringB5cxx11Ev"
 "_ZNK11DgLocVector8asStringB5cxx11Ec"
 "_ZNK11DgLocVector8asStringB5cxx11Ev"
 "_ZNK11DgQ2DICoordcvNSt7__cxx1112basic_stringIcSt11char_traitsIcESaIcEEEEv"
 "_ZNK4DgRFI10DgGeoCoordeE10getAddressERK10DgLocation"
 "_ZNK4DgRFI11DgQ2DICoordxE10getAddressERK10DgLocation"
 "_ZNK4DgRFI8DgResAddI11DgQ2DICoordExE10fromStringER10DgLocationPKcc"
 "_ZNK4DgRFI8DgResAddI11DgQ2DICoordExE10getAddressERK10DgLocation"
 "_ZNK4DgRFI8DgResAddI11DgQ2DICoordExE11copyAddressERK13DgAddressBasePS4_"
 "_ZNK4DgRFI8DgResAddI11DgQ2DICoordExE12equalAddressERK13DgAddressBaseS6_"
 "_ZNK4DgRFI8DgResAddI11DgQ2DICoordExE12makeLocationERKS2_"
 "_ZNK4DgRFI8DgResAddI11DgQ2DICoordExE13createAddressERK13DgAddressBase"
 "_ZNK4DgRFI8DgResAddI11DgQ2DICoordExE13createAddressEv"
 "_ZNK4DgRFI8DgResAddI11DgQ2DICoordExE14createLocationERK10DgLocationb"
 "_ZNK4DgRFI8DgResAddI11DgQ2DICoordExE15toAddressStringB5cxx11ERK10DgLocation"
 "_ZNK4DgRFI8DgResAddI11DgQ2DICoordExE15toAddressStringB5cxx11ERK10DgLocationc"
 "_ZNK4DgRFI8DgResAddI11DgQ2DICoordExE15toAddressStringB5cxx11ERK11DgLocVector"
 "_ZNK4DgRFI8DgResAddI11DgQ2DICoordExE15toAddressStringB5cxx11ERK11DgLocVectorc"
 "_ZNK4DgRFI8DgResAddI11DgQ2DICoordExE5toIntERK14DgDistanceBase"
 "_ZNK4DgRFI8DgResAddI11DgQ2DICoordExE8distanceERK10DgLocationS6_b"
 "_ZNK4DgRFI8DgResAddI11DgQ2DICoordExE8toDoubleERK14DgDistanceBase"
 "_ZNK4DgRFI8DgResAddI11DgQ2DICoordExE8toStringB5cxx11ERK10DgLocation"
 "_ZNK4DgRFI8DgResAddI11DgQ2DICoordExE8toStringB5cxx11ERK10DgLocationc"
 "_ZNK4DgRFI8DgResAddI11DgQ2DICoordExE8toStringB5cxx11ERK11DgLocVector"
 "_ZNK4DgRFI8DgResAddI11DgQ2DICoordExE8toStringB5cxx11ERK11DgLocVectorc"
 "_ZNK4DgRFI8DgResAddI11DgQ2DICoordExE8toStringB5cxx11ERK14DgDistanceBase"
 "_ZNK6DgIDGG14setAddVerticesERK11DgQ2DICoordR9DgPolygon"
 "_ZNK6DgIDGG15setAddNeighborsERK11DgQ2DICoordR11DgLocVector"
 "_ZNK6DgIDGG7add2strB5cxx11ERK11DgQ2DICoordc"
 "_ZNK7DgIDGGS12undefAddressEv"
 "_ZNK8DgDiscRFI11DgQ2DICoord10DgGeoCoordeE11setVerticesERKS0_R9DgPolygon"
 "_ZNK8DgDiscRFI8DgResAddI11DgQ2DICoordE10DgGeoCoordeE11setAddPointERKS2_R10DgLocation"
 "_ZNK8DgDiscRFI8DgResAddI11DgQ2DICoordE10DgGeoCoordeE11setVerticesERK10DgLocationR9DgPolygon"
 "_ZNK8DgDiscRFI8DgResAddI11DgQ2DICoordE10DgGeoCoordeE11setVerticesERK10DgLocationRK8DgRFBaseR9DgPolygon"
 "_ZNK8DgDiscRFI8DgResAddI11DgQ2DICoordE10DgGeoCoordeE11setVerticesERKS2_R9DgPolygon"
 "_ZNK8DgDiscRFI8DgResAddI11DgQ2DICoordE10DgGeoCoordeE11setVerticesERKS2_RK8DgRFBaseR9DgPolygon"
 "_ZNK8DgDiscRFI8DgResAddI11DgQ2DICoordE10DgGeoCoordeE12makeVerticesERK10DgLocation"
 "_ZNK8DgDiscRFI8DgResAddI11DgQ2DICoordE10DgGeoCoordeE12makeVerticesERKS2_"
 "_ZNK8DgDiscRFI8DgResAddI11DgQ2DICoordE10DgGeoCoordeE12setNeighborsERK10DgLocationR11DgLocVector"
 "_ZNK8DgDiscRFI8DgResAddI11DgQ2DICoordE10DgGeoCoordeE12setNeighborsERKS2_R11DgLocVector"
 "_ZNK8DgDiscRFI8DgResAddI11DgQ2DICoordE10DgGeoCoordeE12setNeighborsERKS2_RK8DgRFBaseR11DgLocVector"
 "_ZNK8DgDiscRFI8DgResAddI11DgQ2DICoordE10DgGeoCoordeE13makeNeighborsERK10DgLocation"
 "_ZNK8DgDiscRFI8DgResAddI11DgQ2DICoordE10DgGeoCoordeE13makeNeighborsERKS2_"
 "_ZNK8DgDiscRFI8DgResAddI11DgQ2DICoordE10DgGeoCoordeE16DgQuantConverter19convertTypedAddressERKS3_"
 "_ZNK8DgDiscRFI8DgResAddI11DgQ2DICoordE10DgGeoCoordeE19DgInvQuantConverter19convertTypedAddressERKS2_"
 "_ZNK8DgDiscRFI8DgResAddI11DgQ2DICoordE10DgGeoCoordeE8dist2dblERKx"
 "_ZNK8DgDiscRFI8DgResAddI11DgQ2DICoordE10DgGeoCoordeE8dist2intERKx"
 "_ZNK8DgDiscRFI8DgResAddI11DgQ2DICoordE10DgGeoCoordeE8dist2strB5cxx11ERKx"
 "_ZNK8DgDiscRFI8DgResAddI11DgQ2DICoordE10DgGeoCoordeE8setPointERK10DgLocationRK8DgRFBaseRS5_"
 "_ZNK8DgDiscRFI8DgResAddI11DgQ2DICoordE10DgGeoCoordeE8setPointERK10DgLocationRS5_"
 "_ZNK8DgDiscRFI8DgResAddI11DgQ2DICoordE10DgGeoCoordeE8setPointERKS2_R10DgLocation"
 "_ZNK8DgDiscRFI8DgResAddI11DgQ2DICoordE10DgGeoCoordeE8setPointERKS2_RK8DgRFBaseR10DgLocation"
 "_ZNK8DgDiscRFI8DgResAddI11DgQ2DICoordE10DgGeoCoordeE9makePointERK10DgLocation"
 "_ZNK8DgDiscRFI8DgResAddI11DgQ2DICoordE10DgGeoCoordeE9makePointERKS2_"
 "_ZNK8DgRFBase10vecAddressERK8DgDVec2D"
 "_ZNK8DgRFBase11vecLocationERK8DgDVec2D"
 "_ZNK8DgRFBase13getVecAddressERK13DgAddressBase"
 "_ZNK8DgRFBase14getVecLocationERK10DgLocation"
 "_ZNK8DgRFBase8undefLocEv"
 "_ZNK8DgRFBaseeqERKS_"
 "_ZNK8DgRFBaseneERKS_"
 "_ZNK8DgResAddI11DgQ2DICoordEcvNSt7__cxx1112basic_stringIcSt11char_traitsIcESaIcEEEEv"
 "_ZNK9DgAddressI10DgGeoCoordE7writeToERSo"
 "_ZNK9DgAddressI8DgResAddI11DgQ2DICoordEE7writeToERSo"
 "_ZNK9DgDiscRFSI11DgQ2DICoord10DgGeoCoordeE10setParentsERK8DgResAddIS0_ER11DgLocVector"
 "_ZNK9DgDiscRFSI11DgQ2DICoord10DgGeoCoordeE10setParentsERK8DgResAddIS0_ERK8DgRFBaseR11DgLocVector"
 "_ZNK9DgDiscRFSI11DgQ2DICoord10DgGeoCoordeE10setParentsEiRK10DgLocationR11DgLocVector"
 "_ZNK9DgDiscRFSI11DgQ2DICoord10DgGeoCoordeE11invQuantifyERK8DgResAddIS0_E"
 "_ZNK9DgDiscRFSI11DgQ2DICoord10DgGeoCoordeE11makeParentsERK8DgResAddIS0_E"
 "_ZNK9DgDiscRFSI11DgQ2DICoord10DgGeoCoordeE11makeParentsEiRK10DgLocation"
 "_ZNK9DgDiscRFSI11DgQ2DICoord10DgGeoCoordeE14setAddVerticesERK8DgResAddIS0_ER9DgPolygon"
 "_ZNK9DgDiscRFSI11DgQ2DICoord10DgGeoCoordeE14setAllChildrenERK8DgResAddIS0_ER11DgLocVector"
 "_ZNK9DgDiscRFSI11DgQ2DICoord10DgGeoCoordeE14setAllChildrenERK8DgResAddIS0_ERK8DgRFBaseR11DgLocVector"
 "_ZNK9DgDiscRFSI11DgQ2DICoord10DgGeoCoordeE14setAllChildrenEiRK10DgLocationR11DgLocVector"
 "_ZNK9DgDiscRFSI11DgQ2DICoord10DgGeoCoordeE15makeAllChildrenERK8DgResAddIS0_E"
 "_ZNK9DgDiscRFSI11DgQ2DICoord10DgGeoCoordeE15makeAllChildrenEiRK10DgLocation"
 "_ZNK9DgDiscRFSI11DgQ2DICoord10DgGeoCoordeE15setAddNeighborsERK8DgResAddIS0_ER11DgLocVector"
 "_ZNK9DgDiscRFSI11DgQ2DICoord10DgGeoCoordeE19setBoundaryChildrenERK8DgResAddIS0_ER11DgLocVector"
 "_ZNK9DgDiscRFSI11DgQ2DICoord10DgGeoCoordeE19setBoundaryChildrenERK8DgResAddIS0_ERK8DgRFBaseR11DgLocVector"
 "_ZNK9DgDiscRFSI11DgQ2DICoord10DgGeoCoordeE19setBoundaryChildrenEiRK10DgLocationR11DgLocVector"
 "_ZNK9DgDiscRFSI11DgQ2DICoord10DgGeoCoordeE19setInteriorChildrenERK8DgResAddIS0_ER11DgLocVector"
 "_ZNK9DgDiscRFSI11DgQ2DICoord10DgGeoCoordeE19setInteriorChildrenERK8DgResAddIS0_ERK8DgRFBaseR11DgLocVector"
 "_ZNK9DgDiscRFSI11DgQ2DICoord10DgGeoCoordeE19setInteriorChildrenEiRK10DgLocationR11DgLocVector"
 "_ZNK9DgDiscRFSI11DgQ2DICoord10DgGeoCoordeE20makeBoundaryChildrenERK8DgResAddIS0_E"
 "_ZNK9DgDiscRFSI11DgQ2DICoord10DgGeoCoordeE20makeBoundaryChildrenEiRK10DgLocation"
 "_ZNK9DgDiscRFSI11DgQ2DICoord10DgGeoCoordeE20makeInteriorChildrenERK8DgResAddIS0_E"
 "_ZNK9DgDiscRFSI11DgQ2DICoord10DgGeoCoordeE20makeInteriorChildrenEiRK10DgLocation"
 "_ZNK9DgDiscRFSI11DgQ2DICoord10DgGeoCoordeE4distERK8DgResAddIS0_ES6_"
 "_ZNK9DgDiscRFSI11DgQ2DICoord10DgGeoCoordeE7add2strB5cxx11ERK8DgResAddIS0_E"
 "_ZNK9DgDiscRFSI11DgQ2DICoord10DgGeoCoordeE7add2strB5cxx11ERK8DgResAddIS0_Ec"
 "_ZNK9DgDiscRFSI11DgQ2DICoord10DgGeoCoordeE7str2addEP8DgResAddIS0_EPKcc"
 "_ZNK9DgDiscRFSI11DgQ2DICoord10DgGeoCoordeE8quantifyERKS1_"
 "_ZNK9DgIDGGS4H13setAddParentsERK8DgResAddI11DgQ2DICoordER11DgLocVector"
 "_ZNK9DgIDGGS4H17setAddAllChildrenERK8DgResAddI11DgQ2DICoordER11DgLocVector"
 "_ZNK9DgIDGGS4H22setAddBoundaryChildrenERK8DgResAddI11DgQ2DICoordER11DgLocVector"
 "_ZNK9DgIDGGS4H22setAddInteriorChildrenERK8DgResAddI11DgQ2DICoordER11DgLocVector"
 "_ZNSt7__cxx1112basic_stringIcSt11char_traitsIcESaIcEE12_M_constructIPKcEEvT_S8_St20forward_iterator_tag"
 "_ZNSt7__cxx1112basic_stringIcSt11char_traitsIcESaIcEE12_M_constructIPcEEvT_S7_St20forward_iterator_tag"
 "_ZNSt7__cxx1115basic_stringbufIcSt11char_traitsIcESaIcEED1Ev"
 "_ZTI10DgDistanceIxE"
 "_ZTI11DgConverterI10DgGeoCoorde8DgResAddI11DgQ2DICoordExE"
 "_ZTI11DgConverterI8DgResAddI11DgQ2DICoordEx10DgGeoCoordeE"
 "_ZTI11DgLocVector"
 "_ZTI13DgAddressBase"
 "_ZTI14DgDistanceBase"
 "_ZTI15DgConverterBase"
 "_ZTI4DgRFI8DgResAddI11DgQ2DICoordExE"
 "_ZTI7DgIDGGS"
 "_ZTI8DgDiscRFI8DgResAddI11DgQ2DICoordE10DgGeoCoordeE"
 "_ZTI8DgRFBase"
 "_ZTI9DgAddressI10DgGeoCoordE"
 "_ZTI9DgAddressI8DgResAddI11DgQ2DICoordEE"
 "_ZTI9DgDiscRFSI11DgQ2DICoord10DgGeoCoordeE"
 "_ZTI9DgIDGGS4H"
 "_ZTI9DgLocBase"
 "_ZTI9DgPolygon"
 "_ZTIN8DgDiscRFI8DgResAddI11DgQ2DICoordE10DgGeoCoordeE16DgQuantConverterE"
 "_ZTIN8DgDiscRFI8DgResAddI11DgQ2DICoordE10DgGeoCoordeE19DgInvQuantConverterE"
 "_ZTS10DgDistanceIxE"
 "_ZTS11DgConverterI10DgGeoCoorde8DgResAddI11DgQ2DICoordExE"
 "_ZTS11DgConverterI8DgResAddI11DgQ2DICoordEx10DgGeoCoordeE"
 "_ZTS11DgLocVector"
 "_ZTS13DgAddressBase"
 "_ZTS14DgDistanceBase"
 "_ZTS15DgConverterBase"
 "_ZTS4DgRFI8DgResAddI11DgQ2DICoordExE"
 "_ZTS7DgIDGGS"
 "_ZTS8DgDiscRFI8DgResAddI11DgQ2DICoordE10DgGeoCoordeE"
 "_ZTS8DgRFBase"
 "_ZTS9DgAddressI10DgGeoCoordE"
 "_ZTS9DgAddressI8DgResAddI11DgQ2DICoordEE"
 "_ZTS9DgDiscRFSI11DgQ2DICoord10DgGeoCoordeE"
 "_ZTS9DgIDGGS4H"
 "_ZTS9DgLocBase"
 "_ZTS9DgPolygon"
 "_ZTSN8DgDiscRFI8DgResAddI11DgQ2DICoordE10DgGeoCoordeE16DgQuantConverterE"
 "_ZTSN8DgDiscRFI8DgResAddI11DgQ2DICoordE10DgGeoCoordeE19DgInvQuantConverterE"
 "_ZTV10DgDistanceIxE"
 "_ZTV11DgConverterI10DgGeoCoorde8DgResAddI11DgQ2DICoordExE"
 "_ZTV11DgConverterI8DgResAddI11DgQ2DICoordEx10DgGeoCoordeE"
 "_ZTV4DgRFI8DgResAddI11DgQ2DICoordExE"
 "_ZTV7DgIDGGS"
 "_ZTV8DgDiscRFI8DgResAddI11DgQ2DICoordE10DgGeoCoordeE"
 "_ZTV9DgAddressI10DgGeoCoordE"
 "_ZTV9DgAddressI8DgResAddI11DgQ2DICoordEE"
 "_ZTV9DgDiscRFSI11DgQ2DICoord10DgGeoCoordeE"
 "_ZTV9DgIDGGS4H"
 "_ZTV9DgPolygon"
 "_ZTVN8DgDiscRFI8DgResAddI11DgQ2DICoordE10DgGeoCoordeE16DgQuantConverterE"
 "_ZTVN8DgDiscRFI8DgResAddI11DgQ2DICoordE10DgGeoCoordeE19DgInvQuantConverterE"
 "_ZZNK7DgIDGGS12undefAddressEvE5undef"
 "_ZGVZNK7DgIDGGS12undefAddressEvE5undef"
 "_ZN10DgDistanceIxED0Ev"
 "_ZN10DgDistanceIxED1Ev"
 "_ZN10DgLocation12clearAddressEv"
 "_ZN11DgLocVector9convertToERK8DgRFBase"
 "_ZN3dgg4util9to_stringIeEENSt7__cxx1112basic_stringIcSt11char_traitsIcESaIcEEERKT_"
 "_ZN3dgg4util9to_stringIiEENSt7__cxx1112basic_stringIcSt11char_traitsIcESaIcEEERKT_"
 "_ZN3dgg4util9to_stringIxEENSt7__cxx1112basic_stringIcSt11char_traitsIcESaIcEEERKT_"
 "_ZN4DgRFI8DgResAddI11DgQ2DICoordExE6jumpRFEP10DgLocation"
 "_ZN8DgDiscRFI8DgResAddI11DgQ2DICoordE10DgGeoCoordeE16DgQuantConverterD0Ev"
 "_ZN8DgDiscRFI8DgResAddI11DgQ2DICoordE10DgGeoCoordeE16DgQuantConverterD1Ev"
 "_ZN8DgDiscRFI8DgResAddI11DgQ2DICoordE10DgGeoCoordeE19DgInvQuantConverterD0Ev"
 "_ZN8DgDiscRFI8DgResAddI11DgQ2DICoordE10DgGeoCoordeE19DgInvQuantConverterD1Ev"
 "_ZN9DgAddressI10DgGeoCoordED0Ev"
 "_ZN9DgAddressI10DgGeoCoordED1Ev"
 "_ZN9DgAddressI8DgResAddI11DgQ2DICoordEED0Ev"
 "_ZN9DgAddressI8DgResAddI11DgQ2DICoordEED1Ev"
 "_ZN9DgIDGGS4TC1ERKS_"
 "_ZN9DgIDGGS4TC2ERKS_"
 "_ZN9DgIDGGS4TD0Ev"
 "_ZN9DgIDGGS4TD1Ev"
 "_ZN9DgIDGGS4TD2Ev"
 "_ZN9DgIDGGS4TaSERKS_"
 "_ZN9DgPolygonD0Ev"
 "_ZN9DgPolygonD1Ev"
 "_ZNK10DgLocation8asStringB5cxx11Ev"
 "_ZNK11DgConverterI10DgGeoCoorde8DgResAddI11DgQ2DICoordExE22createConvertedAddressERK13DgAddressBase"
 "_ZNK11DgConverterI8DgResAddI11DgQ2DICoordEx10DgGeoCoordeE22createConvertedAddressERK13DgAddressBase"
 "_ZNK11DgLocVector11cardinalityEv"
 "_ZNK11DgLocVector15asAddressStringB5cxx11Ec"
 "_ZNK11DgLocVector15asAddressStringB5cxx11Ev"
 "_ZNK11DgLocVector8asStringB5cxx11Ec"
 "_ZNK11DgLocVector8asStringB5cxx11Ev"
 "_ZNK11DgQ2DICoordcvNSt7__cxx1112basic_stringIcSt11char_traitsIcESaIcEEEEv"
 "_ZNK4DgRFI10DgGeoCoordeE10getAddressERK10DgLocation"
 "_ZNK4DgRFI11DgQ2DICoordxE10getAddressERK10DgLocation"
 "_ZNK4DgRFI8DgResAddI11DgQ2DICoordExE10fromStringER10DgLocationPKcc"
 "_ZNK4DgRFI8DgResAddI11DgQ2DICoordExE10getAddressERK10DgLocation"
 "_ZNK4DgRFI8DgResAddI11DgQ2DICoordExE11copyAddressERK13DgAddressBasePS4_"
 "_ZNK4DgRFI8DgResAddI11DgQ2DICoordExE12equalAddressERK13DgAddressBaseS6_"
 "_ZNK4DgRFI8DgResAddI11DgQ2DICoordExE12makeLocationERKS2_"
 "_ZNK4DgRFI8DgResAddI11DgQ2DICoordExE13createAddressERK13DgAddressBase"
 "_ZNK4DgRFI8DgResAddI11DgQ2DICoordExE13createAddressEv"
 "_ZNK4DgRFI8DgResAddI11DgQ2DICoordExE14createLocationERK10DgLocationb"
 "_ZNK4DgRFI8DgResAddI11DgQ2DICoordExE15toAddressStringB5cxx11ERK10DgLocation"
 "_ZNK4DgRFI8DgResAddI11DgQ2DICoordExE15toAddressStringB5cxx11ERK10DgLocationc"
 "_ZNK4DgRFI8DgResAddI11DgQ2DICoordExE15toAddressStringB5cxx11ERK11DgLocVector"
 "_ZNK4DgRFI8DgResAddI11DgQ2DICoordExE15toAddressStringB5cxx11ERK11DgLocVectorc"
 "_ZNK4DgRFI8DgResAddI11DgQ2DICoordExE5toIntERK14DgDistanceBase"
 "_ZNK4DgRFI8DgResAddI11DgQ2DICoordExE8distanceERK10DgLocationS6_b"
 "_ZNK4DgRFI8DgResAddI11DgQ2DICoordExE8toDoubleERK14DgDistanceBase"
 "_ZNK4DgRFI8DgResAddI11DgQ2DICoordExE8toStringB5cxx11ERK10DgLocation"
 "_ZNK4DgRFI8DgResAddI11DgQ2DICoordExE8toStringB5cxx11ERK10DgLocationc"
 "_ZNK4DgRFI8DgResAddI11DgQ2DICoordExE8toStringB5cxx11ERK11DgLocVector"
 "_ZNK4DgRFI8DgResAddI11DgQ2DICoordExE8toStringB5cxx11ERK11DgLocVectorc"
 "_ZNK4DgRFI8DgResAddI11DgQ2DICoordExE8toStringB5cxx11ERK14DgDistanceBase"
 "_ZNK6DgIDGG14setAddVerticesERK11DgQ2DICoordR9DgPolygon"
 "_ZNK6DgIDGG15setAddNeighborsERK11DgQ2DICoordR11DgLocVector"
 "_ZNK6DgIDGG7add2strB5cxx11ERK11DgQ2DICoordc"
 "_ZNK7DgIDGGS12undefAddressEv"
 "_ZNK8DgDiscRFI11DgQ2DICoord10DgGeoCoordeE11setVerticesERKS0_R9DgPolygon"
 "_ZNK8DgDiscRFI8DgResAddI11DgQ2DICoordE10DgGeoCoordeE11setAddPointERKS2_R10DgLocation"
 "_ZNK8DgDiscRFI8DgResAddI11DgQ2DICoordE10DgGeoCoordeE11setVerticesERK10DgLocationR9DgPolygon"
 "_ZNK8DgDiscRFI8DgResAddI11DgQ2DICoordE10DgGeoCoordeE11setVerticesERK10DgLocationRK8DgRFBaseR9DgPolygon"
 "_ZNK8DgDiscRFI8DgResAddI11DgQ2DICoordE10DgGeoCoordeE11setVerticesERKS2_R9DgPolygon"
 "_ZNK8DgDiscRFI8DgResAddI11DgQ2DICoordE10DgGeoCoordeE11setVerticesERKS2_RK8DgRFBaseR9DgPolygon"
 "_ZNK8DgDiscRFI8DgResAddI11DgQ2DICoordE10DgGeoCoordeE12makeVerticesERK10DgLocation"
 "_ZNK8DgDiscRFI8DgResAddI11DgQ2DICoordE10DgGeoCoordeE12makeVerticesERKS2_"
 "_ZNK8DgDiscRFI8DgResAddI11DgQ2DICoordE10DgGeoCoordeE12setNeighborsERK10DgLocationR11DgLocVector"
 "_ZNK8DgDiscRFI8DgResAddI11DgQ2DICoordE10DgGeoCoordeE12setNeighborsERKS2_R11DgLocVector"
 "_ZNK8DgDiscRFI8DgResAddI11DgQ2DICoordE10DgGeoCoordeE12setNeighborsERKS2_RK8DgRFBaseR11DgLocVector"
 "_ZNK8DgDiscRFI8DgResAddI11DgQ2DICoordE10DgGeoCoordeE13makeNeighborsERK10DgLocation"
 "_ZNK8DgDiscRFI8DgResAddI11DgQ2DICoordE10DgGeoCoordeE13makeNeighborsERKS2_"
 "_ZNK8DgDiscRFI8DgResAddI11DgQ2DICoordE10DgGeoCoordeE16DgQuantConverter19convertTypedAddressERKS3_"
 "_ZNK8DgDiscRFI8DgResAddI11DgQ2DICoordE10DgGeoCoordeE19DgInvQuantConverter19convertTypedAddressERKS2_"
 "_ZNK8DgDiscRFI8DgResAddI11DgQ2DICoordE10DgGeoCoordeE8dist2dblERKx"
 "_ZNK8DgDiscRFI8DgResAddI11DgQ2DICoordE10DgGeoCoordeE8dist2intERKx"
 "_ZNK8DgDiscRFI8DgResAddI11DgQ2DICoordE10DgGeoCoordeE8dist2strB5cxx11ERKx"
 "_ZNK8DgDiscRFI8DgResAddI11DgQ2DICoordE10DgGeoCoordeE8setPointERK10DgLocationRK8DgRFBaseRS5_"
 "_ZNK8DgDiscRFI8DgResAddI11DgQ2DICoordE10DgGeoCoordeE8setPointERK10DgLocationRS5_"
 "_ZNK8DgDiscRFI8DgResAddI11DgQ2DICoordE10DgGeoCoordeE8setPointERKS2_R10DgLocation"
 "_ZNK8DgDiscRFI8DgResAddI11DgQ2DICoordE10DgGeoCoordeE8setPointERKS2_RK8DgRFBaseR10DgLocation"
 "_ZNK8DgDiscRFI8DgResAddI11DgQ2DICoordE10DgGeoCoordeE9makePointERK10DgLocation"
 "_ZNK8DgDiscRFI8DgResAddI11DgQ2DICoordE10DgGeoCoordeE9makePointERKS2_"
 "_ZNK8DgRFBase10vecAddressERK8DgDVec2D"
 "_ZNK8DgRFBase11vecLocationERK8DgDVec2D"
 "_ZNK8DgRFBase13getVecAddressERK13DgAddressBase"
 "_ZNK8DgRFBase14getVecLocationERK10DgLocation"
 "_ZNK8DgRFBase8undefLocEv"
 "_ZNK8DgRFBaseeqERKS_"
 "_ZNK8DgRFBaseneERKS_"
 "_ZNK8DgResAddI11DgQ2DICoordEcvNSt7__cxx1112basic_stringIcSt11char_traitsIcESaIcEEEEv"
 "_ZNK9DgAddressI10DgGeoCoordE7writeToERSo"
 "_ZNK9DgAddressI8DgResAddI11DgQ2DICoordEE7writeToERSo"
 "_ZNK9DgDiscRFSI11DgQ2DICoord10DgGeoCoordeE10setParentsERK8DgResAddIS0_ER11DgLocVector"
 "_ZNK9DgDiscRFSI11DgQ2DICoord10DgGeoCoordeE10setParentsERK8DgResAddIS0_ERK8DgRFBaseR11DgLocVector"
 "_ZNK9DgDiscRFSI11DgQ2DICoord10DgGeoCoordeE10setParentsEiRK10DgLocationR11DgLocVector"
 "_ZNK9DgDiscRFSI11DgQ2DICoord10DgGeoCoordeE11invQuantifyERK8DgResAddIS0_E"
 "_ZNK9DgDiscRFSI11DgQ2DICoord10DgGeoCoordeE11makeParentsERK8DgResAddIS0_E"
 "_ZNK9DgDiscRFSI11DgQ2DICoord10DgGeoCoordeE11makeParentsEiRK10DgLocation"
 "_ZNK9DgDiscRFSI11DgQ2DICoord10DgGeoCoordeE14setAddVerticesERK8DgResAddIS0_ER9DgPolygon"
 "_ZNK9DgDiscRFSI11DgQ2DICoord10DgGeoCoordeE14setAllChildrenERK8DgResAddIS0_ER11DgLocVector"
 "_ZNK9DgDiscRFSI11DgQ2DICoord10DgGeoCoordeE14setAllChildrenERK8DgResAddIS0_ERK8DgRFBaseR11DgLocVector"
 "_ZNK9DgDiscRFSI11DgQ2DICoord10DgGeoCoordeE14setAllChildrenEiRK10DgLocationR11DgLocVector"
 "_ZNK9DgDiscRFSI11DgQ2DICoord10DgGeoCoordeE15makeAllChildrenERK8DgResAddIS0_E"
 "_ZNK9DgDiscRFSI11DgQ2DICoord10DgGeoCoordeE15makeAllChildrenEiRK10DgLocation"
 "_ZNK9DgDiscRFSI11DgQ2DICoord10DgGeoCoordeE15setAddNeighborsERK8DgResAddIS0_ER11DgLocVector"
 "_ZNK9DgDiscRFSI11DgQ2DICoord10DgGeoCoordeE19setBoundaryChildrenERK8DgResAddIS0_ER11DgLocVector"
 "_ZNK9DgDiscRFSI11DgQ2DICoord10DgGeoCoordeE19setBoundaryChildrenERK8DgResAddIS0_ERK8DgRFBaseR11DgLocVector"
 "_ZNK9DgDiscRFSI11DgQ2DICoord10DgGeoCoordeE19setBoundaryChildrenEiRK10DgLocationR11DgLocVector"
 "_ZNK9DgDiscRFSI11DgQ2DICoord10DgGeoCoordeE19setInteriorChildrenERK8DgResAddIS0_ER11DgLocVector"
 "_ZNK9DgDiscRFSI11DgQ2DICoord10DgGeoCoordeE19setInteriorChildrenERK8DgResAddIS0_ERK8DgRFBaseR11DgLocVector"
 "_ZNK9DgDiscRFSI11DgQ2DICoord10DgGeoCoordeE19setInteriorChildrenEiRK10DgLocationR11DgLocVector"
 "_ZNK9DgDiscRFSI11DgQ2DICoord10DgGeoCoordeE20makeBoundaryChildrenERK8DgResAddIS0_E"
 "_ZNK9DgDiscRFSI11DgQ2DICoord10DgGeoCoordeE20makeBoundaryChildrenEiRK10DgLocation"
 "_ZNK9DgDiscRFSI11DgQ2DICoord10DgGeoCoordeE20makeInteriorChildrenERK8DgResAddIS0_E"
 "_ZNK9DgDiscRFSI11DgQ2DICoord10DgGeoCoordeE20makeInteriorChildrenEiRK10DgLocation"
 "_ZNK9DgDiscRFSI11DgQ2DICoord10DgGeoCoordeE4distERK8DgResAddIS0_ES6_"
 "_ZNK9DgDiscRFSI11DgQ2DICoord10DgGeoCoordeE7add2strB5cxx11ERK8DgResAddIS0_E"
 "_ZNK9DgDiscRFSI11DgQ2DICoord10DgGeoCoordeE7add2strB5cxx11ERK8DgResAddIS0_Ec"
 "_ZNK9DgDiscRFSI11DgQ2DICoord10DgGeoCoordeE7str2addEP8DgResAddIS0_EPKcc"
 "_ZNK9DgDiscRFSI11DgQ2DICoord10DgGeoCoordeE8quantifyERKS1_"
 "_ZNK9DgIDGGS4T13setAddParentsERK8DgResAddI11DgQ2DICoordER11DgLocVector"
 "_ZNK9DgIDGGS4T17setAddAllChildrenERK8DgResAddI11DgQ2DICoordER11DgLocVector"
 "_ZNK9DgIDGGS4T22setAddBoundaryChildrenERK8DgResAddI11DgQ2DICoordER11DgLocVector"
 "_ZNK9DgIDGGS4T22setAddInteriorChildrenERK8DgResAddI11DgQ2DICoordER11DgLocVector"
 "_ZNSt6vectorIP13DgAddressBaseSaIS1_EE12emplace_backIJS1_EEEvDpOT_"
 "_ZNSt6vectorIP13DgAddressBaseSaIS1_EE17_M_realloc_insertIJS1_EEEvN9__gnu_cxx17__normal_iteratorIPS1_S3_EEDpOT_"
 "_ZNSt7__cxx1112basic_stringIcSt11char_traitsIcESaIcEE12_M_constructIPKcEEvT_S8_St20forward_iterator_tag"
 "_ZNSt7__cxx1112basic_stringIcSt11char_traitsIcESaIcEE12_M_constructIPcEEvT_S7_St20forward_iterator_tag"
 "_ZNSt7__cxx1115basic_stringbufIcSt11char_traitsIcESaIcEED1Ev"
 "_ZTI10DgDistanceIxE"
 "_ZTI11DgConverterI10DgGeoCoorde8DgResAddI11DgQ2DICoordExE"
 "_ZTI11DgConverterI8DgResAddI11DgQ2DICoordEx10DgGeoCoordeE"
 "_ZTI11DgLocVector"
 "_ZTI13DgAddressBase"
 "_ZTI14DgDistanceBase"
 "_ZTI15DgConverterBase"
 "_ZTI4DgRFI8DgResAddI11DgQ2DICoordExE"
 "_ZTI7DgIDGGS"
 "_ZTI8DgDiscRFI8DgResAddI11DgQ2DICoordE10DgGeoCoordeE"
 "_ZTI8DgRFBase"
 "_ZTI9DgAddressI10DgGeoCoordE"
 "_ZTI9DgAddressI8DgResAddI11DgQ2DICoordEE"
 "_ZTI9DgDiscRFSI11DgQ2DICoord10DgGeoCoordeE"
 "_ZTI9DgIDGGS4T"
 "_ZTI9DgLocBase"
 "_ZTI9DgPolygon"
 "_ZTIN8DgDiscRFI8DgResAddI11DgQ2DICoordE10DgGeoCoordeE16DgQuantConverterE"
 "_ZTIN8DgDiscRFI8DgResAddI11DgQ2DICoordE10DgGeoCoordeE19DgInvQuantConverterE"
 "_ZTS10DgDistanceIxE"
 "_ZTS11DgConverterI10DgGeoCoorde8DgResAddI11DgQ2DICoordExE"
 "_ZTS11DgConverterI8DgResAddI11DgQ2DICoordEx10DgGeoCoordeE"
 "_ZTS11DgLocVector"
 "_ZTS13DgAddressBase"
 "_ZTS14DgDistanceBase"
 "_ZTS15DgConverterBase"
 "_ZTS4DgRFI8DgResAddI11DgQ2DICoordExE"
 "_ZTS7DgIDGGS"
 "_ZTS8DgDiscRFI8DgResAddI11DgQ2DICoordE10DgGeoCoordeE"
 "_ZTS8DgRFBase"
 "_ZTS9DgAddressI10DgGeoCoordE"
 "_ZTS9DgAddressI8DgResAddI11DgQ2DICoordEE"
 "_ZTS9DgDiscRFSI11DgQ2DICoord10DgGeoCoordeE"
 "_ZTS9DgIDGGS4T"
 "_ZTS9DgLocBase"
 "_ZTS9DgPolygon"
 "_ZTSN8DgDiscRFI8DgResAddI11DgQ2DICoordE10DgGeoCoordeE16DgQuantConverterE"
 "_ZTSN8DgDiscRFI8DgResAddI11DgQ2DICoordE10DgGeoCoordeE19DgInvQuantConverterE"
 "_ZTV10DgDistanceIxE"
 "_ZTV11DgConverterI10DgGeoCoorde8DgResAddI11DgQ2DICoordExE"
 "_ZTV11DgConverterI8DgResAddI11DgQ2DICoordEx10DgGeoCoordeE"
 "_ZTV4DgRFI8DgResAddI11DgQ2DICoordExE"
 "_ZTV7DgIDGGS"
 "_ZTV8DgDiscRFI8DgResAddI11DgQ2DICoordE10DgGeoCoordeE"
 "_ZTV9DgAddressI10DgGeoCoordE"
 "_ZTV9DgAddressI8DgResAddI11DgQ2DICoordEE"
 "_ZTV9DgDiscRFSI11DgQ2DICoord10DgGeoCoordeE"
 "_ZTV9DgIDGGS4T"
 "_ZTV9DgPolygon"
 "_ZTVN8DgDiscRFI8DgResAddI11DgQ2DICoordE10DgGeoCoordeE16DgQuantConverterE"
 "_ZTVN8DgDiscRFI8DgResAddI11DgQ2DICoordE10DgGeoCoordeE19DgInvQuantConverterE"
 "_ZZNK7DgIDGGS12undefAddressEvE5undef"
 "_ZN8DgIVec2D10fromStringEPKcc"
 "_ZN8DgIVec2D13undefDgIVec2DE"
 "_ZNSt7__cxx1112basic_stringIcSt11char_traitsIcESaIcEE12_M_constructIPKcEEvT_S8_St20forward_iterator_tag"
 "_ZNSt7__cxx1115basic_stringbufIcSt11char_traitsIcESaIcEED1Ev"
 "_ZStplIcSt11char_traitsIcESaIcEENSt7__cxx1112basic_stringIT_T0_T1_EEPKS5_RKS8_"
 "_ZTISt13runtime_error"
 "_ZTISt9exception"
 "_ZTSSt13runtime_error"
 "_ZTSSt9exception"
 "_ZN8DgIVec3D10fromStringEPKcc"
 "_ZN8DgIVec3D13undefDgIVec3DE"
 "_ZNSt7__cxx1112basic_stringIcSt11char_traitsIcESaIcEE12_M_constructIPKcEEvT_S8_St20forward_iterator_tag"
 "_ZNSt7__cxx1115basic_stringbufIcSt11char_traitsIcESaIcEED1Ev"
 "_ZStplIcSt11char_traitsIcESaIcEENSt7__cxx1112basic_stringIT_T0_T1_EEPKS5_RKS8_"
 "_ZTISt13runtime_error"
 "_ZTISt9exception"
 "_ZTSSt13runtime_error"
 "_ZTSSt9exception"
 "_ZN10DgIcosaMap11defIcosaMapE"
 "_ZN10DgIcosaMap9maxOffsetEv"
 "_ZN10DgIcosaMapC1EPK10DgIcosaTri"
 "_ZN10DgIcosaMapC2EPK10DgIcosaTri"
 "_ZN10DgIcosaTri7origin_E"
 "_ZNK10DgIcosaMap11untranslateEiP8DgDVec2Db"
 "_ZNK10DgIcosaMap9translateEiP8DgDVec2D"
 "_ZNK10DgIcosaTri11untranslateEP8DgDVec2Db"
 "_ZNK10DgIcosaTri9translateEP8DgDVec2D"
 "_Z14fixSciNotationPc"
 "_ZN11DgLocVector9convertToERK8DgRFBase"
 "_ZN11DgLocVectorD0Ev"
 "_ZN13DgInAIGenFile7extractER10DgLocation"
 "_ZN13DgInAIGenFile7extractER11DgLocVector"
 "_ZN13DgInAIGenFile7extractER6DgCell"
 "_ZN13DgInAIGenFile7extractER9DgLocList"
 "_ZN13DgInAIGenFile7extractER9DgPolygon"
 "_ZN13DgInAIGenFileC1ERK8DgRFBasePKNSt7__cxx1112basic_stringIcSt11char_traitsIcESaIcEEEN6DgBase13DgReportLevelE"
 "_ZN13DgInAIGenFileC2ERK8DgRFBasePKNSt7__cxx1112basic_stringIcSt11char_traitsIcESaIcEEEN6DgBase13DgReportLevelE"
 "_ZN13DgInAIGenFileD0Ev"
 "_ZN13DgInAIGenFileD1Ev"
 "_ZN15DgInLocTextFile5closeEv"
 "_ZN15DgInLocTextFile5isEOFEv"
 "_ZN15DgInLocTextFileD2Ev"
 "_ZN6DgCell12clearAddressEv"
 "_ZN6DgCell7setNodeERK10DgLocation"
 "_ZN6DgCellD0Ev"
 "_ZN9DgAddressI8DgDVec2DED0Ev"
 "_ZN9DgAddressI8DgDVec2DED1Ev"
 "_ZN9DgPolygonD0Ev"
 "_ZN9DgPolygonD1Ev"
 "_ZNK11DgLocVector11cardinalityEv"
 "_ZNK11DgLocVector15asAddressStringB5cxx11Ec"
 "_ZNK11DgLocVector15asAddressStringB5cxx11Ev"
 "_ZNK11DgLocVector8asStringB5cxx11Ec"
 "_ZNK11DgLocVector8asStringB5cxx11Ev"
 "_ZNK4DgRFI8DgDVec2DeE13createAddressERK13DgAddressBase"
 "_ZNK8DgRFBaseeqERKS_"
 "_ZNK8DgRFBaseneERKS_"
 "_ZNK9DgAddressI8DgDVec2DE7writeToERSo"
 "_ZNKSt5ctypeIcE8do_widenEc"
 "_ZNSt6vectorIP13DgAddressBaseSaIS1_EE14_M_fill_insertEN9__gnu_cxx17__normal_iteratorIPS1_S3_EEjRKS1_"
 "_ZNSt6vectorIP13DgAddressBaseSaIS1_EE17_M_realloc_insertIJRKS1_EEEvN9__gnu_cxx17__normal_iteratorIPS1_S3_EEDpOT_"
 "_ZNSt6vectorIP13DgAddressBaseSaIS1_EE8_M_eraseEN9__gnu_cxx17__normal_iteratorIPS1_S3_EE"
 "_ZNSt7__cxx1112basic_stringIcSt11char_traitsIcESaIcEE12_M_constructIPKcEEvT_S8_St20forward_iterator_tag"
 "_ZNSt7__cxx1112basic_stringIcSt11char_traitsIcESaIcEE12_M_constructIPcEEvT_S7_St20forward_iterator_tag"
 "_ZNSt7__cxx1115basic_stringbufIcSt11char_traitsIcESaIcEED1Ev"
 "_ZTC13DgInAIGenFile0_15DgInLocTextFile"
 "_ZTC13DgInAIGenFile0_Si"
 "_ZTC13DgInAIGenFile0_St14basic_ifstreamIcSt11char_traitsIcEE"
 "_ZTI11DgInLocFile"
 "_ZTI11DgLocVector"
 "_ZTI13DgAddressBase"
 "_ZTI13DgInAIGenFile"
 "_ZTI15DgInLocTextFile"
 "_ZTI6DgBase"
 "_ZTI9DgAddressI8DgDVec2DE"
 "_ZTI9DgLocBase"
 "_ZTI9DgPolygon"
 "_ZTS11DgInLocFile"
 "_ZTS11DgLocVector"
 "_ZTS13DgAddressBase"
 "_ZTS13DgInAIGenFile"
 "_ZTS15DgInLocTextFile"
 "_ZTS6DgBase"
 "_ZTS9DgAddressI8DgDVec2DE"
 "_ZTS9DgLocBase"
 "_ZTS9DgPolygon"
 "_ZTT13DgInAIGenFile"
 "_ZTV11DgInLocFile"
 "_ZTV13DgInAIGenFile"
 "_ZTV9DgAddressI8DgDVec2DE"
 "_ZTV9DgPolygon"
 "_ZThn112_N13DgInAIGenFile7extractER10DgLocation"
 "_ZThn112_N13DgInAIGenFile7extractER11DgLocVector"
 "_ZThn112_N13DgInAIGenFile7extractER6DgCell"
 "_ZThn112_N13DgInAIGenFile7extractER9DgLocList"
 "_ZThn112_N13DgInAIGenFile7extractER9DgPolygon"
 "_ZThn112_N13DgInAIGenFileD0Ev"
 "_ZThn112_N13DgInAIGenFileD1Ev"
 "_ZThn112_N15DgInLocTextFile5closeEv"
 "_ZThn112_N15DgInLocTextFile5isEOFEv"
 "_ZTv0_n12_N13DgInAIGenFileD0Ev"
 "_ZTv0_n12_N13DgInAIGenFileD1Ev"
 "_ZN11DgInLocFileD2Ev"
 "_ZN15DgInLocTextFile4openEPKNSt7__cxx1112basic_stringIcSt11char_traitsIcESaIcEEEN6DgBase13DgReportLevelE"
 "_ZN15DgInLocTextFile5closeEv"
 "_ZN15DgInLocTextFile5isEOFEv"
 "_ZN15DgInLocTextFileC1ERK8DgRFBasePKNSt7__cxx1112basic_stringIcSt11char_traitsIcESaIcEEEbN6DgBase13DgReportLevelE"
 "_ZN15DgInLocTextFileC2ERK8DgRFBasePKNSt7__cxx1112basic_stringIcSt11char_traitsIcESaIcEEEbN6DgBase13DgReportLevelE"
 "_ZStplIcSt11char_traitsIcESaIcEENSt7__cxx1112basic_stringIT_T0_T1_EEPKS5_RKS8_"
 "_ZTC15DgInLocTextFile0_Si"
 "_ZTC15DgInLocTextFile0_St14basic_ifstreamIcSt11char_traitsIcEE"
 "_ZTI11DgInLocFile"
 "_ZTI15DgInLocTextFile"
 "_ZTI6DgBase"
 "_ZTS11DgInLocFile"
 "_ZTS15DgInLocTextFile"
 "_ZTS6DgBase"
 "_ZTT15DgInLocTextFile"
 "_ZTV11DgInLocFile"
 "_ZTV15DgInLocTextFile"
 "_ZThn112_N15DgInLocTextFile4openEPKNSt7__cxx1112basic_stringIcSt11char_traitsIcESaIcEEEN6DgBase13DgReportLevelE"
 "_ZThn112_N15DgInLocTextFile5closeEv"
 "_ZThn112_N15DgInLocTextFile5isEOFEv"
 "_ZN11DgLocVector9convertToERK8DgRFBase"
 "_ZN13DgInShapefile13getNextEntityEv"
 "_ZN13DgInShapefile4openEPKNSt7__cxx1112basic_stringIcSt11char_traitsIcESaIcEEEN6DgBase13DgReportLevelE"
 "_ZN13DgInShapefile5closeEv"
 "_ZN13DgInShapefile5isEOFEv"
 "_ZN13DgInShapefile6rewindEv"
 "_ZN13DgInShapefile7extractER10DgLocation"
 "_ZN13DgInShapefile7extractER11DgLocVector"
 "_ZN13DgInShapefile7extractER6DgCell"
 "_ZN13DgInShapefile7extractER9DgLocList"
 "_ZN13DgInShapefile7extractER9DgPolygon"
 "_ZN13DgInShapefileC1ERK10DgGeoSphRFPKNSt7__cxx1112basic_stringIcSt11char_traitsIcESaIcEEEN6DgBase13DgReportLevelE"
 "_ZN13DgInShapefileC2ERK10DgGeoSphRFPKNSt7__cxx1112basic_stringIcSt11char_traitsIcESaIcEEEN6DgBase13DgReportLevelE"
 "_ZN13DgInShapefileD0Ev"
 "_ZN13DgInShapefileD1Ev"
 "_ZN9DgPolygonD0Ev"
 "_ZN9DgPolygonD1Ev"
 "_ZNK11DgLocVector11cardinalityEv"
 "_ZNK11DgLocVector15asAddressStringB5cxx11Ec"
 "_ZNK11DgLocVector15asAddressStringB5cxx11Ev"
 "_ZNK11DgLocVector8asStringB5cxx11Ec"
 "_ZNK11DgLocVector8asStringB5cxx11Ev"
 "_ZNSt6vectorIP13DgAddressBaseSaIS1_EE17_M_realloc_insertIJRKS1_EEEvN9__gnu_cxx17__normal_iteratorIPS1_S3_EEDpOT_"
 "_ZNSt7__cxx1112basic_stringIcSt11char_traitsIcESaIcEE12_M_constructIPKcEEvT_S8_St20forward_iterator_tag"
 "_ZStplIcSt11char_traitsIcESaIcEENSt7__cxx1112basic_stringIT_T0_T1_EEPKS5_RKS8_"
 "_ZTI11DgInLocFile"
 "_ZTI11DgLocVector"
 "_ZTI13DgInShapefile"
 "_ZTI6DgBase"
 "_ZTI9DgLocBase"
 "_ZTI9DgPolygon"
 "_ZTS11DgInLocFile"
 "_ZTS11DgLocVector"
 "_ZTS13DgInShapefile"
 "_ZTS6DgBase"
 "_ZTS9DgLocBase"
 "_ZTS9DgPolygon"
 "_ZTV11DgInLocFile"
 "_ZTV13DgInShapefile"
 "_ZTV9DgPolygon"
 "_ZN13DgInShapefile5isEOFEv"
 "_ZN16DgInShapefileAtt13getNextEntityEv"
 "_ZN16DgInShapefileAtt4openEPKNSt7__cxx1112basic_stringIcSt11char_traitsIcESaIcEEEN6DgBase13DgReportLevelE"
 "_ZN16DgInShapefileAtt5closeEv"
 "_ZN16DgInShapefileAttC1ERK10DgGeoSphRFPKNSt7__cxx1112basic_stringIcSt11char_traitsIcESaIcEEEN6DgBase13DgReportLevelE"
 "_ZN16DgInShapefileAttC2ERK10DgGeoSphRFPKNSt7__cxx1112basic_stringIcSt11char_traitsIcESaIcEEEN6DgBase13DgReportLevelE"
 "_ZN16DgInShapefileAttD0Ev"
 "_ZN16DgInShapefileAttD1Ev"
 "_ZNSt7__cxx1112basic_stringIcSt11char_traitsIcESaIcEE12_M_constructIPcEEvT_S7_St20forward_iterator_tag"
 "_ZNSt8_Rb_treeI10DgDBFfieldS0_St9_IdentityIS0_ESt4lessIS0_ESaIS0_EE16_M_insert_uniqueIRKS0_EESt4pairISt17_Rb_tree_iteratorIS0_EbEOT_"
 "_ZNSt8_Rb_treeI10DgDBFfieldS0_St9_IdentityIS0_ESt4lessIS0_ESaIS0_EE8_M_eraseEPSt13_Rb_tree_nodeIS0_E"
 "_ZStplIcSt11char_traitsIcESaIcEENSt7__cxx1112basic_stringIT_T0_T1_EEPKS5_RKS8_"
 "_ZTI11DgInLocFile"
 "_ZTI13DgInShapefile"
 "_ZTI16DgInShapefileAtt"
 "_ZTI6DgBase"
 "_ZTS11DgInLocFile"
 "_ZTS13DgInShapefile"
 "_ZTS16DgInShapefileAtt"
 "_ZTS6DgBase"
 "_ZTV11DgInLocFile"
 "_ZTV16DgInShapefileAtt"
 "_ZN13DgInputStream17defaultDirectory_B5cxx11E"
 "_ZN13DgInputStream4openENSt7__cxx1112basic_stringIcSt11char_traitsIcESaIcEEEN6DgBase13DgReportLevelE"
 "_ZN13DgInputStreamC1ERKNSt7__cxx1112basic_stringIcSt11char_traitsIcESaIcEEES7_N6DgBase13DgReportLevelE"
 "_ZN13DgInputStreamC2ERKNSt7__cxx1112basic_stringIcSt11char_traitsIcESaIcEEES7_N6DgBase13DgReportLevelE"
 "_ZN13DgInputStreamD0Ev"
 "_ZN13DgInputStreamD1Ev"
 "_ZNSt7__cxx1112basic_stringIcSt11char_traitsIcESaIcEE12_M_constructIPcEEvT_S7_St20forward_iterator_tag"
 "_ZStplIcSt11char_traitsIcESaIcEENSt7__cxx1112basic_stringIT_T0_T1_EEPKS5_RKS8_"
 "_ZTC13DgInputStream0_Si"
 "_ZTC13DgInputStream0_St14basic_ifstreamIcSt11char_traitsIcEE"
 "_ZTI13DgInputStream"
 "_ZTI6DgBase"
 "_ZTS13DgInputStream"
 "_ZTS6DgBase"
 "_ZTT13DgInputStream"
 "_ZTV13DgInputStream"
 "_ZThn112_N13DgInputStreamD0Ev"
 "_ZThn112_N13DgInputStreamD1Ev"
 "_ZTv0_n12_N13DgInputStreamD0Ev"
 "_ZTv0_n12_N13DgInputStreamD1Ev"
 "_ZN9DgLocBaseD0Ev"
 "_ZN9DgLocBaseD1Ev"
 "_ZN9DgLocBaseD2Ev"
 "_ZNK9DgLocBase11cardinalityEv"
 "_ZTI9DgLocBase"
 "_ZTS9DgLocBase"
 "_ZTV9DgLocBase"
 "_ZN9DgLocList10fromStringEPKcc"
 "_ZN9DgLocList12clearAddressEv"
 "_ZN9DgLocList7destroyEv"
 "_ZN9DgLocList9convertToERK8DgRFBase"
 "_ZN9DgLocList9push_backEP9DgLocBase"
 "_ZN9DgLocListD0Ev"
 "_ZN9DgLocListD1Ev"
 "_ZN9DgLocListD2Ev"
 "_ZN9DgLocListaSERKS_"
 "_ZNK8DgRFBaseeqERKS_"
 "_ZNK8DgRFBaseneERKS_"
 "_ZNK9DgLocList11cardinalityEv"
 "_ZNK9DgLocList15asAddressStringB5cxx11Ec"
 "_ZNK9DgLocList15asAddressStringB5cxx11Ev"
 "_ZNK9DgLocList8asStringB5cxx11Ec"
 "_ZNK9DgLocList8asStringB5cxx11Ev"
 "_ZTI9DgLocBase"
 "_ZTI9DgLocList"
 "_ZTINSt7__cxx1110_List_baseIP9DgLocBaseSaIS2_EEE"
 "_ZTINSt7__cxx114listIP9DgLocBaseSaIS2_EEE"
 "_ZTS9DgLocBase"
 "_ZTS9DgLocList"
 "_ZTSNSt7__cxx1110_List_baseIP9DgLocBaseSaIS2_EEE"
 "_ZTSNSt7__cxx114listIP9DgLocBaseSaIS2_EEE"
 "_ZTV9DgLocList"
 "_ZlsRSoRK9DgLocList"
 "_ZN11DgLocVector10fromStringEPKcc"
 "_ZN11DgLocVector12clearAddressEv"
 "_ZN11DgLocVector6setLocEiRK10DgLocationb"
 "_ZN11DgLocVector9convertToERK8DgRFBase"
 "_ZN11DgLocVector9push_backERK10DgLocationb"
 "_ZN11DgLocVectorC1ERK8DgRFBasei"
 "_ZN11DgLocVectorC2ERK8DgRFBasei"
 "_ZN11DgLocVectorD0Ev"
 "_ZN11DgLocVectorD1Ev"
 "_ZNK11DgLocVector11cardinalityEv"
 "_ZNK11DgLocVector15asAddressStringB5cxx11Ec"
 "_ZNK11DgLocVector15asAddressStringB5cxx11Ev"
 "_ZNK11DgLocVector8asStringB5cxx11Ec"
 "_ZNK11DgLocVector8asStringB5cxx11Ev"
 "_ZNK11DgLocVectoreqERKS_"
 "_ZNK8DgRFBaseeqERKS_"
 "_ZNK8DgRFBaseneERKS_"
 "_ZNSt6vectorIP13DgAddressBaseSaIS1_EE14_M_fill_insertEN9__gnu_cxx17__normal_iteratorIPS1_S3_EEjRKS1_"
 "_ZNSt6vectorIP13DgAddressBaseSaIS1_EE17_M_default_appendEj"
 "_ZNSt6vectorIP13DgAddressBaseSaIS1_EE17_M_realloc_insertIJRKS1_EEEvN9__gnu_cxx17__normal_iteratorIPS1_S3_EEDpOT_"
 "_ZTI11DgLocVector"
 "_ZTI9DgLocBase"
 "_ZTS11DgLocVector"
 "_ZTS9DgLocBase"
 "_ZTV11DgLocVector"
 "_ZN10DgLocation10fromStringEPKcc"
 "_ZN10DgLocation12clearAddressEv"
 "_ZN10DgLocation9convertToERK8DgRFBase"
 "_ZN10DgLocationD0Ev"
 "_ZN10DgLocationD1Ev"
 "_ZN10DgLocationD2Ev"
 "_ZNK10DgLocation15asAddressStringB5cxx11Ec"
 "_ZNK10DgLocation15asAddressStringB5cxx11Ev"
 "_ZNK10DgLocation8asStringB5cxx11Ec"
 "_ZNK10DgLocation8asStringB5cxx11Ev"
 "_ZNK9DgLocBase11cardinalityEv"
 "_ZTI10DgLocation"
 "_ZTI9DgLocBase"
 "_ZTS10DgLocation"
 "_ZTS9DgLocBase"
 "_ZTV10DgLocation"
 "_ZN14DgOutAIGenFile12setFormatStrEv"
 "_ZN14DgOutAIGenFile5closeEv"
 "_ZN14DgOutAIGenFile6insertER10DgLocationPKNSt7__cxx1112basic_stringIcSt11char_traitsIcESaIcEEE"
 "_ZN14DgOutAIGenFile6insertER11DgLocVectorPKNSt7__cxx1112basic_stringIcSt11char_traitsIcESaIcEEEPK10DgLocation"
 "_ZN14DgOutAIGenFile6insertER9DgPolygonPKNSt7__cxx1112basic_stringIcSt11char_traitsIcESaIcEEEPK10DgLocation"
 "_ZN14DgOutAIGenFile6insertERK8DgDVec2D"
 "_ZN14DgOutAIGenFileC1ERK8DgRFBaseRKNSt7__cxx1112basic_stringIcSt11char_traitsIcESaIcEEEibN6DgBase13DgReportLevelE"
 "_ZN14DgOutAIGenFileC2ERK8DgRFBaseRKNSt7__cxx1112basic_stringIcSt11char_traitsIcESaIcEEEibN6DgBase13DgReportLevelE"
 "_ZN14DgOutAIGenFileD0Ev"
 "_ZN14DgOutAIGenFileD1Ev"
 "_ZN14DgOutputStream5closeEv"
 "_ZN14DgOutputStreamD0Ev"
 "_ZN14DgOutputStreamD1Ev"
 "_ZN16DgOutLocTextFile4openERKNSt7__cxx1112basic_stringIcSt11char_traitsIcESaIcEEEN6DgBase13DgReportLevelE"
 "_ZN16DgOutLocTextFile5closeEv"
 "_ZN16DgOutLocTextFileD2Ev"
 "_ZNK8DgRFBase10vecAddressERK8DgDVec2D"
 "_ZNK8DgRFBase13getVecAddressERK13DgAddressBase"
 "_ZNK8DgRFBase14getVecLocationERK10DgLocation"
 "_ZNKSt5ctypeIcE8do_widenEc"
 "_ZNSt7__cxx1112basic_stringIcSt11char_traitsIcESaIcEE12_M_constructIPKcEEvT_S8_St20forward_iterator_tag"
 "_ZNSt7__cxx1112basic_stringIcSt11char_traitsIcESaIcEE12_M_constructIPcEEvT_S7_St20forward_iterator_tag"
 "_ZNSt7__cxx1115basic_stringbufIcSt11char_traitsIcESaIcEED1Ev"
 "_ZTC14DgOutAIGenFile0_14DgOutputStream"
 "_ZTC14DgOutAIGenFile0_16DgOutLocTextFile"
 "_ZTC14DgOutAIGenFile0_So"
 "_ZTC14DgOutAIGenFile0_St14basic_ofstreamIcSt11char_traitsIcEE"
 "_ZTC14DgOutputStream0_So"
 "_ZTC14DgOutputStream0_St14basic_ofstreamIcSt11char_traitsIcEE"
 "_ZTC16DgOutLocTextFile0_14DgOutputStream"
 "_ZTC16DgOutLocTextFile0_So"
 "_ZTC16DgOutLocTextFile0_St14basic_ofstreamIcSt11char_traitsIcEE"
 "_ZTI12DgOutLocFile"
 "_ZTI14DgOutAIGenFile"
 "_ZTI14DgOutputStream"
 "_ZTI16DgOutLocTextFile"
 "_ZTI6DgBase"
 "_ZTS12DgOutLocFile"
 "_ZTS14DgOutAIGenFile"
 "_ZTS14DgOutputStream"
 "_ZTS16DgOutLocTextFile"
 "_ZTS6DgBase"
 "_ZTT14DgOutAIGenFile"
 "_ZTT14DgOutputStream"
 "_ZTT16DgOutLocTextFile"
 "_ZTV14DgOutAIGenFile"
 "_ZTV14DgOutputStream"
 "_ZTV16DgOutLocTextFile"
 "_ZThn108_N14DgOutAIGenFileD0Ev"
 "_ZThn108_N14DgOutAIGenFileD1Ev"
 "_ZThn108_N14DgOutputStreamD0Ev"
 "_ZThn108_N14DgOutputStreamD1Ev"
 "_ZThn184_N14DgOutAIGenFile5closeEv"
 "_ZThn184_N14DgOutAIGenFile6insertER10DgLocationPKNSt7__cxx1112basic_stringIcSt11char_traitsIcESaIcEEE"
 "_ZThn184_N14DgOutAIGenFile6insertER11DgLocVectorPKNSt7__cxx1112basic_stringIcSt11char_traitsIcESaIcEEEPK10DgLocation"
 "_ZThn184_N14DgOutAIGenFile6insertER9DgPolygonPKNSt7__cxx1112basic_stringIcSt11char_traitsIcESaIcEEEPK10DgLocation"
 "_ZThn184_N14DgOutAIGenFileD0Ev"
 "_ZThn184_N14DgOutAIGenFileD1Ev"
 "_ZThn184_N16DgOutLocTextFile4openERKNSt7__cxx1112basic_stringIcSt11char_traitsIcESaIcEEEN6DgBase13DgReportLevelE"
 "_ZThn184_N16DgOutLocTextFile5closeEv"
 "_ZTv0_n12_N14DgOutAIGenFileD0Ev"
 "_ZTv0_n12_N14DgOutAIGenFileD1Ev"
 "_ZTv0_n12_N14DgOutputStreamD0Ev"
 "_ZTv0_n12_N14DgOutputStreamD1Ev"
 "_ZN14DgOutputStream5closeEv"
 "_ZN14DgOutputStreamD0Ev"
 "_ZN14DgOutputStreamD1Ev"
 "_ZN16DgOutGeoJSONFile12setFormatStrEv"
 "_ZN16DgOutGeoJSONFile5closeEv"
 "_ZN16DgOutGeoJSONFile6insertER10DgLocationPKNSt7__cxx1112basic_stringIcSt11char_traitsIcESaIcEEE"
 "_ZN16DgOutGeoJSONFile6insertER11DgLocVectorPKNSt7__cxx1112basic_stringIcSt11char_traitsIcESaIcEEEPK10DgLocation"
 "_ZN16DgOutGeoJSONFile6insertER9DgPolygonPKNSt7__cxx1112basic_stringIcSt11char_traitsIcESaIcEEEPK10DgLocation"
 "_ZN16DgOutGeoJSONFile6insertERK8DgDVec2D"
 "_ZN16DgOutGeoJSONFile8preambleEv"
 "_ZN16DgOutGeoJSONFile9postambleEv"
 "_ZN16DgOutGeoJSONFileC1ERK13DgGeoSphDegRFRKNSt7__cxx1112basic_stringIcSt11char_traitsIcESaIcEEEibN6DgBase13DgReportLevelE"
 "_ZN16DgOutGeoJSONFileC2ERK13DgGeoSphDegRFRKNSt7__cxx1112basic_stringIcSt11char_traitsIcESaIcEEEibN6DgBase13DgReportLevelE"
 "_ZN16DgOutGeoJSONFileD0Ev"
 "_ZN16DgOutGeoJSONFileD1Ev"
 "_ZN16DgOutGeoJSONFileD2Ev"
 "_ZN16DgOutLocTextFile4openERKNSt7__cxx1112basic_stringIcSt11char_traitsIcESaIcEEEN6DgBase13DgReportLevelE"
 "_ZN16DgOutLocTextFile5closeEv"
 "_ZN16DgOutLocTextFileD2Ev"
 "_ZN9DgAddressI8DgDVec2DED0Ev"
 "_ZN9DgAddressI8DgDVec2DED1Ev"
 "_ZNK12DgContCartRF10vecAddressERK8DgDVec2D"
 "_ZNK9DgAddressI8DgDVec2DE7writeToERSo"
 "_ZNSt7__cxx1112basic_stringIcSt11char_traitsIcESaIcEE12_M_constructIPKcEEvT_S8_St20forward_iterator_tag"
 "_ZNSt7__cxx1112basic_stringIcSt11char_traitsIcESaIcEE12_M_constructIPcEEvT_S7_St20forward_iterator_tag"
 "_ZNSt7__cxx1115basic_stringbufIcSt11char_traitsIcESaIcEED1Ev"
 "_ZTC14DgOutputStream0_So"
 "_ZTC14DgOutputStream0_St14basic_ofstreamIcSt11char_traitsIcEE"
 "_ZTC16DgOutGeoJSONFile0_14DgOutputStream"
 "_ZTC16DgOutGeoJSONFile0_16DgOutLocTextFile"
 "_ZTC16DgOutGeoJSONFile0_So"
 "_ZTC16DgOutGeoJSONFile0_St14basic_ofstreamIcSt11char_traitsIcEE"
 "_ZTC16DgOutLocTextFile0_14DgOutputStream"
 "_ZTC16DgOutLocTextFile0_So"
 "_ZTC16DgOutLocTextFile0_St14basic_ofstreamIcSt11char_traitsIcEE"
 "_ZTI12DgOutLocFile"
 "_ZTI13DgAddressBase"
 "_ZTI14DgOutputStream"
 "_ZTI16DgOutGeoJSONFile"
 "_ZTI16DgOutLocTextFile"
 "_ZTI6DgBase"
 "_ZTI9DgAddressI8DgDVec2DE"
 "_ZTS12DgOutLocFile"
 "_ZTS13DgAddressBase"
 "_ZTS14DgOutputStream"
 "_ZTS16DgOutGeoJSONFile"
 "_ZTS16DgOutLocTextFile"
 "_ZTS6DgBase"
 "_ZTS9DgAddressI8DgDVec2DE"
 "_ZTT14DgOutputStream"
 "_ZTT16DgOutGeoJSONFile"
 "_ZTT16DgOutLocTextFile"
 "_ZTV14DgOutputStream"
 "_ZTV16DgOutGeoJSONFile"
 "_ZTV16DgOutLocTextFile"
 "_ZTV9DgAddressI8DgDVec2DE"
 "_ZThn108_N14DgOutputStreamD0Ev"
 "_ZThn108_N14DgOutputStreamD1Ev"
 "_ZThn108_N16DgOutGeoJSONFileD0Ev"
 "_ZThn108_N16DgOutGeoJSONFileD1Ev"
 "_ZThn184_N16DgOutGeoJSONFile5closeEv"
 "_ZThn184_N16DgOutGeoJSONFile6insertER10DgLocationPKNSt7__cxx1112basic_stringIcSt11char_traitsIcESaIcEEE"
 "_ZThn184_N16DgOutGeoJSONFile6insertER11DgLocVectorPKNSt7__cxx1112basic_stringIcSt11char_traitsIcESaIcEEEPK10DgLocation"
 "_ZThn184_N16DgOutGeoJSONFile6insertER9DgPolygonPKNSt7__cxx1112basic_stringIcSt11char_traitsIcESaIcEEEPK10DgLocation"
 "_ZThn184_N16DgOutGeoJSONFileD0Ev"
 "_ZThn184_N16DgOutGeoJSONFileD1Ev"
 "_ZThn184_N16DgOutLocTextFile4openERKNSt7__cxx1112basic_stringIcSt11char_traitsIcESaIcEEEN6DgBase13DgReportLevelE"
 "_ZThn184_N16DgOutLocTextFile5closeEv"
 "_ZTv0_n12_N14DgOutputStreamD0Ev"
 "_ZTv0_n12_N14DgOutputStreamD1Ev"
 "_ZTv0_n12_N16DgOutGeoJSONFileD0Ev"
 "_ZTv0_n12_N16DgOutGeoJSONFileD1Ev"
 "_ZN12DgOutKMLfile12setFormatStrEv"
 "_ZN12DgOutKMLfile14setDescriptionERKNSt7__cxx1112basic_stringIcSt11char_traitsIcESaIcEEE"
 "_ZN12DgOutKMLfile5closeEv"
 "_ZN12DgOutKMLfile6insertER10DgLocationPKNSt7__cxx1112basic_stringIcSt11char_traitsIcESaIcEEE"
 "_ZN12DgOutKMLfile6insertER11DgLocVectorPKNSt7__cxx1112basic_stringIcSt11char_traitsIcESaIcEEEPK10DgLocation"
 "_ZN12DgOutKMLfile6insertER9DgPolygonPKNSt7__cxx1112basic_stringIcSt11char_traitsIcESaIcEEEPK10DgLocation"
 "_ZN12DgOutKMLfile6insertERK8DgDVec2D"
 "_ZN12DgOutKMLfile7setNameERKNSt7__cxx1112basic_stringIcSt11char_traitsIcESaIcEEE"
 "_ZN12DgOutKMLfile8preambleEv"
 "_ZN12DgOutKMLfile8setColorERKNSt7__cxx1112basic_stringIcSt11char_traitsIcESaIcEEE"
 "_ZN12DgOutKMLfile8setWidthEi"
 "_ZN12DgOutKMLfile9postambleEv"
 "_ZN12DgOutKMLfileC1ERK13DgGeoSphDegRFRKNSt7__cxx1112basic_stringIcSt11char_traitsIcESaIcEEEibSA_iSA_SA_N6DgBase13DgReportLevelE"
 "_ZN12DgOutKMLfileC2ERK13DgGeoSphDegRFRKNSt7__cxx1112basic_stringIcSt11char_traitsIcESaIcEEEibSA_iSA_SA_N6DgBase13DgReportLevelE"
 "_ZN12DgOutKMLfileD0Ev"
 "_ZN12DgOutKMLfileD1Ev"
 "_ZN12DgOutKMLfileD2Ev"
 "_ZN14DgOutputStream5closeEv"
 "_ZN14DgOutputStreamD0Ev"
 "_ZN14DgOutputStreamD1Ev"
 "_ZN16DgOutLocTextFile4openERKNSt7__cxx1112basic_stringIcSt11char_traitsIcESaIcEEEN6DgBase13DgReportLevelE"
 "_ZN16DgOutLocTextFile5closeEv"
 "_ZN16DgOutLocTextFileD2Ev"
 "_ZN9DgAddressI8DgDVec2DED0Ev"
 "_ZN9DgAddressI8DgDVec2DED1Ev"
 "_ZNK12DgContCartRF10vecAddressERK8DgDVec2D"
 "_ZNK9DgAddressI8DgDVec2DE7writeToERSo"
 "_ZNSt7__cxx1112basic_stringIcSt11char_traitsIcESaIcEE12_M_constructIPKcEEvT_S8_St20forward_iterator_tag"
 "_ZNSt7__cxx1112basic_stringIcSt11char_traitsIcESaIcEE12_M_constructIPcEEvT_S7_St20forward_iterator_tag"
 "_ZNSt7__cxx1115basic_stringbufIcSt11char_traitsIcESaIcEED1Ev"
 "_ZStplIcSt11char_traitsIcESaIcEENSt7__cxx1112basic_stringIT_T0_T1_EEPKS5_RKS8_"
 "_ZTC12DgOutKMLfile0_14DgOutputStream"
 "_ZTC12DgOutKMLfile0_16DgOutLocTextFile"
 "_ZTC12DgOutKMLfile0_So"
 "_ZTC12DgOutKMLfile0_St14basic_ofstreamIcSt11char_traitsIcEE"
 "_ZTC14DgOutputStream0_So"
 "_ZTC14DgOutputStream0_St14basic_ofstreamIcSt11char_traitsIcEE"
 "_ZTC16DgOutLocTextFile0_14DgOutputStream"
 "_ZTC16DgOutLocTextFile0_So"
 "_ZTC16DgOutLocTextFile0_St14basic_ofstreamIcSt11char_traitsIcEE"
 "_ZTI12DgOutKMLfile"
 "_ZTI12DgOutLocFile"
 "_ZTI13DgAddressBase"
 "_ZTI14DgOutputStream"
 "_ZTI16DgOutLocTextFile"
 "_ZTI6DgBase"
 "_ZTI9DgAddressI8DgDVec2DE"
 "_ZTS12DgOutKMLfile"
 "_ZTS12DgOutLocFile"
 "_ZTS13DgAddressBase"
 "_ZTS14DgOutputStream"
 "_ZTS16DgOutLocTextFile"
 "_ZTS6DgBase"
 "_ZTS9DgAddressI8DgDVec2DE"
 "_ZTT12DgOutKMLfile"
 "_ZTT14DgOutputStream"
 "_ZTT16DgOutLocTextFile"
 "_ZTV12DgOutKMLfile"
 "_ZTV14DgOutputStream"
 "_ZTV16DgOutLocTextFile"
 "_ZTV9DgAddressI8DgDVec2DE"
 "_ZThn108_N12DgOutKMLfileD0Ev"
 "_ZThn108_N12DgOutKMLfileD1Ev"
 "_ZThn108_N14DgOutputStreamD0Ev"
 "_ZThn108_N14DgOutputStreamD1Ev"
 "_ZThn184_N12DgOutKMLfile5closeEv"
 "_ZThn184_N12DgOutKMLfile6insertER10DgLocationPKNSt7__cxx1112basic_stringIcSt11char_traitsIcESaIcEEE"
 "_ZThn184_N12DgOutKMLfile6insertER11DgLocVectorPKNSt7__cxx1112basic_stringIcSt11char_traitsIcESaIcEEEPK10DgLocation"
 "_ZThn184_N12DgOutKMLfile6insertER9DgPolygonPKNSt7__cxx1112basic_stringIcSt11char_traitsIcESaIcEEEPK10DgLocation"
 "_ZThn184_N12DgOutKMLfileD0Ev"
 "_ZThn184_N12DgOutKMLfileD1Ev"
 "_ZThn184_N16DgOutLocTextFile4openERKNSt7__cxx1112basic_stringIcSt11char_traitsIcESaIcEEEN6DgBase13DgReportLevelE"
 "_ZThn184_N16DgOutLocTextFile5closeEv"
 "_ZTv0_n12_N12DgOutKMLfileD0Ev"
 "_ZTv0_n12_N12DgOutKMLfileD1Ev"
 "_ZTv0_n12_N14DgOutputStreamD0Ev"
 "_ZTv0_n12_N14DgOutputStreamD1Ev"
 "_ZN12DgOutLocFile14defaultKMLNameB5cxx11E"
 "_ZN12DgOutLocFile14makeOutLocFileERKNSt7__cxx1112basic_stringIcSt11char_traitsIcESaIcEEES7_RK8DgRFBasebiiS7_iS7_S7_N6DgBase13DgReportLevelE"
 "_ZN12DgOutLocFile15defaultKMLColorB5cxx11E"
 "_ZN12DgOutLocFile15defaultKMLWidthE"
 "_ZN12DgOutLocFile21defaultKMLDescriptionB5cxx11E"
 "_ZN12DgOutLocFile6insertER6DgCell"
 "_ZN12DgOutLocFile6insertER9DgLocList"
 "_ZN12DgOutLocFileD0Ev"
 "_ZN12DgOutLocFileD1Ev"
 "_ZN12DgOutLocFileD2Ev"
 "_ZTI10DgLocation"
 "_ZTI11DgLocVector"
 "_ZTI12DgContCartRF"
 "_ZTI12DgOutLocFile"
 "_ZTI13DgGeoSphDegRF"
 "_ZTI4DgRFI8DgDVec2DeE"
 "_ZTI6DgBase"
 "_ZTI6DgCell"
 "_ZTI8DgRFBase"
 "_ZTI9DgLocBase"
 "_ZTI9DgLocList"
 "_ZTI9DgPolygon"
 "_ZTINSt7__cxx1110_List_baseIP9DgLocBaseSaIS2_EEE"
 "_ZTINSt7__cxx114listIP9DgLocBaseSaIS2_EEE"
 "_ZTS10DgLocation"
 "_ZTS11DgLocVector"
 "_ZTS12DgContCartRF"
 "_ZTS12DgOutLocFile"
 "_ZTS13DgGeoSphDegRF"
 "_ZTS4DgRFI8DgDVec2DeE"
 "_ZTS6DgBase"
 "_ZTS6DgCell"
 "_ZTS8DgRFBase"
 "_ZTS9DgLocBase"
 "_ZTS9DgLocList"
 "_ZTS9DgPolygon"
 "_ZTSNSt7__cxx1110_List_baseIP9DgLocBaseSaIS2_EEE"
 "_ZTSNSt7__cxx114listIP9DgLocBaseSaIS2_EEE"
 "_ZTV12DgOutLocFile"
 "_ZN14DgOutputStream5closeEv"
 "_ZN14DgOutputStreamD0Ev"
 "_ZN14DgOutputStreamD1Ev"
 "_ZN14DgOutputStreamD2Ev"
 "_ZN16DgOutLocTextFile4openERKNSt7__cxx1112basic_stringIcSt11char_traitsIcESaIcEEEN6DgBase13DgReportLevelE"
 "_ZN16DgOutLocTextFile5closeEv"
 "_ZN16DgOutLocTextFileC1ERKNSt7__cxx1112basic_stringIcSt11char_traitsIcESaIcEEERK8DgRFBasebS7_iN6DgBase13DgReportLevelE"
 "_ZN16DgOutLocTextFileC2ERKNSt7__cxx1112basic_stringIcSt11char_traitsIcESaIcEEERK8DgRFBasebS7_iN6DgBase13DgReportLevelE"
 "_ZNSt7__cxx1112basic_stringIcSt11char_traitsIcESaIcEE12_M_constructIPcEEvT_S7_St20forward_iterator_tag"
 "_ZStplIcSt11char_traitsIcESaIcEENSt7__cxx1112basic_stringIT_T0_T1_EEPKS5_RKS8_"
 "_ZTC14DgOutputStream0_So"
 "_ZTC14DgOutputStream0_St14basic_ofstreamIcSt11char_traitsIcEE"
 "_ZTC16DgOutLocTextFile0_14DgOutputStream"
 "_ZTC16DgOutLocTextFile0_So"
 "_ZTC16DgOutLocTextFile0_St14basic_ofstreamIcSt11char_traitsIcEE"
 "_ZTI12DgOutLocFile"
 "_ZTI14DgOutputStream"
 "_ZTI16DgOutLocTextFile"
 "_ZTI6DgBase"
 "_ZTS12DgOutLocFile"
 "_ZTS14DgOutputStream"
 "_ZTS16DgOutLocTextFile"
 "_ZTS6DgBase"
 "_ZTT14DgOutputStream"
 "_ZTT16DgOutLocTextFile"
 "_ZTV14DgOutputStream"
 "_ZTV16DgOutLocTextFile"
 "_ZThn108_N14DgOutputStreamD0Ev"
 "_ZThn108_N14DgOutputStreamD1Ev"
 "_ZThn184_N16DgOutLocTextFile4openERKNSt7__cxx1112basic_stringIcSt11char_traitsIcESaIcEEEN6DgBase13DgReportLevelE"
 "_ZThn184_N16DgOutLocTextFile5closeEv"
 "_ZTv0_n12_N14DgOutputStreamD0Ev"
 "_ZTv0_n12_N14DgOutputStreamD1Ev"
 "_ZN12DgOutPtsText12setFormatStrEv"
 "_ZN12DgOutPtsText5closeEv"
 "_ZN12DgOutPtsText6insertER10DgLocationPKNSt7__cxx1112basic_stringIcSt11char_traitsIcESaIcEEE"
 "_ZN12DgOutPtsText6insertER11DgLocVectorPKNSt7__cxx1112basic_stringIcSt11char_traitsIcESaIcEEEPK10DgLocation"
 "_ZN12DgOutPtsText6insertER9DgPolygonPKNSt7__cxx1112basic_stringIcSt11char_traitsIcESaIcEEEPK10DgLocation"
 "_ZN12DgOutPtsText6insertERK8DgDVec2D"
 "_ZN12DgOutPtsTextC1ERK8DgRFBaseRKNSt7__cxx1112basic_stringIcSt11char_traitsIcESaIcEEEiN6DgBase13DgReportLevelE"
 "_ZN12DgOutPtsTextC2ERK8DgRFBaseRKNSt7__cxx1112basic_stringIcSt11char_traitsIcESaIcEEEiN6DgBase13DgReportLevelE"
 "_ZN12DgOutPtsTextD0Ev"
 "_ZN12DgOutPtsTextD1Ev"
 "_ZN14DgOutputStream5closeEv"
 "_ZN14DgOutputStreamD0Ev"
 "_ZN14DgOutputStreamD1Ev"
 "_ZN16DgOutLocTextFile4openERKNSt7__cxx1112basic_stringIcSt11char_traitsIcESaIcEEEN6DgBase13DgReportLevelE"
 "_ZN16DgOutLocTextFile5closeEv"
 "_ZN16DgOutLocTextFileD2Ev"
 "_ZNK8DgRFBase10vecAddressERK8DgDVec2D"
 "_ZNK8DgRFBase14getVecLocationERK10DgLocation"
 "_ZNKSt5ctypeIcE8do_widenEc"
 "_ZNSt7__cxx1112basic_stringIcSt11char_traitsIcESaIcEE12_M_constructIPKcEEvT_S8_St20forward_iterator_tag"
 "_ZNSt7__cxx1112basic_stringIcSt11char_traitsIcESaIcEE12_M_constructIPcEEvT_S7_St20forward_iterator_tag"
 "_ZNSt7__cxx1115basic_stringbufIcSt11char_traitsIcESaIcEED1Ev"
 "_ZTC12DgOutPtsText0_14DgOutputStream"
 "_ZTC12DgOutPtsText0_16DgOutLocTextFile"
 "_ZTC12DgOutPtsText0_So"
 "_ZTC12DgOutPtsText0_St14basic_ofstreamIcSt11char_traitsIcEE"
 "_ZTC14DgOutputStream0_So"
 "_ZTC14DgOutputStream0_St14basic_ofstreamIcSt11char_traitsIcEE"
 "_ZTC16DgOutLocTextFile0_14DgOutputStream"
 "_ZTC16DgOutLocTextFile0_So"
 "_ZTC16DgOutLocTextFile0_St14basic_ofstreamIcSt11char_traitsIcEE"
 "_ZTI12DgOutLocFile"
 "_ZTI12DgOutPtsText"
 "_ZTI14DgOutputStream"
 "_ZTI16DgOutLocTextFile"
 "_ZTI6DgBase"
 "_ZTS12DgOutLocFile"
 "_ZTS12DgOutPtsText"
 "_ZTS14DgOutputStream"
 "_ZTS16DgOutLocTextFile"
 "_ZTS6DgBase"
 "_ZTT12DgOutPtsText"
 "_ZTT14DgOutputStream"
 "_ZTT16DgOutLocTextFile"
 "_ZTV12DgOutPtsText"
 "_ZTV14DgOutputStream"
 "_ZTV16DgOutLocTextFile"
 "_ZThn108_N12DgOutPtsTextD0Ev"
 "_ZThn108_N12DgOutPtsTextD1Ev"
 "_ZThn108_N14DgOutputStreamD0Ev"
 "_ZThn108_N14DgOutputStreamD1Ev"
 "_ZThn184_N12DgOutPtsText5closeEv"
 "_ZThn184_N12DgOutPtsText6insertER10DgLocationPKNSt7__cxx1112basic_stringIcSt11char_traitsIcESaIcEEE"
 "_ZThn184_N12DgOutPtsText6insertER11DgLocVectorPKNSt7__cxx1112basic_stringIcSt11char_traitsIcESaIcEEEPK10DgLocation"
 "_ZThn184_N12DgOutPtsText6insertER9DgPolygonPKNSt7__cxx1112basic_stringIcSt11char_traitsIcESaIcEEEPK10DgLocation"
 "_ZThn184_N12DgOutPtsTextD0Ev"
 "_ZThn184_N12DgOutPtsTextD1Ev"
 "_ZThn184_N16DgOutLocTextFile4openERKNSt7__cxx1112basic_stringIcSt11char_traitsIcESaIcEEEN6DgBase13DgReportLevelE"
 "_ZThn184_N16DgOutLocTextFile5closeEv"
 "_ZTv0_n12_N12DgOutPtsTextD0Ev"
 "_ZTv0_n12_N12DgOutPtsTextD1Ev"
 "_ZTv0_n12_N14DgOutputStreamD0Ev"
 "_ZTv0_n12_N14DgOutputStreamD1Ev"
 "_ZN14DgOutputStream5closeEv"
 "_ZN14DgOutputStreamD0Ev"
 "_ZN14DgOutputStreamD1Ev"
 "_ZN16DgOutLocTextFile4openERKNSt7__cxx1112basic_stringIcSt11char_traitsIcESaIcEEEN6DgBase13DgReportLevelE"
 "_ZN16DgOutLocTextFile5closeEv"
 "_ZN16DgOutLocTextFileD2Ev"
 "_ZN16DgOutRandPtsText12setFormatStrEv"
 "_ZN16DgOutRandPtsText5closeEv"
 "_ZN16DgOutRandPtsText6insertER10DgLocationPKNSt7__cxx1112basic_stringIcSt11char_traitsIcESaIcEEE"
 "_ZN16DgOutRandPtsText6insertER11DgLocVectorPKNSt7__cxx1112basic_stringIcSt11char_traitsIcESaIcEEEPK10DgLocation"
 "_ZN16DgOutRandPtsText6insertER9DgPolygonPKNSt7__cxx1112basic_stringIcSt11char_traitsIcESaIcEEEPK10DgLocation"
 "_ZN16DgOutRandPtsText6insertERK8DgDVec2D"
 "_ZN16DgOutRandPtsTextC1ERK8DgRFBaseRKNSt7__cxx1112basic_stringIcSt11char_traitsIcESaIcEEEiN6DgBase13DgReportLevelE"
 "_ZN16DgOutRandPtsTextC2ERK8DgRFBaseRKNSt7__cxx1112basic_stringIcSt11char_traitsIcESaIcEEEiN6DgBase13DgReportLevelE"
 "_ZN16DgOutRandPtsTextD0Ev"
 "_ZN16DgOutRandPtsTextD1Ev"
 "_ZNK8DgRFBase10vecAddressERK8DgDVec2D"
 "_ZNK8DgRFBase14getVecLocationERK10DgLocation"
 "_ZNKSt5ctypeIcE8do_widenEc"
 "_ZNSt7__cxx1112basic_stringIcSt11char_traitsIcESaIcEE12_M_constructIPKcEEvT_S8_St20forward_iterator_tag"
 "_ZNSt7__cxx1112basic_stringIcSt11char_traitsIcESaIcEE12_M_constructIPcEEvT_S7_St20forward_iterator_tag"
 "_ZNSt7__cxx1115basic_stringbufIcSt11char_traitsIcESaIcEED1Ev"
 "_ZTC14DgOutputStream0_So"
 "_ZTC14DgOutputStream0_St14basic_ofstreamIcSt11char_traitsIcEE"
 "_ZTC16DgOutLocTextFile0_14DgOutputStream"
 "_ZTC16DgOutLocTextFile0_So"
 "_ZTC16DgOutLocTextFile0_St14basic_ofstreamIcSt11char_traitsIcEE"
 "_ZTC16DgOutRandPtsText0_14DgOutputStream"
 "_ZTC16DgOutRandPtsText0_16DgOutLocTextFile"
 "_ZTC16DgOutRandPtsText0_So"
 "_ZTC16DgOutRandPtsText0_St14basic_ofstreamIcSt11char_traitsIcEE"
 "_ZTI12DgOutLocFile"
 "_ZTI14DgOutputStream"
 "_ZTI16DgOutLocTextFile"
 "_ZTI16DgOutRandPtsText"
 "_ZTI6DgBase"
 "_ZTS12DgOutLocFile"
 "_ZTS14DgOutputStream"
 "_ZTS16DgOutLocTextFile"
 "_ZTS16DgOutRandPtsText"
 "_ZTS6DgBase"
 "_ZTT14DgOutputStream"
 "_ZTT16DgOutLocTextFile"
 "_ZTT16DgOutRandPtsText"
 "_ZTV14DgOutputStream"
 "_ZTV16DgOutLocTextFile"
 "_ZTV16DgOutRandPtsText"
 "_ZThn108_N14DgOutputStreamD0Ev"
 "_ZThn108_N14DgOutputStreamD1Ev"
 "_ZThn108_N16DgOutRandPtsTextD0Ev"
 "_ZThn108_N16DgOutRandPtsTextD1Ev"
 "_ZThn184_N16DgOutLocTextFile4openERKNSt7__cxx1112basic_stringIcSt11char_traitsIcESaIcEEEN6DgBase13DgReportLevelE"
 "_ZThn184_N16DgOutLocTextFile5closeEv"
 "_ZThn184_N16DgOutRandPtsText5closeEv"
 "_ZThn184_N16DgOutRandPtsText6insertER10DgLocationPKNSt7__cxx1112basic_stringIcSt11char_traitsIcESaIcEEE"
 "_ZThn184_N16DgOutRandPtsText6insertER11DgLocVectorPKNSt7__cxx1112basic_stringIcSt11char_traitsIcESaIcEEEPK10DgLocation"
 "_ZThn184_N16DgOutRandPtsText6insertER9DgPolygonPKNSt7__cxx1112basic_stringIcSt11char_traitsIcESaIcEEEPK10DgLocation"
 "_ZThn184_N16DgOutRandPtsTextD0Ev"
 "_ZThn184_N16DgOutRandPtsTextD1Ev"
 "_ZTv0_n12_N14DgOutputStreamD0Ev"
 "_ZTv0_n12_N14DgOutputStreamD1Ev"
 "_ZTv0_n12_N16DgOutRandPtsTextD0Ev"
 "_ZTv0_n12_N16DgOutRandPtsTextD1Ev"
 "_ZN14DgOutShapefile4openERKNSt7__cxx1112basic_stringIcSt11char_traitsIcESaIcEEEN6DgBase13DgReportLevelE"
 "_ZN14DgOutShapefile5closeEv"
 "_ZN14DgOutShapefile6insertER10DgLocationPKNSt7__cxx1112basic_stringIcSt11char_traitsIcESaIcEEE"
 "_ZN14DgOutShapefile6insertER11DgLocVectorPKNSt7__cxx1112basic_stringIcSt11char_traitsIcESaIcEEEPK10DgLocation"
 "_ZN14DgOutShapefile6insertER9DgPolygonPKNSt7__cxx1112basic_stringIcSt11char_traitsIcESaIcEEEPK10DgLocation"
 "_ZN14DgOutShapefile6insertERK8DgDVec2D"
 "_ZN14DgOutShapefile8writeDbfERKNSt7__cxx1112basic_stringIcSt11char_traitsIcESaIcEEE"
 "_ZN14DgOutShapefile9addFieldsERKSt3setI10DgDBFfieldSt4lessIS1_ESaIS1_EE"
 "_ZN14DgOutShapefileC1ERK13DgGeoSphDegRFRKNSt7__cxx1112basic_stringIcSt11char_traitsIcESaIcEEEibiN6DgBase13DgReportLevelE"
 "_ZN14DgOutShapefileC2ERK13DgGeoSphDegRFRKNSt7__cxx1112basic_stringIcSt11char_traitsIcESaIcEEEibiN6DgBase13DgReportLevelE"
 "_ZN14DgOutShapefileD0Ev"
 "_ZN14DgOutShapefileD1Ev"
 "_ZN9DgAddressI8DgDVec2DED0Ev"
 "_ZN9DgAddressI8DgDVec2DED1Ev"
 "_ZNK12DgContCartRF10vecAddressERK8DgDVec2D"
 "_ZNK9DgAddressI8DgDVec2DE7writeToERSo"
 "_ZNSt7__cxx1112basic_stringIcSt11char_traitsIcESaIcEE12_M_constructIPKcEEvT_S8_St20forward_iterator_tag"
 "_ZNSt7__cxx1112basic_stringIcSt11char_traitsIcESaIcEE12_M_constructIPcEEvT_S7_St20forward_iterator_tag"
 "_ZNSt8_Rb_treeI10DgDBFfieldS0_St9_IdentityIS0_ESt4lessIS0_ESaIS0_EE8_M_eraseEPSt13_Rb_tree_nodeIS0_E"
 "_ZStplIcSt11char_traitsIcESaIcEENSt7__cxx1112basic_stringIT_T0_T1_EEPKS5_RKS8_"
 "_ZTI12DgOutLocFile"
 "_ZTI13DgAddressBase"
 "_ZTI14DgOutShapefile"
 "_ZTI6DgBase"
 "_ZTI9DgAddressI8DgDVec2DE"
 "_ZTS12DgOutLocFile"
 "_ZTS13DgAddressBase"
 "_ZTS14DgOutShapefile"
 "_ZTS6DgBase"
 "_ZTS9DgAddressI8DgDVec2DE"
 "_ZTV14DgOutShapefile"
 "_ZTV9DgAddressI8DgDVec2DE"
 "_ZN14DgOutputStream4openENSt7__cxx1112basic_stringIcSt11char_traitsIcESaIcEEEN6DgBase13DgReportLevelE"
 "_ZN14DgOutputStream5closeEv"
 "_ZN14DgOutputStreamC1ERKNSt7__cxx1112basic_stringIcSt11char_traitsIcESaIcEEES7_N6DgBase13DgReportLevelE"
 "_ZN14DgOutputStreamC2ERKNSt7__cxx1112basic_stringIcSt11char_traitsIcESaIcEEES7_N6DgBase13DgReportLevelE"
 "_ZN14DgOutputStreamD0Ev"
 "_ZN14DgOutputStreamD1Ev"
 "_ZNSt7__cxx1112basic_stringIcSt11char_traitsIcESaIcEE12_M_constructIPKcEEvT_S8_St20forward_iterator_tag"
 "_ZNSt7__cxx1112basic_stringIcSt11char_traitsIcESaIcEE12_M_constructIPcEEvT_S7_St20forward_iterator_tag"
 "_ZStplIcSt11char_traitsIcESaIcEENSt7__cxx1112basic_stringIT_T0_T1_EEPKS5_RKS8_"
 "_ZTC14DgOutputStream0_So"
 "_ZTC14DgOutputStream0_St14basic_ofstreamIcSt11char_traitsIcEE"
 "_ZTI14DgOutputStream"
 "_ZTI6DgBase"
 "_ZTS14DgOutputStream"
 "_ZTS6DgBase"
 "_ZTT14DgOutputStream"
 "_ZTV14DgOutputStream"
 "_ZThn108_N14DgOutputStreamD0Ev"
 "_ZThn108_N14DgOutputStreamD1Ev"
 "_ZTv0_n12_N14DgOutputStreamD0Ev"
 "_ZTv0_n12_N14DgOutputStreamD1Ev"
 "_ZN11DgParamList10loadParamsERKNSt7__cxx1112basic_stringIcSt11char_traitsIcESaIcEEE"
 "_ZN11DgParamList11insertParamEP7DgAssoc"
 "_ZN11DgParamList14setPresetParamERKNSt7__cxx1112basic_stringIcSt11char_traitsIcESaIcEEES7_"
 "_ZN11DgParamList8setParamERKNSt7__cxx1112basic_stringIcSt11char_traitsIcESaIcEEES7_"
 "_ZN11DgParamList9clearListEv"
 "_ZN11DgParamListD1Ev"
 "_ZN11DgParamListD2Ev"
 "_ZN7DgAssoc8validateEv"
 "_ZN7DgAssocD0Ev"
 "_ZN7DgAssocD1Ev"
 "_ZN7DgAssocD2Ev"
 "_ZNK11DgParamList8getParamERKNSt7__cxx1112basic_stringIcSt11char_traitsIcESaIcEEEb"
 "_ZNKSt5ctypeIcE8do_widenEc"
 "_ZNSt6vectorIP7DgAssocSaIS1_EE17_M_default_appendEj"
 "_ZNSt6vectorIP7DgAssocSaIS1_EE17_M_realloc_insertIJRKS1_EEEvN9__gnu_cxx17__normal_iteratorIPS1_S3_EEDpOT_"
 "_ZNSt7__cxx1112basic_stringIcSt11char_traitsIcESaIcEE12_M_constructIPKcEEvT_S8_St20forward_iterator_tag"
 "_ZNSt7__cxx1112basic_stringIcSt11char_traitsIcESaIcEE12_M_constructIPcEEvT_S7_St20forward_iterator_tag"
 "_ZTI7DgAssoc"
 "_ZTS7DgAssoc"
 "_ZTV7DgAssoc"
 "_ZN11DgLocVector9convertToERK8DgRFBase"
 "_ZN9DgAddressI8DgDVec2DED0Ev"
 "_ZN9DgAddressI8DgDVec2DED1Ev"
 "_ZN9DgPolygon7densifyEi"
 "_ZN9DgPolygonD0Ev"
 "_ZN9DgPolygonD1Ev"
 "_ZNK11DgLocVector11cardinalityEv"
 "_ZNK11DgLocVector15asAddressStringB5cxx11Ec"
 "_ZNK11DgLocVector15asAddressStringB5cxx11Ev"
 "_ZNK11DgLocVector8asStringB5cxx11Ec"
 "_ZNK11DgLocVector8asStringB5cxx11Ev"
 "_ZNK4DgRFI8DgDVec2DeE13createAddressERK13DgAddressBase"
 "_ZNK9DgAddressI8DgDVec2DE7writeToERSo"
 "_ZNSt6vectorIP13DgAddressBaseSaIS1_EE12emplace_backIJS1_EEEvDpOT_"
 "_ZNSt6vectorIP13DgAddressBaseSaIS1_EE14_M_fill_insertEN9__gnu_cxx17__normal_iteratorIPS1_S3_EEjRKS1_"
 "_ZNSt6vectorIP13DgAddressBaseSaIS1_EE17_M_realloc_insertIJS1_EEEvN9__gnu_cxx17__normal_iteratorIPS1_S3_EEDpOT_"
 "_ZNSt7__cxx1112basic_stringIcSt11char_traitsIcESaIcEE12_M_constructIPKcEEvT_S8_St20forward_iterator_tag"
 "_ZTI11DgLocVector"
 "_ZTI12DgContCartRF"
 "_ZTI13DgAddressBase"
 "_ZTI4DgRFI8DgDVec2DeE"
 "_ZTI8DgRFBase"
 "_ZTI9DgAddressI8DgDVec2DE"
 "_ZTI9DgLocBase"
 "_ZTI9DgPolygon"
 "_ZTS11DgLocVector"
 "_ZTS12DgContCartRF"
 "_ZTS13DgAddressBase"
 "_ZTS4DgRFI8DgDVec2DeE"
 "_ZTS8DgRFBase"
 "_ZTS9DgAddressI8DgDVec2DE"
 "_ZTS9DgLocBase"
 "_ZTS9DgPolygon"
 "_ZTV9DgAddressI8DgDVec2DE"
 "_ZTV9DgPolygon"
 "_Z13scalar_triplePeS_S_"
 "_Z15fullerFwdOneTri8GeoCoordePeS0_S0_"
 "_Z15fullerInvOneTri11IcosaGridPtePeS0_"
 "_Z15geogtocartesianeeePe"
 "_Z9fullerFwdRK8GeoCoordR10DgSphIcosa"
 "_Z9fullerInvRK11IcosaGridPtR8SphIcosa"
 "_ZN15DgProjFullerFwdC1ERK4DgRFI10DgGeoCoordeERKS0_I14DgProjTriCoordeE"
 "_ZN15DgProjFullerFwdC2ERK4DgRFI10DgGeoCoordeERKS0_I14DgProjTriCoordeE"
 "_ZN15DgProjFullerFwdD0Ev"
 "_ZN15DgProjFullerFwdD1Ev"
 "_ZN15DgProjFullerInvC1ERK4DgRFI14DgProjTriCoordeERKS0_I10DgGeoCoordeE"
 "_ZN15DgProjFullerInvC2ERK4DgRFI14DgProjTriCoordeERKS0_I10DgGeoCoordeE"
 "_ZN15DgProjFullerInvD0Ev"
 "_ZN15DgProjFullerInvD1Ev"
 "_ZN3dgg4util9to_stringIeEENSt7__cxx1112basic_stringIcSt11char_traitsIcESaIcEEERKT_"
 "_ZN9DgAddressI10DgGeoCoordED0Ev"
 "_ZN9DgAddressI10DgGeoCoordED1Ev"
 "_ZN9DgAddressI14DgProjTriCoordED0Ev"
 "_ZN9DgAddressI14DgProjTriCoordED1Ev"
 "_ZNK11DgConverterI10DgGeoCoorde14DgProjTriCoordeE22createConvertedAddressERK13DgAddressBase"
 "_ZNK11DgConverterI14DgProjTriCoorde10DgGeoCoordeE22createConvertedAddressERK13DgAddressBase"
 "_ZNK14DgProjTriCoordcvNSt7__cxx1112basic_stringIcSt11char_traitsIcESaIcEEEEv"
 "_ZNK15DgProjFullerFwd19convertTypedAddressERK10DgGeoCoord"
 "_ZNK15DgProjFullerInv19convertTypedAddressERK14DgProjTriCoord"
 "_ZNK9DgAddressI10DgGeoCoordE7writeToERSo"
 "_ZNK9DgAddressI14DgProjTriCoordE7writeToERSo"
 "_ZNSt7__cxx1112basic_stringIcSt11char_traitsIcESaIcEE12_M_constructIPKcEEvT_S8_St20forward_iterator_tag"
 "_ZNSt7__cxx1115basic_stringbufIcSt11char_traitsIcESaIcEED1Ev"
 "_ZTI11DgConverterI10DgGeoCoorde14DgProjTriCoordeE"
 "_ZTI11DgConverterI14DgProjTriCoorde10DgGeoCoordeE"
 "_ZTI11DgProjTriRF"
 "_ZTI13DgAddressBase"
 "_ZTI15DgConverterBase"
 "_ZTI15DgProjFullerFwd"
 "_ZTI15DgProjFullerInv"
 "_ZTI4DgRFI14DgProjTriCoordeE"
 "_ZTI8DgRFBase"
 "_ZTI9DgAddressI10DgGeoCoordE"
 "_ZTI9DgAddressI14DgProjTriCoordE"
 "_ZTS11DgConverterI10DgGeoCoorde14DgProjTriCoordeE"
 "_ZTS11DgConverterI14DgProjTriCoorde10DgGeoCoordeE"
 "_ZTS11DgProjTriRF"
 "_ZTS13DgAddressBase"
 "_ZTS15DgConverterBase"
 "_ZTS15DgProjFullerFwd"
 "_ZTS15DgProjFullerInv"
 "_ZTS4DgRFI14DgProjTriCoordeE"
 "_ZTS8DgRFBase"
 "_ZTS9DgAddressI10DgGeoCoordE"
 "_ZTS9DgAddressI14DgProjTriCoordE"
 "_ZTV11DgConverterI10DgGeoCoorde14DgProjTriCoordeE"
 "_ZTV11DgConverterI14DgProjTriCoorde10DgGeoCoordeE"
 "_ZTV15DgProjFullerFwd"
 "_ZTV15DgProjFullerInv"
 "_ZTV9DgAddressI10DgGeoCoordE"
 "_ZTV9DgAddressI14DgProjTriCoordE"
 "_ZN10DgDistanceIeED0Ev"
 "_ZN10DgDistanceIeED1Ev"
 "_ZN16DgProjGnomonicRFC1ER11DgRFNetworkRKNSt7__cxx1112basic_stringIcSt11char_traitsIcESaIcEEERK10DgGeoCoordeeeee"
 "_ZN16DgProjGnomonicRFC2ER11DgRFNetworkRKNSt7__cxx1112basic_stringIcSt11char_traitsIcESaIcEEERK10DgGeoCoordeeeee"
 "_ZN16DgProjGnomonicRFD0Ev"
 "_ZN16DgProjGnomonicRFD1Ev"
 "_ZN3dgg4util9to_stringIeEENSt7__cxx1112basic_stringIcSt11char_traitsIcESaIcEEERKT_"
 "_ZN4DgRFI8DgDVec2DeE6jumpRFEP10DgLocation"
 "_ZN9DgAddressI8DgDVec2DED0Ev"
 "_ZN9DgAddressI8DgDVec2DED1Ev"
 "_ZNK10DgLocation8asStringB5cxx11Ev"
 "_ZNK11DgGeoProjRF10vecAddressERK8DgDVec2D"
 "_ZNK11DgGeoProjRF11vecLocationERK8DgDVec2D"
 "_ZNK11DgGeoProjRF12undefAddressEv"
 "_ZNK11DgGeoProjRF13getVecAddressERK13DgAddressBase"
 "_ZNK11DgGeoProjRF14getVecLocationERK10DgLocation"
 "_ZNK11DgGeoProjRF4distERK8DgDVec2DS2_"
 "_ZNK11DgGeoProjRF7add2strB5cxx11ERK8DgDVec2D"
 "_ZNK11DgGeoProjRF7add2strB5cxx11ERK8DgDVec2Dc"
 "_ZNK11DgGeoProjRF7str2addEP8DgDVec2DPKcc"
 "_ZNK11DgGeoProjRF8dist2dblERKe"
 "_ZNK11DgGeoProjRF8dist2intERKe"
 "_ZNK11DgGeoProjRF8dist2strB5cxx11ERKe"
 "_ZNK11DgLocVector8asStringB5cxx11Ev"
 "_ZNK16DgProjGnomonicRF11projForwardERK10DgGeoCoordRK13DgEllipsoidRF"
 "_ZNK16DgProjGnomonicRF11projInverseERK8DgDVec2DRK13DgEllipsoidRF"
 "_ZNK4DgRFI8DgDVec2DeE10fromStringER10DgLocationPKcc"
 "_ZNK4DgRFI8DgDVec2DeE10getAddressERK10DgLocation"
 "_ZNK4DgRFI8DgDVec2DeE11copyAddressERK13DgAddressBasePS2_"
 "_ZNK4DgRFI8DgDVec2DeE12equalAddressERK13DgAddressBaseS4_"
 "_ZNK4DgRFI8DgDVec2DeE12makeLocationERKS0_"
 "_ZNK4DgRFI8DgDVec2DeE13createAddressERK13DgAddressBase"
 "_ZNK4DgRFI8DgDVec2DeE13createAddressEv"
 "_ZNK4DgRFI8DgDVec2DeE14createLocationERK10DgLocationb"
 "_ZNK4DgRFI8DgDVec2DeE15toAddressStringB5cxx11ERK10DgLocation"
 "_ZNK4DgRFI8DgDVec2DeE15toAddressStringB5cxx11ERK10DgLocationc"
 "_ZNK4DgRFI8DgDVec2DeE15toAddressStringB5cxx11ERK11DgLocVector"
 "_ZNK4DgRFI8DgDVec2DeE15toAddressStringB5cxx11ERK11DgLocVectorc"
 "_ZNK4DgRFI8DgDVec2DeE5toIntERK14DgDistanceBase"
 "_ZNK4DgRFI8DgDVec2DeE8distanceERK10DgLocationS4_b"
 "_ZNK4DgRFI8DgDVec2DeE8toDoubleERK14DgDistanceBase"
 "_ZNK4DgRFI8DgDVec2DeE8toStringB5cxx11ERK10DgLocation"
 "_ZNK4DgRFI8DgDVec2DeE8toStringB5cxx11ERK10DgLocationc"
 "_ZNK4DgRFI8DgDVec2DeE8toStringB5cxx11ERK11DgLocVector"
 "_ZNK4DgRFI8DgDVec2DeE8toStringB5cxx11ERK11DgLocVectorc"
 "_ZNK4DgRFI8DgDVec2DeE8toStringB5cxx11ERK14DgDistanceBase"
 "_ZNK8DgRFBase10vecAddressERK8DgDVec2D"
 "_ZNK8DgRFBase11vecLocationERK8DgDVec2D"
 "_ZNK8DgRFBase13getVecAddressERK13DgAddressBase"
 "_ZNK8DgRFBase14getVecLocationERK10DgLocation"
 "_ZNK8DgRFBase8undefLocEv"
 "_ZNK8DgRFBaseeqERKS_"
 "_ZNK8DgRFBaseneERKS_"
 "_ZNK9DgAddressI8DgDVec2DE7writeToERSo"
 "_ZNSt7__cxx1112basic_stringIcSt11char_traitsIcESaIcEE12_M_constructIPKcEEvT_S8_St20forward_iterator_tag"
 "_ZNSt7__cxx1112basic_stringIcSt11char_traitsIcESaIcEE12_M_constructIPcEEvT_S7_St20forward_iterator_tag"
 "_ZTI10DgDistanceIeE"
 "_ZTI11DgGeoProjRF"
 "_ZTI12DgGeoDatumRFI8DgDVec2DeE"
 "_ZTI13DgAddressBase"
 "_ZTI14DgDistanceBase"
 "_ZTI16DgProjGnomonicRF"
 "_ZTI4DgRFI8DgDVec2DeE"
 "_ZTI8DgRFBase"
 "_ZTI9DgAddressI8DgDVec2DE"
 "_ZTS10DgDistanceIeE"
 "_ZTS11DgGeoProjRF"
 "_ZTS12DgGeoDatumRFI8DgDVec2DeE"
 "_ZTS13DgAddressBase"
 "_ZTS14DgDistanceBase"
 "_ZTS16DgProjGnomonicRF"
 "_ZTS4DgRFI8DgDVec2DeE"
 "_ZTS8DgRFBase"
 "_ZTS9DgAddressI8DgDVec2DE"
 "_ZTV10DgDistanceIeE"
 "_ZTV11DgGeoProjRF"
 "_ZTV16DgProjGnomonicRF"
 "_ZTV4DgRFI8DgDVec2DeE"
 "_ZTV9DgAddressI8DgDVec2DE"
 "_Z5sllxyRK8GeoCoordR8SphIcosai"
 "_Z9snyderFwdRK8GeoCoordR10DgSphIcosa"
 "_Z9snyderInvRK11IcosaGridPtR8SphIcosa"
 "_ZN13DgProjISEAFwdC1ERK4DgRFI10DgGeoCoordeERKS0_I14DgProjTriCoordeE"
 "_ZN13DgProjISEAFwdC2ERK4DgRFI10DgGeoCoordeERKS0_I14DgProjTriCoordeE"
 "_ZN13DgProjISEAFwdD0Ev"
 "_ZN13DgProjISEAFwdD1Ev"
 "_ZN13DgProjISEAInvC1ERK4DgRFI14DgProjTriCoordeERKS0_I10DgGeoCoordeE"
 "_ZN13DgProjISEAInvC2ERK4DgRFI14DgProjTriCoordeERKS0_I10DgGeoCoordeE"
 "_ZN13DgProjISEAInvD0Ev"
 "_ZN13DgProjISEAInvD1Ev"
 "_ZN3dgg4util9to_stringIeEENSt7__cxx1112basic_stringIcSt11char_traitsIcESaIcEEERKT_"
 "_ZN9DgAddressI10DgGeoCoordED0Ev"
 "_ZN9DgAddressI10DgGeoCoordED1Ev"
 "_ZN9DgAddressI14DgProjTriCoordED0Ev"
 "_ZN9DgAddressI14DgProjTriCoordED1Ev"
 "_ZNK11DgConverterI10DgGeoCoorde14DgProjTriCoordeE22createConvertedAddressERK13DgAddressBase"
 "_ZNK11DgConverterI14DgProjTriCoorde10DgGeoCoordeE22createConvertedAddressERK13DgAddressBase"
 "_ZNK13DgProjISEAFwd19convertTypedAddressERK10DgGeoCoord"
 "_ZNK13DgProjISEAInv19convertTypedAddressERK14DgProjTriCoord"
 "_ZNK14DgProjTriCoordcvNSt7__cxx1112basic_stringIcSt11char_traitsIcESaIcEEEEv"
 "_ZNK9DgAddressI10DgGeoCoordE7writeToERSo"
 "_ZNK9DgAddressI14DgProjTriCoordE7writeToERSo"
 "_ZNSt7__cxx1112basic_stringIcSt11char_traitsIcESaIcEE12_M_constructIPKcEEvT_S8_St20forward_iterator_tag"
 "_ZNSt7__cxx1115basic_stringbufIcSt11char_traitsIcESaIcEED1Ev"
 "_ZTI11DgConverterI10DgGeoCoorde14DgProjTriCoordeE"
 "_ZTI11DgConverterI14DgProjTriCoorde10DgGeoCoordeE"
 "_ZTI11DgProjTriRF"
 "_ZTI13DgAddressBase"
 "_ZTI13DgProjISEAFwd"
 "_ZTI13DgProjISEAInv"
 "_ZTI15DgConverterBase"
 "_ZTI4DgRFI14DgProjTriCoordeE"
 "_ZTI8DgRFBase"
 "_ZTI9DgAddressI10DgGeoCoordE"
 "_ZTI9DgAddressI14DgProjTriCoordE"
 "_ZTISt13runtime_error"
 "_ZTISt9exception"
 "_ZTS11DgConverterI10DgGeoCoorde14DgProjTriCoordeE"
 "_ZTS11DgConverterI14DgProjTriCoorde10DgGeoCoordeE"
 "_ZTS11DgProjTriRF"
 "_ZTS13DgAddressBase"
 "_ZTS13DgProjISEAFwd"
 "_ZTS13DgProjISEAInv"
 "_ZTS15DgConverterBase"
 "_ZTS4DgRFI14DgProjTriCoordeE"
 "_ZTS8DgRFBase"
 "_ZTS9DgAddressI10DgGeoCoordE"
 "_ZTS9DgAddressI14DgProjTriCoordE"
 "_ZTSSt13runtime_error"
 "_ZTSSt9exception"
 "_ZTV11DgConverterI10DgGeoCoorde14DgProjTriCoordeE"
 "_ZTV11DgConverterI14DgProjTriCoorde10DgGeoCoordeE"
 "_ZTV13DgProjISEAFwd"
 "_ZTV13DgProjISEAInv"
 "_ZTV9DgAddressI10DgGeoCoordE"
 "_ZTV9DgAddressI14DgProjTriCoordE"
 "_Z10coordtransRK8GeoCoordS1_e"
 "_ZGVZNK11DgProjTriRF12undefAddressEvE5undef"
 "_ZN10DgDistanceIeED0Ev"
 "_ZN10DgDistanceIeED1Ev"
 "_ZN10DgSphIcosa10ico12vertsEv"
 "_ZN10DgSphIcosa13whichIcosaTriERK8GeoCoord"
 "_ZN10DgSphIcosaC1ERK10DgGeoCoorde"
 "_ZN10DgSphIcosaC2ERK10DgGeoCoorde"
 "_ZN11DgProjTriRFD0Ev"
 "_ZN11DgProjTriRFD1Ev"
 "_ZN3dgg4util9to_stringIeEENSt7__cxx1112basic_stringIcSt11char_traitsIcESaIcEEERKT_"
 "_ZN3dgg4util9to_stringIiEENSt7__cxx1112basic_stringIcSt11char_traitsIcESaIcEEERKT_"
 "_ZN4DgRFI14DgProjTriCoordeE6jumpRFEP10DgLocation"
 "_ZN9DgAddressI14DgProjTriCoordED0Ev"
 "_ZN9DgAddressI14DgProjTriCoordED1Ev"
 "_ZNK10DgLocation8asStringB5cxx11Ev"
 "_ZNK11DgLocVector8asStringB5cxx11Ev"
 "_ZNK11DgProjTriRF12undefAddressEv"
 "_ZNK11DgProjTriRF4distERK14DgProjTriCoordS2_"
 "_ZNK11DgProjTriRF7add2strB5cxx11ERK14DgProjTriCoord"
 "_ZNK11DgProjTriRF7add2strB5cxx11ERK14DgProjTriCoordc"
 "_ZNK11DgProjTriRF7str2addEP14DgProjTriCoordPKcc"
 "_ZNK11DgProjTriRF8dist2dblERKe"
 "_ZNK11DgProjTriRF8dist2intERKe"
 "_ZNK11DgProjTriRF8dist2strB5cxx11ERKe"
 "_ZNK14DgProjTriCoordcvNSt7__cxx1112basic_stringIcSt11char_traitsIcESaIcEEEEv"
 "_ZNK4DgRFI14DgProjTriCoordeE10fromStringER10DgLocationPKcc"
 "_ZNK4DgRFI14DgProjTriCoordeE10getAddressERK10DgLocation"
 "_ZNK4DgRFI14DgProjTriCoordeE11copyAddressERK13DgAddressBasePS2_"
 "_ZNK4DgRFI14DgProjTriCoordeE12equalAddressERK13DgAddressBaseS4_"
 "_ZNK4DgRFI14DgProjTriCoordeE12makeLocationERKS0_"
 "_ZNK4DgRFI14DgProjTriCoordeE13createAddressERK13DgAddressBase"
 "_ZNK4DgRFI14DgProjTriCoordeE13createAddressEv"
 "_ZNK4DgRFI14DgProjTriCoordeE14createLocationERK10DgLocationb"
 "_ZNK4DgRFI14DgProjTriCoordeE15toAddressStringB5cxx11ERK10DgLocation"
 "_ZNK4DgRFI14DgProjTriCoordeE15toAddressStringB5cxx11ERK10DgLocationc"
 "_ZNK4DgRFI14DgProjTriCoordeE15toAddressStringB5cxx11ERK11DgLocVector"
 "_ZNK4DgRFI14DgProjTriCoordeE15toAddressStringB5cxx11ERK11DgLocVectorc"
 "_ZNK4DgRFI14DgProjTriCoordeE5toIntERK14DgDistanceBase"
 "_ZNK4DgRFI14DgProjTriCoordeE8distanceERK10DgLocationS4_b"
 "_ZNK4DgRFI14DgProjTriCoordeE8toDoubleERK14DgDistanceBase"
 "_ZNK4DgRFI14DgProjTriCoordeE8toStringB5cxx11ERK10DgLocation"
 "_ZNK4DgRFI14DgProjTriCoordeE8toStringB5cxx11ERK10DgLocationc"
 "_ZNK4DgRFI14DgProjTriCoordeE8toStringB5cxx11ERK11DgLocVector"
 "_ZNK4DgRFI14DgProjTriCoordeE8toStringB5cxx11ERK11DgLocVectorc"
 "_ZNK4DgRFI14DgProjTriCoordeE8toStringB5cxx11ERK14DgDistanceBase"
 "_ZNK8DgRFBase10vecAddressERK8DgDVec2D"
 "_ZNK8DgRFBase11vecLocationERK8DgDVec2D"
 "_ZNK8DgRFBase13getVecAddressERK13DgAddressBase"
 "_ZNK8DgRFBase14getVecLocationERK10DgLocation"
 "_ZNK8DgRFBase8undefLocEv"
 "_ZNK8DgRFBaseeqERKS_"
 "_ZNK8DgRFBaseneERKS_"
 "_ZNK9DgAddressI14DgProjTriCoordE7writeToERSo"
 "_ZNKSt5ctypeIcE8do_widenEc"
 "_ZNSt7__cxx1112basic_stringIcSt11char_traitsIcESaIcEE12_M_constructIPKcEEvT_S8_St20forward_iterator_tag"
 "_ZNSt7__cxx1112basic_stringIcSt11char_traitsIcESaIcEE12_M_constructIPcEEvT_S7_St20forward_iterator_tag"
 "_ZNSt7__cxx1115basic_stringbufIcSt11char_traitsIcESaIcEED1Ev"
 "_ZTI10DgDistanceIeE"
 "_ZTI11DgProjTriRF"
 "_ZTI13DgAddressBase"
 "_ZTI14DgDistanceBase"
 "_ZTI4DgRFI14DgProjTriCoordeE"
 "_ZTI8DgRFBase"
 "_ZTI9DgAddressI14DgProjTriCoordE"
 "_ZTS10DgDistanceIeE"
 "_ZTS11DgProjTriRF"
 "_ZTS13DgAddressBase"
 "_ZTS14DgDistanceBase"
 "_ZTS4DgRFI14DgProjTriCoordeE"
 "_ZTS8DgRFBase"
 "_ZTS9DgAddressI14DgProjTriCoordE"
 "_ZTV10DgDistanceIeE"
 "_ZTV11DgProjTriRF"
 "_ZTV4DgRFI14DgProjTriCoordeE"
 "_ZTV9DgAddressI14DgProjTriCoordE"
 "_ZZNK11DgProjTriRF12undefAddressEvE5undef"
 "_ZlsRSoRK10DgSphIcosa"
 "_ZN8DgRFBaseD0Ev"
 "_ZN8DgRFBaseD1Ev"
 "_ZN8DgRFBaseD2Ev"
 "_ZNK19DgIdentityConverter22createConvertedAddressERK13DgAddressBase"
 "_ZNK8DgRFBase10vecAddressERK8DgDVec2D"
 "_ZNK8DgRFBase11vecLocationERK8DgDVec2D"
 "_ZNK8DgRFBase13buildLocationEP13DgAddressBase"
 "_ZNK8DgRFBase13getVecAddressERK13DgAddressBase"
 "_ZNK8DgRFBase13traceToGroundERSo"
 "_ZNK8DgRFBase14createLocationEv"
 "_ZNK8DgRFBase14getVecLocationERK10DgLocation"
 "_ZNK8DgRFBase15toAddressStringB5cxx11ERK9DgLocBase"
 "_ZNK8DgRFBase15toAddressStringB5cxx11ERK9DgLocBasec"
 "_ZNK8DgRFBase7convertEP10DgLocation"
 "_ZNK8DgRFBase7convertER11DgLocVector"
 "_ZNK8DgRFBase8toStringB5cxx11ERK9DgLocBase"
 "_ZNK8DgRFBase8toStringB5cxx11ERK9DgLocBasec"
 "_ZNK8DgRFBase8undefLocEv"
 "_ZNK8DgRFBaseeqERKS_"
 "_ZNK8DgRFBaseneERKS_"
 "_ZNKSt5ctypeIcE8do_widenEc"
 "_ZNSt7__cxx1112basic_stringIcSt11char_traitsIcESaIcEE12_M_constructIPcEEvT_S7_St20forward_iterator_tag"
 "_ZTI8DgRFBase"
 "_ZTS8DgRFBase"
 "_ZTV8DgRFBase"
 "_ZN11DgRFNetwork10generateIdEP8DgRFBase"
 "_ZN11DgRFNetwork6updateEv"
 "_ZN11DgRFNetwork7reserveERKj"
 "_ZN11DgRFNetworkD1Ev"
 "_ZN11DgRFNetworkD2Ev"
 "_ZN19DgIdentityConverterD0Ev"
 "_ZN19DgIdentityConverterD1Ev"
 "_ZNK11DgRFNetwork12getConverterERK10DgLocationRK8DgRFBase"
 "_ZNK11DgRFNetwork12getConverterERK8DgRFBaseS2_"
 "_ZNK11DgRFNetwork15existsConverterERK8DgRFBaseS2_"
 "_ZNK19DgIdentityConverter22createConvertedAddressERK13DgAddressBase"
 "_ZNK19DgIdentityConverter7convertEP10DgLocation"
 "_ZNSt6vectorIP15DgConverterBaseSaIS1_EE14_M_fill_insertEN9__gnu_cxx17__normal_iteratorIPS1_S3_EEjRKS1_"
 "_ZNSt6vectorIP8DgRFBaseSaIS1_EE14_M_fill_insertEN9__gnu_cxx17__normal_iteratorIPS1_S3_EEjRKS1_"
 "_ZNSt6vectorIS_IP15DgConverterBaseSaIS1_EESaIS3_EE17_M_default_appendEj"
 "_ZNSt6vectorIS_IP15DgConverterBaseSaIS1_EESaIS3_EE7reserveEj"
 "_ZNSt7__cxx1112basic_stringIcSt11char_traitsIcESaIcEE12_M_constructIPcEEvT_S7_St20forward_iterator_tag"
 "_ZTI15DgConverterBase"
 "_ZTI19DgIdentityConverter"
 "_ZTS15DgConverterBase"
 "_ZTS19DgIdentityConverter"
 "_ZTV19DgIdentityConverter"
 "_Z6MotherPm"
 "_ZN12DgRandMother8nextRandEv"
 "_ZN12DgRandMotherD0Ev"
 "_ZN12DgRandMotherD1Ev"
 "_ZN8DgRandomD0Ev"
 "_ZN8DgRandomD1Ev"
 "_ZN8DgRandomD2Ev"
 "_ZTI12DgRandMother"
 "_ZTI8DgRandom"
 "_ZTS12DgRandMother"
 "_ZTS8DgRandom"
 "_ZTV12DgRandMother"
 "_ZTV8DgRandom"
 "_ZN17DgSeriesConverterC1ERK8DgRFBaseS2_b"
 "_ZN17DgSeriesConverterC1ERKSt6vectorIPK15DgConverterBaseSaIS3_EEb"
 "_ZN17DgSeriesConverterC2ERK8DgRFBaseS2_b"
 "_ZN17DgSeriesConverterC2ERKSt6vectorIPK15DgConverterBaseSaIS3_EEb"
 "_ZN17DgSeriesConverterD0Ev"
 "_ZN17DgSeriesConverterD1Ev"
 "_ZN17DgSeriesConverterD2Ev"
 "_ZNK17DgSeriesConverter22createConvertedAddressERK13DgAddressBase"
 "_ZNK17DgSeriesConverter9converterEi"
 "_ZNK8DgRFBaseeqERKS_"
 "_ZNK8DgRFBaseneERKS_"
 "_ZNKSt5ctypeIcE8do_widenEc"
 "_ZNSt6vectorIPK15DgConverterBaseSaIS2_EE17_M_default_appendEj"
 "_ZNSt7__cxx1112basic_stringIcSt11char_traitsIcESaIcEE12_M_constructIPKcEEvT_S8_St20forward_iterator_tag"
 "_ZNSt7__cxx1112basic_stringIcSt11char_traitsIcESaIcEE12_M_constructIPcEEvT_S7_St20forward_iterator_tag"
 "_ZTI15DgConverterBase"
 "_ZTI17DgSeriesConverter"
 "_ZTS15DgConverterBase"
 "_ZTS17DgSeriesConverter"
 "_ZTV17DgSeriesConverter"
 "_ZlsRSoRK17DgSeriesConverter"
 "_ZN10DgDistanceIxED0Ev"
 "_ZN10DgDistanceIxED1Ev"
 "_ZN10DgLocation12clearAddressEv"
 "_ZN11DgLocVector9convertToERK8DgRFBase"
 "_ZN13DgSqrD4Grid2DD0Ev"
 "_ZN13DgSqrD4Grid2DD1Ev"
 "_ZN3dgg4util9to_stringIxEENSt7__cxx1112basic_stringIcSt11char_traitsIcESaIcEEERKT_"
 "_ZN4DgRFI8DgIVec2DxE6jumpRFEP10DgLocation"
 "_ZN9DgAddressI8DgDVec2DED0Ev"
 "_ZN9DgAddressI8DgDVec2DED1Ev"
 "_ZN9DgAddressI8DgIVec2DED0Ev"
 "_ZN9DgAddressI8DgIVec2DED1Ev"
 "_ZN9DgPolygonD0Ev"
 "_ZN9DgPolygonD1Ev"
 "_ZNK10DgDiscRF2D12undefAddressEv"
 "_ZNK10DgDiscRF2D7add2strB5cxx11ERK8DgIVec2D"
 "_ZNK10DgDiscRF2D7add2strB5cxx11ERK8DgIVec2Dc"
 "_ZNK10DgDiscRF2D7str2addEP8DgIVec2DPKcc"
 "_ZNK10DgLocation8asStringB5cxx11Ev"
 "_ZNK11DgLocVector11cardinalityEv"
 "_ZNK11DgLocVector15asAddressStringB5cxx11Ec"
 "_ZNK11DgLocVector15asAddressStringB5cxx11Ev"
 "_ZNK11DgLocVector8asStringB5cxx11Ec"
 "_ZNK11DgLocVector8asStringB5cxx11Ev"
 "_ZNK13DgSqrD4Grid2D11invQuantifyERK8DgIVec2D"
 "_ZNK13DgSqrD4Grid2D14setAddVerticesERK8DgIVec2DR9DgPolygon"
 "_ZNK13DgSqrD4Grid2D15setAddNeighborsERK8DgIVec2DR11DgLocVector"
 "_ZNK13DgSqrD4Grid2D4distERK8DgIVec2DS2_"
 "_ZNK13DgSqrD4Grid2D8quantifyERK8DgDVec2D"
 "_ZNK4DgRFI8DgIVec2DxE10fromStringER10DgLocationPKcc"
 "_ZNK4DgRFI8DgIVec2DxE10getAddressERK10DgLocation"
 "_ZNK4DgRFI8DgIVec2DxE11copyAddressERK13DgAddressBasePS2_"
 "_ZNK4DgRFI8DgIVec2DxE12equalAddressERK13DgAddressBaseS4_"
 "_ZNK4DgRFI8DgIVec2DxE12makeLocationERKS0_"
 "_ZNK4DgRFI8DgIVec2DxE13createAddressERK13DgAddressBase"
 "_ZNK4DgRFI8DgIVec2DxE13createAddressEv"
 "_ZNK4DgRFI8DgIVec2DxE14createLocationERK10DgLocationb"
 "_ZNK4DgRFI8DgIVec2DxE15toAddressStringB5cxx11ERK10DgLocation"
 "_ZNK4DgRFI8DgIVec2DxE15toAddressStringB5cxx11ERK10DgLocationc"
 "_ZNK4DgRFI8DgIVec2DxE15toAddressStringB5cxx11ERK11DgLocVector"
 "_ZNK4DgRFI8DgIVec2DxE15toAddressStringB5cxx11ERK11DgLocVectorc"
 "_ZNK4DgRFI8DgIVec2DxE5toIntERK14DgDistanceBase"
 "_ZNK4DgRFI8DgIVec2DxE8distanceERK10DgLocationS4_b"
 "_ZNK4DgRFI8DgIVec2DxE8toDoubleERK14DgDistanceBase"
 "_ZNK4DgRFI8DgIVec2DxE8toStringB5cxx11ERK10DgLocation"
 "_ZNK4DgRFI8DgIVec2DxE8toStringB5cxx11ERK10DgLocationc"
 "_ZNK4DgRFI8DgIVec2DxE8toStringB5cxx11ERK11DgLocVector"
 "_ZNK4DgRFI8DgIVec2DxE8toStringB5cxx11ERK11DgLocVectorc"
 "_ZNK4DgRFI8DgIVec2DxE8toStringB5cxx11ERK14DgDistanceBase"
 "_ZNK8DgDiscRFI8DgIVec2D8DgDVec2DeE11setAddPointERKS0_R10DgLocation"
 "_ZNK8DgDiscRFI8DgIVec2D8DgDVec2DeE11setVerticesERK10DgLocationR9DgPolygon"
 "_ZNK8DgDiscRFI8DgIVec2D8DgDVec2DeE11setVerticesERK10DgLocationRK8DgRFBaseR9DgPolygon"
 "_ZNK8DgDiscRFI8DgIVec2D8DgDVec2DeE11setVerticesERKS0_R9DgPolygon"
 "_ZNK8DgDiscRFI8DgIVec2D8DgDVec2DeE11setVerticesERKS0_RK8DgRFBaseR9DgPolygon"
 "_ZNK8DgDiscRFI8DgIVec2D8DgDVec2DeE12makeVerticesERK10DgLocation"
 "_ZNK8DgDiscRFI8DgIVec2D8DgDVec2DeE12makeVerticesERKS0_"
 "_ZNK8DgDiscRFI8DgIVec2D8DgDVec2DeE12setNeighborsERK10DgLocationR11DgLocVector"
 "_ZNK8DgDiscRFI8DgIVec2D8DgDVec2DeE12setNeighborsERKS0_R11DgLocVector"
 "_ZNK8DgDiscRFI8DgIVec2D8DgDVec2DeE12setNeighborsERKS0_RK8DgRFBaseR11DgLocVector"
 "_ZNK8DgDiscRFI8DgIVec2D8DgDVec2DeE13makeNeighborsERK10DgLocation"
 "_ZNK8DgDiscRFI8DgIVec2D8DgDVec2DeE13makeNeighborsERKS0_"
 "_ZNK8DgDiscRFI8DgIVec2D8DgDVec2DeE8dist2dblERKx"
 "_ZNK8DgDiscRFI8DgIVec2D8DgDVec2DeE8dist2intERKx"
 "_ZNK8DgDiscRFI8DgIVec2D8DgDVec2DeE8dist2strB5cxx11ERKx"
 "_ZNK8DgDiscRFI8DgIVec2D8DgDVec2DeE8setPointERK10DgLocationRK8DgRFBaseRS3_"
 "_ZNK8DgDiscRFI8DgIVec2D8DgDVec2DeE8setPointERK10DgLocationRS3_"
 "_ZNK8DgDiscRFI8DgIVec2D8DgDVec2DeE8setPointERKS0_R10DgLocation"
 "_ZNK8DgDiscRFI8DgIVec2D8DgDVec2DeE8setPointERKS0_RK8DgRFBaseR10DgLocation"
 "_ZNK8DgDiscRFI8DgIVec2D8DgDVec2DeE9makePointERK10DgLocation"
 "_ZNK8DgDiscRFI8DgIVec2D8DgDVec2DeE9makePointERKS0_"
 "_ZNK8DgRFBase10vecAddressERK8DgDVec2D"
 "_ZNK8DgRFBase11vecLocationERK8DgDVec2D"
 "_ZNK8DgRFBase13getVecAddressERK13DgAddressBase"
 "_ZNK8DgRFBase14getVecLocationERK10DgLocation"
 "_ZNK8DgRFBase8undefLocEv"
 "_ZNK8DgRFBaseeqERKS_"
 "_ZNK8DgRFBaseneERKS_"
 "_ZNK9DgAddressI8DgDVec2DE7writeToERSo"
 "_ZNK9DgAddressI8DgIVec2DE7writeToERSo"
 "_ZNSt6vectorIP13DgAddressBaseSaIS1_EE12emplace_backIJS1_EEEvDpOT_"
 "_ZNSt6vectorIP13DgAddressBaseSaIS1_EE17_M_realloc_insertIJS1_EEEvN9__gnu_cxx17__normal_iteratorIPS1_S3_EEDpOT_"
 "_ZNSt7__cxx1112basic_stringIcSt11char_traitsIcESaIcEE12_M_constructIPKcEEvT_S8_St20forward_iterator_tag"
 "_ZNSt7__cxx1112basic_stringIcSt11char_traitsIcESaIcEE12_M_constructIPcEEvT_S7_St20forward_iterator_tag"
 "_ZTI10DgDiscRF2D"
 "_ZTI10DgDistanceIxE"
 "_ZTI11DgLocVector"
 "_ZTI13DgAddressBase"
 "_ZTI13DgSqrD4Grid2D"
 "_ZTI14DgDistanceBase"
 "_ZTI4DgRFI8DgIVec2DxE"
 "_ZTI8DgDiscRFI8DgIVec2D8DgDVec2DeE"
 "_ZTI8DgRFBase"
 "_ZTI9DgAddressI8DgDVec2DE"
 "_ZTI9DgAddressI8DgIVec2DE"
 "_ZTI9DgLocBase"
 "_ZTI9DgPolygon"
 "_ZTS10DgDiscRF2D"
 "_ZTS10DgDistanceIxE"
 "_ZTS11DgLocVector"
 "_ZTS13DgAddressBase"
 "_ZTS13DgSqrD4Grid2D"
 "_ZTS14DgDistanceBase"
 "_ZTS4DgRFI8DgIVec2DxE"
 "_ZTS8DgDiscRFI8DgIVec2D8DgDVec2DeE"
 "_ZTS8DgRFBase"
 "_ZTS9DgAddressI8DgDVec2DE"
 "_ZTS9DgAddressI8DgIVec2DE"
 "_ZTS9DgLocBase"
 "_ZTS9DgPolygon"
 "_ZTV10DgDistanceIxE"
 "_ZTV13DgSqrD4Grid2D"
 "_ZTV4DgRFI8DgIVec2DxE"
 "_ZTV9DgAddressI8DgDVec2DE"
 "_ZTV9DgAddressI8DgIVec2DE"
 "_ZTV9DgPolygon"
 "_ZGVZNK11DgDiscRFS2D12undefAddressEvE5undef"
 "_ZN10DgDistanceIeED0Ev"
 "_ZN10DgDistanceIeED1Ev"
 "_ZN10DgDistanceIxED0Ev"
 "_ZN10DgDistanceIxED1Ev"
 "_ZN10DgLocation12clearAddressEv"
 "_ZN10DgLocationC1ERKS_"
 "_ZN11DgLocVector9convertToERK8DgRFBase"
 "_ZN12DgContCartRFD0Ev"
 "_ZN12DgContCartRFD1Ev"
 "_ZN14DgSqrD4Grid2DSC1ER11DgRFNetworkRK4DgRFI8DgDVec2DeEijbbRKNSt7__cxx1112basic_stringIcSt11char_traitsIcESaIcEEE"
 "_ZN14DgSqrD4Grid2DSC1ERKS_"
 "_ZN14DgSqrD4Grid2DSC2ER11DgRFNetworkRK4DgRFI8DgDVec2DeEijbbRKNSt7__cxx1112basic_stringIcSt11char_traitsIcESaIcEEE"
 "_ZN14DgSqrD4Grid2DSC2ERKS_"
 "_ZN14DgSqrD4Grid2DSD0Ev"
 "_ZN14DgSqrD4Grid2DSD1Ev"
 "_ZN14DgSqrD4Grid2DSD2Ev"
 "_ZN14DgSqrD4Grid2DSaSERKS_"
 "_ZN17DgAddResConverterI8DgIVec2D8DgDVec2DeED0Ev"
 "_ZN17DgAddResConverterI8DgIVec2D8DgDVec2DeED1Ev"
 "_ZN17DgResAddConverterI8DgIVec2D8DgDVec2DeED0Ev"
 "_ZN17DgResAddConverterI8DgIVec2D8DgDVec2DeED1Ev"
 "_ZN21DgContAffineConverterD0Ev"
 "_ZN21DgContAffineConverterD1Ev"
 "_ZN24DgContInvAffineConverterD0Ev"
 "_ZN24DgContInvAffineConverterD1Ev"
 "_ZN3dgg4util9to_stringIiEENSt7__cxx1112basic_stringIcSt11char_traitsIcESaIcEEERKT_"
 "_ZN3dgg4util9to_stringIxEENSt7__cxx1112basic_stringIcSt11char_traitsIcESaIcEEERKT_"
 "_ZN4DgRFI8DgDVec2DeE6jumpRFEP10DgLocation"
 "_ZN4DgRFI8DgIVec2DxE6jumpRFEP10DgLocation"
 "_ZN4DgRFI8DgResAddI8DgIVec2DExE6jumpRFEP10DgLocation"
 "_ZN8DgDiscRFI8DgIVec2D8DgDVec2DeE16DgQuantConverterD0Ev"
 "_ZN8DgDiscRFI8DgIVec2D8DgDVec2DeE16DgQuantConverterD1Ev"
 "_ZN8DgDiscRFI8DgIVec2D8DgDVec2DeE19DgInvQuantConverterD0Ev"
 "_ZN8DgDiscRFI8DgIVec2D8DgDVec2DeE19DgInvQuantConverterD1Ev"
 "_ZN8DgDiscRFI8DgResAddI8DgIVec2DE8DgDVec2DeE16DgQuantConverterD0Ev"
 "_ZN8DgDiscRFI8DgResAddI8DgIVec2DE8DgDVec2DeE16DgQuantConverterD1Ev"
 "_ZN8DgDiscRFI8DgResAddI8DgIVec2DE8DgDVec2DeE19DgInvQuantConverterD0Ev"
 "_ZN8DgDiscRFI8DgResAddI8DgIVec2DE8DgDVec2DeE19DgInvQuantConverterD1Ev"
 "_ZN8DgResAddI8DgIVec2DEaSERKS1_"
 "_ZN9DgAddressI8DgDVec2DED0Ev"
 "_ZN9DgAddressI8DgDVec2DED1Ev"
 "_ZN9DgAddressI8DgIVec2DED0Ev"
 "_ZN9DgAddressI8DgIVec2DED1Ev"
 "_ZN9DgAddressI8DgResAddI8DgIVec2DEED0Ev"
 "_ZN9DgAddressI8DgResAddI8DgIVec2DEED1Ev"
 "_ZN9DgPolygonD0Ev"
 "_ZN9DgPolygonD1Ev"
 "_ZNK10DgDiscRF2D12undefAddressEv"
 "_ZNK10DgDiscRF2D7add2strB5cxx11ERK8DgIVec2D"
 "_ZNK10DgDiscRF2D7add2strB5cxx11ERK8DgIVec2Dc"
 "_ZNK10DgDiscRF2D7str2addEP8DgIVec2DPKcc"
 "_ZNK10DgLocation8asStringB5cxx11Ev"
 "_ZNK11DgConverterI8DgDVec2De8DgIVec2DxE22createConvertedAddressERK13DgAddressBase"
 "_ZNK11DgConverterI8DgDVec2De8DgResAddI8DgIVec2DExE22createConvertedAddressERK13DgAddressBase"
 "_ZNK11DgConverterI8DgDVec2DeS0_eE22createConvertedAddressERK13DgAddressBase"
 "_ZNK11DgConverterI8DgIVec2Dx8DgDVec2DeE22createConvertedAddressERK13DgAddressBase"
 "_ZNK11DgConverterI8DgIVec2Dx8DgResAddIS0_ExE22createConvertedAddressERK13DgAddressBase"
 "_ZNK11DgConverterI8DgResAddI8DgIVec2DEx8DgDVec2DeE22createConvertedAddressERK13DgAddressBase"
 "_ZNK11DgConverterI8DgResAddI8DgIVec2DExS1_xE22createConvertedAddressERK13DgAddressBase"
 "_ZNK11DgDiscRFS2D12undefAddressEv"
 "_ZNK11DgLocVector11cardinalityEv"
 "_ZNK11DgLocVector15asAddressStringB5cxx11Ec"
 "_ZNK11DgLocVector15asAddressStringB5cxx11Ev"
 "_ZNK11DgLocVector8asStringB5cxx11Ec"
 "_ZNK11DgLocVector8asStringB5cxx11Ev"
 "_ZNK12DgContCartRF10vecAddressERK8DgDVec2D"
 "_ZNK12DgContCartRF11vecLocationERK8DgDVec2D"
 "_ZNK12DgContCartRF12undefAddressEv"
 "_ZNK12DgContCartRF13getVecAddressERK13DgAddressBase"
 "_ZNK12DgContCartRF14getVecLocationERK10DgLocation"
 "_ZNK12DgContCartRF4distERK8DgDVec2DS2_"
 "_ZNK12DgContCartRF7add2strB5cxx11ERK8DgDVec2D"
 "_ZNK12DgContCartRF7add2strB5cxx11ERK8DgDVec2Dc"
 "_ZNK12DgContCartRF7str2addEP8DgDVec2DPKcc"
 "_ZNK12DgContCartRF8dist2dblERKe"
 "_ZNK12DgContCartRF8dist2intERKe"
 "_ZNK12DgContCartRF8dist2strB5cxx11ERKe"
 "_ZNK13DgSqrD4Grid2D11invQuantifyERK8DgIVec2D"
 "_ZNK13DgSqrD4Grid2D8quantifyERK8DgDVec2D"
 "_ZNK14DgSqrD4Grid2DS13setAddParentsERK8DgResAddI8DgIVec2DER11DgLocVector"
 "_ZNK14DgSqrD4Grid2DS17setAddAllChildrenERK8DgResAddI8DgIVec2DER11DgLocVector"
 "_ZNK14DgSqrD4Grid2DS22setAddBoundaryChildrenERK8DgResAddI8DgIVec2DER11DgLocVector"
 "_ZNK14DgSqrD4Grid2DS22setAddInteriorChildrenERK8DgResAddI8DgIVec2DER11DgLocVector"
 "_ZNK17DgAddResConverterI8DgIVec2D8DgDVec2DeE19convertTypedAddressERKS0_"
 "_ZNK17DgResAddConverterI8DgIVec2D8DgDVec2DeE19convertTypedAddressERK8DgResAddIS0_E"
 "_ZNK21DgContAffineConverter19convertTypedAddressERK8DgDVec2D"
 "_ZNK24DgContInvAffineConverter19convertTypedAddressERK8DgDVec2D"
 "_ZNK4DgRFI8DgDVec2DeE10fromStringER10DgLocationPKcc"
 "_ZNK4DgRFI8DgDVec2DeE10getAddressERK10DgLocation"
 "_ZNK4DgRFI8DgDVec2DeE11copyAddressERK13DgAddressBasePS2_"
 "_ZNK4DgRFI8DgDVec2DeE12equalAddressERK13DgAddressBaseS4_"
 "_ZNK4DgRFI8DgDVec2DeE12makeLocationERKS0_"
 "_ZNK4DgRFI8DgDVec2DeE13createAddressERK13DgAddressBase"
 "_ZNK4DgRFI8DgDVec2DeE13createAddressEv"
 "_ZNK4DgRFI8DgDVec2DeE14createLocationERK10DgLocationb"
 "_ZNK4DgRFI8DgDVec2DeE15toAddressStringB5cxx11ERK10DgLocation"
 "_ZNK4DgRFI8DgDVec2DeE15toAddressStringB5cxx11ERK10DgLocationc"
 "_ZNK4DgRFI8DgDVec2DeE15toAddressStringB5cxx11ERK11DgLocVector"
 "_ZNK4DgRFI8DgDVec2DeE15toAddressStringB5cxx11ERK11DgLocVectorc"
 "_ZNK4DgRFI8DgDVec2DeE5toIntERK14DgDistanceBase"
 "_ZNK4DgRFI8DgDVec2DeE8distanceERK10DgLocationS4_b"
 "_ZNK4DgRFI8DgDVec2DeE8toDoubleERK14DgDistanceBase"
 "_ZNK4DgRFI8DgDVec2DeE8toStringB5cxx11ERK10DgLocation"
 "_ZNK4DgRFI8DgDVec2DeE8toStringB5cxx11ERK10DgLocationc"
 "_ZNK4DgRFI8DgDVec2DeE8toStringB5cxx11ERK11DgLocVector"
 "_ZNK4DgRFI8DgDVec2DeE8toStringB5cxx11ERK11DgLocVectorc"
 "_ZNK4DgRFI8DgDVec2DeE8toStringB5cxx11ERK14DgDistanceBase"
 "_ZNK4DgRFI8DgIVec2DxE10fromStringER10DgLocationPKcc"
 "_ZNK4DgRFI8DgIVec2DxE10getAddressERK10DgLocation"
 "_ZNK4DgRFI8DgIVec2DxE11copyAddressERK13DgAddressBasePS2_"
 "_ZNK4DgRFI8DgIVec2DxE12equalAddressERK13DgAddressBaseS4_"
 "_ZNK4DgRFI8DgIVec2DxE12makeLocationERKS0_"
 "_ZNK4DgRFI8DgIVec2DxE13createAddressERK13DgAddressBase"
 "_ZNK4DgRFI8DgIVec2DxE13createAddressEv"
 "_ZNK4DgRFI8DgIVec2DxE14createLocationERK10DgLocationb"
 "_ZNK4DgRFI8DgIVec2DxE15toAddressStringB5cxx11ERK10DgLocation"
 "_ZNK4DgRFI8DgIVec2DxE15toAddressStringB5cxx11ERK10DgLocationc"
 "_ZNK4DgRFI8DgIVec2DxE15toAddressStringB5cxx11ERK11DgLocVector"
 "_ZNK4DgRFI8DgIVec2DxE15toAddressStringB5cxx11ERK11DgLocVectorc"
 "_ZNK4DgRFI8DgIVec2DxE5toIntERK14DgDistanceBase"
 "_ZNK4DgRFI8DgIVec2DxE8distanceERK10DgLocationS4_b"
 "_ZNK4DgRFI8DgIVec2DxE8toDoubleERK14DgDistanceBase"
 "_ZNK4DgRFI8DgIVec2DxE8toStringB5cxx11ERK10DgLocation"
 "_ZNK4DgRFI8DgIVec2DxE8toStringB5cxx11ERK10DgLocationc"
 "_ZNK4DgRFI8DgIVec2DxE8toStringB5cxx11ERK11DgLocVector"
 "_ZNK4DgRFI8DgIVec2DxE8toStringB5cxx11ERK11DgLocVectorc"
 "_ZNK4DgRFI8DgIVec2DxE8toStringB5cxx11ERK14DgDistanceBase"
 "_ZNK4DgRFI8DgResAddI8DgIVec2DExE10fromStringER10DgLocationPKcc"
 "_ZNK4DgRFI8DgResAddI8DgIVec2DExE10getAddressERK10DgLocation"
 "_ZNK4DgRFI8DgResAddI8DgIVec2DExE11copyAddressERK13DgAddressBasePS4_"
 "_ZNK4DgRFI8DgResAddI8DgIVec2DExE12equalAddressERK13DgAddressBaseS6_"
 "_ZNK4DgRFI8DgResAddI8DgIVec2DExE12makeLocationERKS2_"
 "_ZNK4DgRFI8DgResAddI8DgIVec2DExE13createAddressERK13DgAddressBase"
 "_ZNK4DgRFI8DgResAddI8DgIVec2DExE13createAddressEv"
 "_ZNK4DgRFI8DgResAddI8DgIVec2DExE14createLocationERK10DgLocationb"
 "_ZNK4DgRFI8DgResAddI8DgIVec2DExE15toAddressStringB5cxx11ERK10DgLocation"
 "_ZNK4DgRFI8DgResAddI8DgIVec2DExE15toAddressStringB5cxx11ERK10DgLocationc"
 "_ZNK4DgRFI8DgResAddI8DgIVec2DExE15toAddressStringB5cxx11ERK11DgLocVector"
 "_ZNK4DgRFI8DgResAddI8DgIVec2DExE15toAddressStringB5cxx11ERK11DgLocVectorc"
 "_ZNK4DgRFI8DgResAddI8DgIVec2DExE5toIntERK14DgDistanceBase"
 "_ZNK4DgRFI8DgResAddI8DgIVec2DExE8distanceERK10DgLocationS6_b"
 "_ZNK4DgRFI8DgResAddI8DgIVec2DExE8toDoubleERK14DgDistanceBase"
 "_ZNK4DgRFI8DgResAddI8DgIVec2DExE8toStringB5cxx11ERK10DgLocation"
 "_ZNK4DgRFI8DgResAddI8DgIVec2DExE8toStringB5cxx11ERK10DgLocationc"
 "_ZNK4DgRFI8DgResAddI8DgIVec2DExE8toStringB5cxx11ERK11DgLocVector"
 "_ZNK4DgRFI8DgResAddI8DgIVec2DExE8toStringB5cxx11ERK11DgLocVectorc"
 "_ZNK4DgRFI8DgResAddI8DgIVec2DExE8toStringB5cxx11ERK14DgDistanceBase"
 "_ZNK8DgDVec2DcvNSt7__cxx1112basic_stringIcSt11char_traitsIcESaIcEEEEv"
 "_ZNK8DgDiscRFI8DgIVec2D8DgDVec2DeE11setAddPointERKS0_R10DgLocation"
 "_ZNK8DgDiscRFI8DgIVec2D8DgDVec2DeE11setVerticesERK10DgLocationR9DgPolygon"
 "_ZNK8DgDiscRFI8DgIVec2D8DgDVec2DeE11setVerticesERK10DgLocationRK8DgRFBaseR9DgPolygon"
 "_ZNK8DgDiscRFI8DgIVec2D8DgDVec2DeE11setVerticesERKS0_R9DgPolygon"
 "_ZNK8DgDiscRFI8DgIVec2D8DgDVec2DeE11setVerticesERKS0_RK8DgRFBaseR9DgPolygon"
 "_ZNK8DgDiscRFI8DgIVec2D8DgDVec2DeE12makeVerticesERK10DgLocation"
 "_ZNK8DgDiscRFI8DgIVec2D8DgDVec2DeE12makeVerticesERKS0_"
 "_ZNK8DgDiscRFI8DgIVec2D8DgDVec2DeE12setNeighborsERK10DgLocationR11DgLocVector"
 "_ZNK8DgDiscRFI8DgIVec2D8DgDVec2DeE12setNeighborsERKS0_R11DgLocVector"
 "_ZNK8DgDiscRFI8DgIVec2D8DgDVec2DeE12setNeighborsERKS0_RK8DgRFBaseR11DgLocVector"
 "_ZNK8DgDiscRFI8DgIVec2D8DgDVec2DeE13makeNeighborsERK10DgLocation"
 "_ZNK8DgDiscRFI8DgIVec2D8DgDVec2DeE13makeNeighborsERKS0_"
 "_ZNK8DgDiscRFI8DgIVec2D8DgDVec2DeE16DgQuantConverter19convertTypedAddressERKS1_"
 "_ZNK8DgDiscRFI8DgIVec2D8DgDVec2DeE19DgInvQuantConverter19convertTypedAddressERKS0_"
 "_ZNK8DgDiscRFI8DgIVec2D8DgDVec2DeE8dist2dblERKx"
 "_ZNK8DgDiscRFI8DgIVec2D8DgDVec2DeE8dist2intERKx"
 "_ZNK8DgDiscRFI8DgIVec2D8DgDVec2DeE8dist2strB5cxx11ERKx"
 "_ZNK8DgDiscRFI8DgIVec2D8DgDVec2DeE8setPointERK10DgLocationRK8DgRFBaseRS3_"
 "_ZNK8DgDiscRFI8DgIVec2D8DgDVec2DeE8setPointERK10DgLocationRS3_"
 "_ZNK8DgDiscRFI8DgIVec2D8DgDVec2DeE8setPointERKS0_R10DgLocation"
 "_ZNK8DgDiscRFI8DgIVec2D8DgDVec2DeE8setPointERKS0_RK8DgRFBaseR10DgLocation"
 "_ZNK8DgDiscRFI8DgIVec2D8DgDVec2DeE9makePointERK10DgLocation"
 "_ZNK8DgDiscRFI8DgIVec2D8DgDVec2DeE9makePointERKS0_"
 "_ZNK8DgDiscRFI8DgResAddI8DgIVec2DE8DgDVec2DeE11setAddPointERKS2_R10DgLocation"
 "_ZNK8DgDiscRFI8DgResAddI8DgIVec2DE8DgDVec2DeE11setVerticesERK10DgLocationR9DgPolygon"
 "_ZNK8DgDiscRFI8DgResAddI8DgIVec2DE8DgDVec2DeE11setVerticesERK10DgLocationRK8DgRFBaseR9DgPolygon"
 "_ZNK8DgDiscRFI8DgResAddI8DgIVec2DE8DgDVec2DeE11setVerticesERKS2_R9DgPolygon"
 "_ZNK8DgDiscRFI8DgResAddI8DgIVec2DE8DgDVec2DeE11setVerticesERKS2_RK8DgRFBaseR9DgPolygon"
 "_ZNK8DgDiscRFI8DgResAddI8DgIVec2DE8DgDVec2DeE12makeVerticesERK10DgLocation"
 "_ZNK8DgDiscRFI8DgResAddI8DgIVec2DE8DgDVec2DeE12makeVerticesERKS2_"
 "_ZNK8DgDiscRFI8DgResAddI8DgIVec2DE8DgDVec2DeE12setNeighborsERK10DgLocationR11DgLocVector"
 "_ZNK8DgDiscRFI8DgResAddI8DgIVec2DE8DgDVec2DeE12setNeighborsERKS2_R11DgLocVector"
 "_ZNK8DgDiscRFI8DgResAddI8DgIVec2DE8DgDVec2DeE12setNeighborsERKS2_RK8DgRFBaseR11DgLocVector"
 "_ZNK8DgDiscRFI8DgResAddI8DgIVec2DE8DgDVec2DeE13makeNeighborsERK10DgLocation"
 "_ZNK8DgDiscRFI8DgResAddI8DgIVec2DE8DgDVec2DeE13makeNeighborsERKS2_"
 "_ZNK8DgDiscRFI8DgResAddI8DgIVec2DE8DgDVec2DeE16DgQuantConverter19convertTypedAddressERKS3_"
 "_ZNK8DgDiscRFI8DgResAddI8DgIVec2DE8DgDVec2DeE19DgInvQuantConverter19convertTypedAddressERKS2_"
 "_ZNK8DgDiscRFI8DgResAddI8DgIVec2DE8DgDVec2DeE8dist2dblERKx"
 "_ZNK8DgDiscRFI8DgResAddI8DgIVec2DE8DgDVec2DeE8dist2intERKx"
 "_ZNK8DgDiscRFI8DgResAddI8DgIVec2DE8DgDVec2DeE8dist2strB5cxx11ERKx"
 "_ZNK8DgDiscRFI8DgResAddI8DgIVec2DE8DgDVec2DeE8setPointERK10DgLocationRK8DgRFBaseRS5_"
 "_ZNK8DgDiscRFI8DgResAddI8DgIVec2DE8DgDVec2DeE8setPointERK10DgLocationRS5_"
 "_ZNK8DgDiscRFI8DgResAddI8DgIVec2DE8DgDVec2DeE8setPointERKS2_R10DgLocation"
 "_ZNK8DgDiscRFI8DgResAddI8DgIVec2DE8DgDVec2DeE8setPointERKS2_RK8DgRFBaseR10DgLocation"
 "_ZNK8DgDiscRFI8DgResAddI8DgIVec2DE8DgDVec2DeE9makePointERK10DgLocation"
 "_ZNK8DgDiscRFI8DgResAddI8DgIVec2DE8DgDVec2DeE9makePointERKS2_"
 "_ZNK8DgIVec2DcvNSt7__cxx1112basic_stringIcSt11char_traitsIcESaIcEEEEv"
 "_ZNK8DgRFBase10vecAddressERK8DgDVec2D"
 "_ZNK8DgRFBase11vecLocationERK8DgDVec2D"
 "_ZNK8DgRFBase13getVecAddressERK13DgAddressBase"
 "_ZNK8DgRFBase14getVecLocationERK10DgLocation"
 "_ZNK8DgRFBase8undefLocEv"
 "_ZNK8DgRFBaseeqERKS_"
 "_ZNK8DgRFBaseneERKS_"
 "_ZNK8DgResAddI8DgIVec2DEcvNSt7__cxx1112basic_stringIcSt11char_traitsIcESaIcEEEEv"
 "_ZNK9DgAddressI8DgDVec2DE7writeToERSo"
 "_ZNK9DgAddressI8DgIVec2DE7writeToERSo"
 "_ZNK9DgAddressI8DgResAddI8DgIVec2DEE7writeToERSo"
 "_ZNK9DgDiscRFSI8DgIVec2D8DgDVec2DeE10setParentsERK8DgResAddIS0_ER11DgLocVector"
 "_ZNK9DgDiscRFSI8DgIVec2D8DgDVec2DeE10setParentsERK8DgResAddIS0_ERK8DgRFBaseR11DgLocVector"
 "_ZNK9DgDiscRFSI8DgIVec2D8DgDVec2DeE10setParentsEiRK10DgLocationR11DgLocVector"
 "_ZNK9DgDiscRFSI8DgIVec2D8DgDVec2DeE11invQuantifyERK8DgResAddIS0_E"
 "_ZNK9DgDiscRFSI8DgIVec2D8DgDVec2DeE11makeParentsERK8DgResAddIS0_E"
 "_ZNK9DgDiscRFSI8DgIVec2D8DgDVec2DeE11makeParentsEiRK10DgLocation"
 "_ZNK9DgDiscRFSI8DgIVec2D8DgDVec2DeE14setAddVerticesERK8DgResAddIS0_ER9DgPolygon"
 "_ZNK9DgDiscRFSI8DgIVec2D8DgDVec2DeE14setAllChildrenERK8DgResAddIS0_ER11DgLocVector"
 "_ZNK9DgDiscRFSI8DgIVec2D8DgDVec2DeE14setAllChildrenERK8DgResAddIS0_ERK8DgRFBaseR11DgLocVector"
 "_ZNK9DgDiscRFSI8DgIVec2D8DgDVec2DeE14setAllChildrenEiRK10DgLocationR11DgLocVector"
 "_ZNK9DgDiscRFSI8DgIVec2D8DgDVec2DeE15makeAllChildrenERK8DgResAddIS0_E"
 "_ZNK9DgDiscRFSI8DgIVec2D8DgDVec2DeE15makeAllChildrenEiRK10DgLocation"
 "_ZNK9DgDiscRFSI8DgIVec2D8DgDVec2DeE15setAddNeighborsERK8DgResAddIS0_ER11DgLocVector"
 "_ZNK9DgDiscRFSI8DgIVec2D8DgDVec2DeE19setBoundaryChildrenERK8DgResAddIS0_ER11DgLocVector"
 "_ZNK9DgDiscRFSI8DgIVec2D8DgDVec2DeE19setBoundaryChildrenERK8DgResAddIS0_ERK8DgRFBaseR11DgLocVector"
 "_ZNK9DgDiscRFSI8DgIVec2D8DgDVec2DeE19setBoundaryChildrenEiRK10DgLocationR11DgLocVector"
 "_ZNK9DgDiscRFSI8DgIVec2D8DgDVec2DeE19setInteriorChildrenERK8DgResAddIS0_ER11DgLocVector"
 "_ZNK9DgDiscRFSI8DgIVec2D8DgDVec2DeE19setInteriorChildrenERK8DgResAddIS0_ERK8DgRFBaseR11DgLocVector"
 "_ZNK9DgDiscRFSI8DgIVec2D8DgDVec2DeE19setInteriorChildrenEiRK10DgLocationR11DgLocVector"
 "_ZNK9DgDiscRFSI8DgIVec2D8DgDVec2DeE20makeBoundaryChildrenERK8DgResAddIS0_E"
 "_ZNK9DgDiscRFSI8DgIVec2D8DgDVec2DeE20makeBoundaryChildrenEiRK10DgLocation"
 "_ZNK9DgDiscRFSI8DgIVec2D8DgDVec2DeE20makeInteriorChildrenERK8DgResAddIS0_E"
 "_ZNK9DgDiscRFSI8DgIVec2D8DgDVec2DeE20makeInteriorChildrenEiRK10DgLocation"
 "_ZNK9DgDiscRFSI8DgIVec2D8DgDVec2DeE4distERK8DgResAddIS0_ES6_"
 "_ZNK9DgDiscRFSI8DgIVec2D8DgDVec2DeE7add2strB5cxx11ERK8DgResAddIS0_E"
 "_ZNK9DgDiscRFSI8DgIVec2D8DgDVec2DeE7add2strB5cxx11ERK8DgResAddIS0_Ec"
 "_ZNK9DgDiscRFSI8DgIVec2D8DgDVec2DeE7str2addEP8DgResAddIS0_EPKcc"
 "_ZNK9DgDiscRFSI8DgIVec2D8DgDVec2DeE8quantifyERKS1_"
 "_ZNSt6vectorIP13DgAddressBaseSaIS1_EE17_M_realloc_insertIJS1_EEEvN9__gnu_cxx17__normal_iteratorIPS1_S3_EEDpOT_"
 "_ZNSt6vectorIP8DgDiscRFI8DgIVec2D8DgDVec2DeESaIS4_EE17_M_default_appendEj"
 "_ZNSt7__cxx1112basic_stringIcSt11char_traitsIcESaIcEE12_M_constructIPKcEEvT_S8_St20forward_iterator_tag"
 "_ZNSt7__cxx1112basic_stringIcSt11char_traitsIcESaIcEE12_M_constructIPcEEvT_S7_St20forward_iterator_tag"
 "_ZNSt7__cxx1115basic_stringbufIcSt11char_traitsIcESaIcEED1Ev"
 "_ZStplIcSt11char_traitsIcESaIcEENSt7__cxx1112basic_stringIT_T0_T1_EEOS8_S9_"
 "_ZTI10DgDiscRF2D"
 "_ZTI10DgDistanceIeE"
 "_ZTI10DgDistanceIxE"
 "_ZTI11DgConverterI8DgDVec2De8DgIVec2DxE"
 "_ZTI11DgConverterI8DgDVec2De8DgResAddI8DgIVec2DExE"
 "_ZTI11DgConverterI8DgDVec2DeS0_eE"
 "_ZTI11DgConverterI8DgIVec2Dx8DgDVec2DeE"
 "_ZTI11DgConverterI8DgIVec2Dx8DgResAddIS0_ExE"
 "_ZTI11DgConverterI8DgResAddI8DgIVec2DEx8DgDVec2DeE"
 "_ZTI11DgConverterI8DgResAddI8DgIVec2DExS1_xE"
 "_ZTI11DgDiscRFS2D"
 "_ZTI11DgLocVector"
 "_ZTI12DgContCartRF"
 "_ZTI13DgAddressBase"
 "_ZTI14DgDistanceBase"
 "_ZTI14DgSqrD4Grid2DS"
 "_ZTI15DgConverterBase"
 "_ZTI17DgAddResConverterI8DgIVec2D8DgDVec2DeE"
 "_ZTI17DgResAddConverterI8DgIVec2D8DgDVec2DeE"
 "_ZTI21DgContAffineConverter"
 "_ZTI24DgContInvAffineConverter"
 "_ZTI4DgRFI8DgDVec2DeE"
 "_ZTI4DgRFI8DgIVec2DxE"
 "_ZTI4DgRFI8DgResAddI8DgIVec2DExE"
 "_ZTI8DgDiscRFI8DgIVec2D8DgDVec2DeE"
 "_ZTI8DgDiscRFI8DgResAddI8DgIVec2DE8DgDVec2DeE"
 "_ZTI8DgRFBase"
 "_ZTI9DgAddressI8DgDVec2DE"
 "_ZTI9DgAddressI8DgIVec2DE"
 "_ZTI9DgAddressI8DgResAddI8DgIVec2DEE"
 "_ZTI9DgDiscRFSI8DgIVec2D8DgDVec2DeE"
 "_ZTI9DgLocBase"
 "_ZTI9DgPolygon"
 "_ZTIN8DgDiscRFI8DgIVec2D8DgDVec2DeE16DgQuantConverterE"
 "_ZTIN8DgDiscRFI8DgIVec2D8DgDVec2DeE19DgInvQuantConverterE"
 "_ZTIN8DgDiscRFI8DgResAddI8DgIVec2DE8DgDVec2DeE16DgQuantConverterE"
 "_ZTIN8DgDiscRFI8DgResAddI8DgIVec2DE8DgDVec2DeE19DgInvQuantConverterE"
 "_ZTS10DgDiscRF2D"
 "_ZTS10DgDistanceIeE"
 "_ZTS10DgDistanceIxE"
 "_ZTS11DgConverterI8DgDVec2De8DgIVec2DxE"
 "_ZTS11DgConverterI8DgDVec2De8DgResAddI8DgIVec2DExE"
 "_ZTS11DgConverterI8DgDVec2DeS0_eE"
 "_ZTS11DgConverterI8DgIVec2Dx8DgDVec2DeE"
 "_ZTS11DgConverterI8DgIVec2Dx8DgResAddIS0_ExE"
 "_ZTS11DgConverterI8DgResAddI8DgIVec2DEx8DgDVec2DeE"
 "_ZTS11DgConverterI8DgResAddI8DgIVec2DExS1_xE"
 "_ZTS11DgDiscRFS2D"
 "_ZTS11DgLocVector"
 "_ZTS12DgContCartRF"
 "_ZTS13DgAddressBase"
 "_ZTS14DgDistanceBase"
 "_ZTS14DgSqrD4Grid2DS"
 "_ZTS15DgConverterBase"
 "_ZTS17DgAddResConverterI8DgIVec2D8DgDVec2DeE"
 "_ZTS17DgResAddConverterI8DgIVec2D8DgDVec2DeE"
 "_ZTS21DgContAffineConverter"
 "_ZTS24DgContInvAffineConverter"
 "_ZTS4DgRFI8DgDVec2DeE"
 "_ZTS4DgRFI8DgIVec2DxE"
 "_ZTS4DgRFI8DgResAddI8DgIVec2DExE"
 "_ZTS8DgDiscRFI8DgIVec2D8DgDVec2DeE"
 "_ZTS8DgDiscRFI8DgResAddI8DgIVec2DE8DgDVec2DeE"
 "_ZTS8DgRFBase"
 "_ZTS9DgAddressI8DgDVec2DE"
 "_ZTS9DgAddressI8DgIVec2DE"
 "_ZTS9DgAddressI8DgResAddI8DgIVec2DEE"
 "_ZTS9DgDiscRFSI8DgIVec2D8DgDVec2DeE"
 "_ZTS9DgLocBase"
 "_ZTS9DgPolygon"
 "_ZTSN8DgDiscRFI8DgIVec2D8DgDVec2DeE16DgQuantConverterE"
 "_ZTSN8DgDiscRFI8DgIVec2D8DgDVec2DeE19DgInvQuantConverterE"
 "_ZTSN8DgDiscRFI8DgResAddI8DgIVec2DE8DgDVec2DeE16DgQuantConverterE"
 "_ZTSN8DgDiscRFI8DgResAddI8DgIVec2DE8DgDVec2DeE19DgInvQuantConverterE"
 "_ZTV10DgDiscRF2D"
 "_ZTV10DgDistanceIeE"
 "_ZTV10DgDistanceIxE"
 "_ZTV11DgConverterI8DgDVec2De8DgIVec2DxE"
 "_ZTV11DgConverterI8DgDVec2De8DgResAddI8DgIVec2DExE"
 "_ZTV11DgConverterI8DgDVec2DeS0_eE"
 "_ZTV11DgConverterI8DgIVec2Dx8DgDVec2DeE"
 "_ZTV11DgConverterI8DgIVec2Dx8DgResAddIS0_ExE"
 "_ZTV11DgConverterI8DgResAddI8DgIVec2DEx8DgDVec2DeE"
 "_ZTV11DgConverterI8DgResAddI8DgIVec2DExS1_xE"
 "_ZTV11DgDiscRFS2D"
 "_ZTV12DgContCartRF"
 "_ZTV14DgSqrD4Grid2DS"
 "_ZTV17DgAddResConverterI8DgIVec2D8DgDVec2DeE"
 "_ZTV17DgResAddConverterI8DgIVec2D8DgDVec2DeE"
 "_ZTV21DgContAffineConverter"
 "_ZTV24DgContInvAffineConverter"
 "_ZTV4DgRFI8DgDVec2DeE"
 "_ZTV4DgRFI8DgIVec2DxE"
 "_ZTV4DgRFI8DgResAddI8DgIVec2DExE"
 "_ZTV8DgDiscRFI8DgIVec2D8DgDVec2DeE"
 "_ZTV8DgDiscRFI8DgResAddI8DgIVec2DE8DgDVec2DeE"
 "_ZTV9DgAddressI8DgDVec2DE"
 "_ZTV9DgAddressI8DgIVec2DE"
 "_ZTV9DgAddressI8DgResAddI8DgIVec2DEE"
 "_ZTV9DgDiscRFSI8DgIVec2D8DgDVec2DeE"
 "_ZTV9DgPolygon"
 "_ZTVN8DgDiscRFI8DgIVec2D8DgDVec2DeE16DgQuantConverterE"
 "_ZTVN8DgDiscRFI8DgIVec2D8DgDVec2DeE19DgInvQuantConverterE"
 "_ZTVN8DgDiscRFI8DgResAddI8DgIVec2DE8DgDVec2DeE16DgQuantConverterE"
 "_ZTVN8DgDiscRFI8DgResAddI8DgIVec2DE8DgDVec2DeE19DgInvQuantConverterE"
 "_ZZNK11DgDiscRFS2D12undefAddressEvE5undef"
 "_ZN10DgDistanceIxED0Ev"
 "_ZN10DgDistanceIxED1Ev"
 "_ZN10DgLocation12clearAddressEv"
 "_ZN11DgLocVector9convertToERK8DgRFBase"
 "_ZN13DgSqrD8Grid2DD0Ev"
 "_ZN13DgSqrD8Grid2DD1Ev"
 "_ZN3dgg4util9to_stringIxEENSt7__cxx1112basic_stringIcSt11char_traitsIcESaIcEEERKT_"
 "_ZN4DgRFI8DgIVec2DxE6jumpRFEP10DgLocation"
 "_ZN9DgAddressI8DgIVec2DED0Ev"
 "_ZN9DgAddressI8DgIVec2DED1Ev"
 "_ZN9DgPolygonD0Ev"
 "_ZN9DgPolygonD1Ev"
 "_ZNK10DgDiscRF2D12undefAddressEv"
 "_ZNK10DgDiscRF2D7add2strB5cxx11ERK8DgIVec2D"
 "_ZNK10DgDiscRF2D7add2strB5cxx11ERK8DgIVec2Dc"
 "_ZNK10DgDiscRF2D7str2addEP8DgIVec2DPKcc"
 "_ZNK10DgLocation8asStringB5cxx11Ev"
 "_ZNK11DgLocVector11cardinalityEv"
 "_ZNK11DgLocVector15asAddressStringB5cxx11Ec"
 "_ZNK11DgLocVector15asAddressStringB5cxx11Ev"
 "_ZNK11DgLocVector8asStringB5cxx11Ec"
 "_ZNK11DgLocVector8asStringB5cxx11Ev"
 "_ZNK13DgSqrD4Grid2D11invQuantifyERK8DgIVec2D"
 "_ZNK13DgSqrD4Grid2D8quantifyERK8DgDVec2D"
 "_ZNK13DgSqrD8Grid2D15setAddNeighborsERK8DgIVec2DR11DgLocVector"
 "_ZNK13DgSqrD8Grid2D4distERK8DgIVec2DS2_"
 "_ZNK4DgRFI8DgIVec2DxE10fromStringER10DgLocationPKcc"
 "_ZNK4DgRFI8DgIVec2DxE10getAddressERK10DgLocation"
 "_ZNK4DgRFI8DgIVec2DxE11copyAddressERK13DgAddressBasePS2_"
 "_ZNK4DgRFI8DgIVec2DxE12equalAddressERK13DgAddressBaseS4_"
 "_ZNK4DgRFI8DgIVec2DxE12makeLocationERKS0_"
 "_ZNK4DgRFI8DgIVec2DxE13createAddressERK13DgAddressBase"
 "_ZNK4DgRFI8DgIVec2DxE13createAddressEv"
 "_ZNK4DgRFI8DgIVec2DxE14createLocationERK10DgLocationb"
 "_ZNK4DgRFI8DgIVec2DxE15toAddressStringB5cxx11ERK10DgLocation"
 "_ZNK4DgRFI8DgIVec2DxE15toAddressStringB5cxx11ERK10DgLocationc"
 "_ZNK4DgRFI8DgIVec2DxE15toAddressStringB5cxx11ERK11DgLocVector"
 "_ZNK4DgRFI8DgIVec2DxE15toAddressStringB5cxx11ERK11DgLocVectorc"
 "_ZNK4DgRFI8DgIVec2DxE5toIntERK14DgDistanceBase"
 "_ZNK4DgRFI8DgIVec2DxE8distanceERK10DgLocationS4_b"
 "_ZNK4DgRFI8DgIVec2DxE8toDoubleERK14DgDistanceBase"
 "_ZNK4DgRFI8DgIVec2DxE8toStringB5cxx11ERK10DgLocation"
 "_ZNK4DgRFI8DgIVec2DxE8toStringB5cxx11ERK10DgLocationc"
 "_ZNK4DgRFI8DgIVec2DxE8toStringB5cxx11ERK11DgLocVector"
 "_ZNK4DgRFI8DgIVec2DxE8toStringB5cxx11ERK11DgLocVectorc"
 "_ZNK4DgRFI8DgIVec2DxE8toStringB5cxx11ERK14DgDistanceBase"
 "_ZNK8DgDiscRFI8DgIVec2D8DgDVec2DeE11setAddPointERKS0_R10DgLocation"
 "_ZNK8DgDiscRFI8DgIVec2D8DgDVec2DeE11setVerticesERK10DgLocationR9DgPolygon"
 "_ZNK8DgDiscRFI8DgIVec2D8DgDVec2DeE11setVerticesERK10DgLocationRK8DgRFBaseR9DgPolygon"
 "_ZNK8DgDiscRFI8DgIVec2D8DgDVec2DeE11setVerticesERKS0_R9DgPolygon"
 "_ZNK8DgDiscRFI8DgIVec2D8DgDVec2DeE11setVerticesERKS0_RK8DgRFBaseR9DgPolygon"
 "_ZNK8DgDiscRFI8DgIVec2D8DgDVec2DeE12makeVerticesERK10DgLocation"
 "_ZNK8DgDiscRFI8DgIVec2D8DgDVec2DeE12makeVerticesERKS0_"
 "_ZNK8DgDiscRFI8DgIVec2D8DgDVec2DeE12setNeighborsERK10DgLocationR11DgLocVector"
 "_ZNK8DgDiscRFI8DgIVec2D8DgDVec2DeE12setNeighborsERKS0_R11DgLocVector"
 "_ZNK8DgDiscRFI8DgIVec2D8DgDVec2DeE12setNeighborsERKS0_RK8DgRFBaseR11DgLocVector"
 "_ZNK8DgDiscRFI8DgIVec2D8DgDVec2DeE13makeNeighborsERK10DgLocation"
 "_ZNK8DgDiscRFI8DgIVec2D8DgDVec2DeE13makeNeighborsERKS0_"
 "_ZNK8DgDiscRFI8DgIVec2D8DgDVec2DeE8dist2dblERKx"
 "_ZNK8DgDiscRFI8DgIVec2D8DgDVec2DeE8dist2intERKx"
 "_ZNK8DgDiscRFI8DgIVec2D8DgDVec2DeE8dist2strB5cxx11ERKx"
 "_ZNK8DgDiscRFI8DgIVec2D8DgDVec2DeE8setPointERK10DgLocationRK8DgRFBaseRS3_"
 "_ZNK8DgDiscRFI8DgIVec2D8DgDVec2DeE8setPointERK10DgLocationRS3_"
 "_ZNK8DgDiscRFI8DgIVec2D8DgDVec2DeE8setPointERKS0_R10DgLocation"
 "_ZNK8DgDiscRFI8DgIVec2D8DgDVec2DeE8setPointERKS0_RK8DgRFBaseR10DgLocation"
 "_ZNK8DgDiscRFI8DgIVec2D8DgDVec2DeE9makePointERK10DgLocation"
 "_ZNK8DgDiscRFI8DgIVec2D8DgDVec2DeE9makePointERKS0_"
 "_ZNK8DgRFBase10vecAddressERK8DgDVec2D"
 "_ZNK8DgRFBase11vecLocationERK8DgDVec2D"
 "_ZNK8DgRFBase13getVecAddressERK13DgAddressBase"
 "_ZNK8DgRFBase14getVecLocationERK10DgLocation"
 "_ZNK8DgRFBase8undefLocEv"
 "_ZNK8DgRFBaseeqERKS_"
 "_ZNK8DgRFBaseneERKS_"
 "_ZNK9DgAddressI8DgIVec2DE7writeToERSo"
 "_ZNSt6vectorIP13DgAddressBaseSaIS1_EE12emplace_backIJS1_EEEvDpOT_"
 "_ZNSt6vectorIP13DgAddressBaseSaIS1_EE17_M_realloc_insertIJS1_EEEvN9__gnu_cxx17__normal_iteratorIPS1_S3_EEDpOT_"
 "_ZNSt7__cxx1112basic_stringIcSt11char_traitsIcESaIcEE12_M_constructIPKcEEvT_S8_St20forward_iterator_tag"
 "_ZNSt7__cxx1112basic_stringIcSt11char_traitsIcESaIcEE12_M_constructIPcEEvT_S7_St20forward_iterator_tag"
 "_ZTI10DgDiscRF2D"
 "_ZTI10DgDistanceIxE"
 "_ZTI11DgLocVector"
 "_ZTI13DgAddressBase"
 "_ZTI13DgSqrD4Grid2D"
 "_ZTI13DgSqrD8Grid2D"
 "_ZTI14DgDistanceBase"
 "_ZTI4DgRFI8DgIVec2DxE"
 "_ZTI8DgDiscRFI8DgIVec2D8DgDVec2DeE"
 "_ZTI8DgRFBase"
 "_ZTI9DgAddressI8DgIVec2DE"
 "_ZTI9DgLocBase"
 "_ZTI9DgPolygon"
 "_ZTS10DgDiscRF2D"
 "_ZTS10DgDistanceIxE"
 "_ZTS11DgLocVector"
 "_ZTS13DgAddressBase"
 "_ZTS13DgSqrD4Grid2D"
 "_ZTS13DgSqrD8Grid2D"
 "_ZTS14DgDistanceBase"
 "_ZTS4DgRFI8DgIVec2DxE"
 "_ZTS8DgDiscRFI8DgIVec2D8DgDVec2DeE"
 "_ZTS8DgRFBase"
 "_ZTS9DgAddressI8DgIVec2DE"
 "_ZTS9DgLocBase"
 "_ZTS9DgPolygon"
 "_ZTV10DgDistanceIxE"
 "_ZTV13DgSqrD8Grid2D"
 "_ZTV4DgRFI8DgIVec2DxE"
 "_ZTV9DgAddressI8DgIVec2DE"
 "_ZTV9DgPolygon"
 "_ZGVZNK11DgDiscRFS2D12undefAddressEvE5undef"
 "_ZN10DgDistanceIeED0Ev"
 "_ZN10DgDistanceIeED1Ev"
 "_ZN10DgDistanceIxED0Ev"
 "_ZN10DgDistanceIxED1Ev"
 "_ZN10DgLocation12clearAddressEv"
 "_ZN10DgLocationC1ERKS_"
 "_ZN11DgLocVector9convertToERK8DgRFBase"
 "_ZN12DgContCartRFD0Ev"
 "_ZN12DgContCartRFD1Ev"
 "_ZN14DgSqrD8Grid2DSC1ER11DgRFNetworkRK4DgRFI8DgDVec2DeEijbbRKNSt7__cxx1112basic_stringIcSt11char_traitsIcESaIcEEE"
 "_ZN14DgSqrD8Grid2DSC1ERKS_"
 "_ZN14DgSqrD8Grid2DSC2ER11DgRFNetworkRK4DgRFI8DgDVec2DeEijbbRKNSt7__cxx1112basic_stringIcSt11char_traitsIcESaIcEEE"
 "_ZN14DgSqrD8Grid2DSC2ERKS_"
 "_ZN14DgSqrD8Grid2DSD0Ev"
 "_ZN14DgSqrD8Grid2DSD1Ev"
 "_ZN14DgSqrD8Grid2DSD2Ev"
 "_ZN14DgSqrD8Grid2DSaSERKS_"
 "_ZN17DgAddResConverterI8DgIVec2D8DgDVec2DeED0Ev"
 "_ZN17DgAddResConverterI8DgIVec2D8DgDVec2DeED1Ev"
 "_ZN17DgResAddConverterI8DgIVec2D8DgDVec2DeED0Ev"
 "_ZN17DgResAddConverterI8DgIVec2D8DgDVec2DeED1Ev"
 "_ZN21DgContAffineConverterD0Ev"
 "_ZN21DgContAffineConverterD1Ev"
 "_ZN24DgContInvAffineConverterD0Ev"
 "_ZN24DgContInvAffineConverterD1Ev"
 "_ZN3dgg4util9to_stringIiEENSt7__cxx1112basic_stringIcSt11char_traitsIcESaIcEEERKT_"
 "_ZN3dgg4util9to_stringIxEENSt7__cxx1112basic_stringIcSt11char_traitsIcESaIcEEERKT_"
 "_ZN4DgRFI8DgDVec2DeE6jumpRFEP10DgLocation"
 "_ZN4DgRFI8DgIVec2DxE6jumpRFEP10DgLocation"
 "_ZN4DgRFI8DgResAddI8DgIVec2DExE6jumpRFEP10DgLocation"
 "_ZN8DgDiscRFI8DgIVec2D8DgDVec2DeE16DgQuantConverterD0Ev"
 "_ZN8DgDiscRFI8DgIVec2D8DgDVec2DeE16DgQuantConverterD1Ev"
 "_ZN8DgDiscRFI8DgIVec2D8DgDVec2DeE19DgInvQuantConverterD0Ev"
 "_ZN8DgDiscRFI8DgIVec2D8DgDVec2DeE19DgInvQuantConverterD1Ev"
 "_ZN8DgDiscRFI8DgResAddI8DgIVec2DE8DgDVec2DeE16DgQuantConverterD0Ev"
 "_ZN8DgDiscRFI8DgResAddI8DgIVec2DE8DgDVec2DeE16DgQuantConverterD1Ev"
 "_ZN8DgDiscRFI8DgResAddI8DgIVec2DE8DgDVec2DeE19DgInvQuantConverterD0Ev"
 "_ZN8DgDiscRFI8DgResAddI8DgIVec2DE8DgDVec2DeE19DgInvQuantConverterD1Ev"
 "_ZN8DgResAddI8DgIVec2DEaSERKS1_"
 "_ZN9DgAddressI8DgDVec2DED0Ev"
 "_ZN9DgAddressI8DgDVec2DED1Ev"
 "_ZN9DgAddressI8DgIVec2DED0Ev"
 "_ZN9DgAddressI8DgIVec2DED1Ev"
 "_ZN9DgAddressI8DgResAddI8DgIVec2DEED0Ev"
 "_ZN9DgAddressI8DgResAddI8DgIVec2DEED1Ev"
 "_ZN9DgPolygonD0Ev"
 "_ZN9DgPolygonD1Ev"
 "_ZNK10DgDiscRF2D12undefAddressEv"
 "_ZNK10DgDiscRF2D7add2strB5cxx11ERK8DgIVec2D"
 "_ZNK10DgDiscRF2D7add2strB5cxx11ERK8DgIVec2Dc"
 "_ZNK10DgDiscRF2D7str2addEP8DgIVec2DPKcc"
 "_ZNK10DgLocation8asStringB5cxx11Ev"
 "_ZNK11DgConverterI8DgDVec2De8DgIVec2DxE22createConvertedAddressERK13DgAddressBase"
 "_ZNK11DgConverterI8DgDVec2De8DgResAddI8DgIVec2DExE22createConvertedAddressERK13DgAddressBase"
 "_ZNK11DgConverterI8DgDVec2DeS0_eE22createConvertedAddressERK13DgAddressBase"
 "_ZNK11DgConverterI8DgIVec2Dx8DgDVec2DeE22createConvertedAddressERK13DgAddressBase"
 "_ZNK11DgConverterI8DgIVec2Dx8DgResAddIS0_ExE22createConvertedAddressERK13DgAddressBase"
 "_ZNK11DgConverterI8DgResAddI8DgIVec2DEx8DgDVec2DeE22createConvertedAddressERK13DgAddressBase"
 "_ZNK11DgConverterI8DgResAddI8DgIVec2DExS1_xE22createConvertedAddressERK13DgAddressBase"
 "_ZNK11DgDiscRFS2D12undefAddressEv"
 "_ZNK11DgLocVector11cardinalityEv"
 "_ZNK11DgLocVector15asAddressStringB5cxx11Ec"
 "_ZNK11DgLocVector15asAddressStringB5cxx11Ev"
 "_ZNK11DgLocVector8asStringB5cxx11Ec"
 "_ZNK11DgLocVector8asStringB5cxx11Ev"
 "_ZNK12DgContCartRF10vecAddressERK8DgDVec2D"
 "_ZNK12DgContCartRF11vecLocationERK8DgDVec2D"
 "_ZNK12DgContCartRF12undefAddressEv"
 "_ZNK12DgContCartRF13getVecAddressERK13DgAddressBase"
 "_ZNK12DgContCartRF14getVecLocationERK10DgLocation"
 "_ZNK12DgContCartRF4distERK8DgDVec2DS2_"
 "_ZNK12DgContCartRF7add2strB5cxx11ERK8DgDVec2D"
 "_ZNK12DgContCartRF7add2strB5cxx11ERK8DgDVec2Dc"
 "_ZNK12DgContCartRF7str2addEP8DgDVec2DPKcc"
 "_ZNK12DgContCartRF8dist2dblERKe"
 "_ZNK12DgContCartRF8dist2intERKe"
 "_ZNK12DgContCartRF8dist2strB5cxx11ERKe"
 "_ZNK13DgSqrD4Grid2D11invQuantifyERK8DgIVec2D"
 "_ZNK13DgSqrD4Grid2D8quantifyERK8DgDVec2D"
 "_ZNK14DgSqrD8Grid2DS13setAddParentsERK8DgResAddI8DgIVec2DER11DgLocVector"
 "_ZNK14DgSqrD8Grid2DS17setAddAllChildrenERK8DgResAddI8DgIVec2DER11DgLocVector"
 "_ZNK14DgSqrD8Grid2DS22setAddBoundaryChildrenERK8DgResAddI8DgIVec2DER11DgLocVector"
 "_ZNK14DgSqrD8Grid2DS22setAddInteriorChildrenERK8DgResAddI8DgIVec2DER11DgLocVector"
 "_ZNK17DgAddResConverterI8DgIVec2D8DgDVec2DeE19convertTypedAddressERKS0_"
 "_ZNK17DgResAddConverterI8DgIVec2D8DgDVec2DeE19convertTypedAddressERK8DgResAddIS0_E"
 "_ZNK21DgContAffineConverter19convertTypedAddressERK8DgDVec2D"
 "_ZNK24DgContInvAffineConverter19convertTypedAddressERK8DgDVec2D"
 "_ZNK4DgRFI8DgDVec2DeE10fromStringER10DgLocationPKcc"
 "_ZNK4DgRFI8DgDVec2DeE10getAddressERK10DgLocation"
 "_ZNK4DgRFI8DgDVec2DeE11copyAddressERK13DgAddressBasePS2_"
 "_ZNK4DgRFI8DgDVec2DeE12equalAddressERK13DgAddressBaseS4_"
 "_ZNK4DgRFI8DgDVec2DeE12makeLocationERKS0_"
 "_ZNK4DgRFI8DgDVec2DeE13createAddressERK13DgAddressBase"
 "_ZNK4DgRFI8DgDVec2DeE13createAddressEv"
 "_ZNK4DgRFI8DgDVec2DeE14createLocationERK10DgLocationb"
 "_ZNK4DgRFI8DgDVec2DeE15toAddressStringB5cxx11ERK10DgLocation"
 "_ZNK4DgRFI8DgDVec2DeE15toAddressStringB5cxx11ERK10DgLocationc"
 "_ZNK4DgRFI8DgDVec2DeE15toAddressStringB5cxx11ERK11DgLocVector"
 "_ZNK4DgRFI8DgDVec2DeE15toAddressStringB5cxx11ERK11DgLocVectorc"
 "_ZNK4DgRFI8DgDVec2DeE5toIntERK14DgDistanceBase"
 "_ZNK4DgRFI8DgDVec2DeE8distanceERK10DgLocationS4_b"
 "_ZNK4DgRFI8DgDVec2DeE8toDoubleERK14DgDistanceBase"
 "_ZNK4DgRFI8DgDVec2DeE8toStringB5cxx11ERK10DgLocation"
 "_ZNK4DgRFI8DgDVec2DeE8toStringB5cxx11ERK10DgLocationc"
 "_ZNK4DgRFI8DgDVec2DeE8toStringB5cxx11ERK11DgLocVector"
 "_ZNK4DgRFI8DgDVec2DeE8toStringB5cxx11ERK11DgLocVectorc"
 "_ZNK4DgRFI8DgDVec2DeE8toStringB5cxx11ERK14DgDistanceBase"
 "_ZNK4DgRFI8DgIVec2DxE10fromStringER10DgLocationPKcc"
 "_ZNK4DgRFI8DgIVec2DxE10getAddressERK10DgLocation"
 "_ZNK4DgRFI8DgIVec2DxE11copyAddressERK13DgAddressBasePS2_"
 "_ZNK4DgRFI8DgIVec2DxE12equalAddressERK13DgAddressBaseS4_"
 "_ZNK4DgRFI8DgIVec2DxE12makeLocationERKS0_"
 "_ZNK4DgRFI8DgIVec2DxE13createAddressERK13DgAddressBase"
 "_ZNK4DgRFI8DgIVec2DxE13createAddressEv"
 "_ZNK4DgRFI8DgIVec2DxE14createLocationERK10DgLocationb"
 "_ZNK4DgRFI8DgIVec2DxE15toAddressStringB5cxx11ERK10DgLocation"
 "_ZNK4DgRFI8DgIVec2DxE15toAddressStringB5cxx11ERK10DgLocationc"
 "_ZNK4DgRFI8DgIVec2DxE15toAddressStringB5cxx11ERK11DgLocVector"
 "_ZNK4DgRFI8DgIVec2DxE15toAddressStringB5cxx11ERK11DgLocVectorc"
 "_ZNK4DgRFI8DgIVec2DxE5toIntERK14DgDistanceBase"
 "_ZNK4DgRFI8DgIVec2DxE8distanceERK10DgLocationS4_b"
 "_ZNK4DgRFI8DgIVec2DxE8toDoubleERK14DgDistanceBase"
 "_ZNK4DgRFI8DgIVec2DxE8toStringB5cxx11ERK10DgLocation"
 "_ZNK4DgRFI8DgIVec2DxE8toStringB5cxx11ERK10DgLocationc"
 "_ZNK4DgRFI8DgIVec2DxE8toStringB5cxx11ERK11DgLocVector"
 "_ZNK4DgRFI8DgIVec2DxE8toStringB5cxx11ERK11DgLocVectorc"
 "_ZNK4DgRFI8DgIVec2DxE8toStringB5cxx11ERK14DgDistanceBase"
 "_ZNK4DgRFI8DgResAddI8DgIVec2DExE10fromStringER10DgLocationPKcc"
 "_ZNK4DgRFI8DgResAddI8DgIVec2DExE10getAddressERK10DgLocation"
 "_ZNK4DgRFI8DgResAddI8DgIVec2DExE11copyAddressERK13DgAddressBasePS4_"
 "_ZNK4DgRFI8DgResAddI8DgIVec2DExE12equalAddressERK13DgAddressBaseS6_"
 "_ZNK4DgRFI8DgResAddI8DgIVec2DExE12makeLocationERKS2_"
 "_ZNK4DgRFI8DgResAddI8DgIVec2DExE13createAddressERK13DgAddressBase"
 "_ZNK4DgRFI8DgResAddI8DgIVec2DExE13createAddressEv"
 "_ZNK4DgRFI8DgResAddI8DgIVec2DExE14createLocationERK10DgLocationb"
 "_ZNK4DgRFI8DgResAddI8DgIVec2DExE15toAddressStringB5cxx11ERK10DgLocation"
 "_ZNK4DgRFI8DgResAddI8DgIVec2DExE15toAddressStringB5cxx11ERK10DgLocationc"
 "_ZNK4DgRFI8DgResAddI8DgIVec2DExE15toAddressStringB5cxx11ERK11DgLocVector"
 "_ZNK4DgRFI8DgResAddI8DgIVec2DExE15toAddressStringB5cxx11ERK11DgLocVectorc"
 "_ZNK4DgRFI8DgResAddI8DgIVec2DExE5toIntERK14DgDistanceBase"
 "_ZNK4DgRFI8DgResAddI8DgIVec2DExE8distanceERK10DgLocationS6_b"
 "_ZNK4DgRFI8DgResAddI8DgIVec2DExE8toDoubleERK14DgDistanceBase"
 "_ZNK4DgRFI8DgResAddI8DgIVec2DExE8toStringB5cxx11ERK10DgLocation"
 "_ZNK4DgRFI8DgResAddI8DgIVec2DExE8toStringB5cxx11ERK10DgLocationc"
 "_ZNK4DgRFI8DgResAddI8DgIVec2DExE8toStringB5cxx11ERK11DgLocVector"
 "_ZNK4DgRFI8DgResAddI8DgIVec2DExE8toStringB5cxx11ERK11DgLocVectorc"
 "_ZNK4DgRFI8DgResAddI8DgIVec2DExE8toStringB5cxx11ERK14DgDistanceBase"
 "_ZNK8DgDVec2DcvNSt7__cxx1112basic_stringIcSt11char_traitsIcESaIcEEEEv"
 "_ZNK8DgDiscRFI8DgIVec2D8DgDVec2DeE11setAddPointERKS0_R10DgLocation"
 "_ZNK8DgDiscRFI8DgIVec2D8DgDVec2DeE11setVerticesERK10DgLocationR9DgPolygon"
 "_ZNK8DgDiscRFI8DgIVec2D8DgDVec2DeE11setVerticesERK10DgLocationRK8DgRFBaseR9DgPolygon"
 "_ZNK8DgDiscRFI8DgIVec2D8DgDVec2DeE11setVerticesERKS0_R9DgPolygon"
 "_ZNK8DgDiscRFI8DgIVec2D8DgDVec2DeE11setVerticesERKS0_RK8DgRFBaseR9DgPolygon"
 "_ZNK8DgDiscRFI8DgIVec2D8DgDVec2DeE12makeVerticesERK10DgLocation"
 "_ZNK8DgDiscRFI8DgIVec2D8DgDVec2DeE12makeVerticesERKS0_"
 "_ZNK8DgDiscRFI8DgIVec2D8DgDVec2DeE12setNeighborsERK10DgLocationR11DgLocVector"
 "_ZNK8DgDiscRFI8DgIVec2D8DgDVec2DeE12setNeighborsERKS0_R11DgLocVector"
 "_ZNK8DgDiscRFI8DgIVec2D8DgDVec2DeE12setNeighborsERKS0_RK8DgRFBaseR11DgLocVector"
 "_ZNK8DgDiscRFI8DgIVec2D8DgDVec2DeE13makeNeighborsERK10DgLocation"
 "_ZNK8DgDiscRFI8DgIVec2D8DgDVec2DeE13makeNeighborsERKS0_"
 "_ZNK8DgDiscRFI8DgIVec2D8DgDVec2DeE16DgQuantConverter19convertTypedAddressERKS1_"
 "_ZNK8DgDiscRFI8DgIVec2D8DgDVec2DeE19DgInvQuantConverter19convertTypedAddressERKS0_"
 "_ZNK8DgDiscRFI8DgIVec2D8DgDVec2DeE8dist2dblERKx"
 "_ZNK8DgDiscRFI8DgIVec2D8DgDVec2DeE8dist2intERKx"
 "_ZNK8DgDiscRFI8DgIVec2D8DgDVec2DeE8dist2strB5cxx11ERKx"
 "_ZNK8DgDiscRFI8DgIVec2D8DgDVec2DeE8setPointERK10DgLocationRK8DgRFBaseRS3_"
 "_ZNK8DgDiscRFI8DgIVec2D8DgDVec2DeE8setPointERK10DgLocationRS3_"
 "_ZNK8DgDiscRFI8DgIVec2D8DgDVec2DeE8setPointERKS0_R10DgLocation"
 "_ZNK8DgDiscRFI8DgIVec2D8DgDVec2DeE8setPointERKS0_RK8DgRFBaseR10DgLocation"
 "_ZNK8DgDiscRFI8DgIVec2D8DgDVec2DeE9makePointERK10DgLocation"
 "_ZNK8DgDiscRFI8DgIVec2D8DgDVec2DeE9makePointERKS0_"
 "_ZNK8DgDiscRFI8DgResAddI8DgIVec2DE8DgDVec2DeE11setAddPointERKS2_R10DgLocation"
 "_ZNK8DgDiscRFI8DgResAddI8DgIVec2DE8DgDVec2DeE11setVerticesERK10DgLocationR9DgPolygon"
 "_ZNK8DgDiscRFI8DgResAddI8DgIVec2DE8DgDVec2DeE11setVerticesERK10DgLocationRK8DgRFBaseR9DgPolygon"
 "_ZNK8DgDiscRFI8DgResAddI8DgIVec2DE8DgDVec2DeE11setVerticesERKS2_R9DgPolygon"
 "_ZNK8DgDiscRFI8DgResAddI8DgIVec2DE8DgDVec2DeE11setVerticesERKS2_RK8DgRFBaseR9DgPolygon"
 "_ZNK8DgDiscRFI8DgResAddI8DgIVec2DE8DgDVec2DeE12makeVerticesERK10DgLocation"
 "_ZNK8DgDiscRFI8DgResAddI8DgIVec2DE8DgDVec2DeE12makeVerticesERKS2_"
 "_ZNK8DgDiscRFI8DgResAddI8DgIVec2DE8DgDVec2DeE12setNeighborsERK10DgLocationR11DgLocVector"
 "_ZNK8DgDiscRFI8DgResAddI8DgIVec2DE8DgDVec2DeE12setNeighborsERKS2_R11DgLocVector"
 "_ZNK8DgDiscRFI8DgResAddI8DgIVec2DE8DgDVec2DeE12setNeighborsERKS2_RK8DgRFBaseR11DgLocVector"
 "_ZNK8DgDiscRFI8DgResAddI8DgIVec2DE8DgDVec2DeE13makeNeighborsERK10DgLocation"
 "_ZNK8DgDiscRFI8DgResAddI8DgIVec2DE8DgDVec2DeE13makeNeighborsERKS2_"
 "_ZNK8DgDiscRFI8DgResAddI8DgIVec2DE8DgDVec2DeE16DgQuantConverter19convertTypedAddressERKS3_"
 "_ZNK8DgDiscRFI8DgResAddI8DgIVec2DE8DgDVec2DeE19DgInvQuantConverter19convertTypedAddressERKS2_"
 "_ZNK8DgDiscRFI8DgResAddI8DgIVec2DE8DgDVec2DeE8dist2dblERKx"
 "_ZNK8DgDiscRFI8DgResAddI8DgIVec2DE8DgDVec2DeE8dist2intERKx"
 "_ZNK8DgDiscRFI8DgResAddI8DgIVec2DE8DgDVec2DeE8dist2strB5cxx11ERKx"
 "_ZNK8DgDiscRFI8DgResAddI8DgIVec2DE8DgDVec2DeE8setPointERK10DgLocationRK8DgRFBaseRS5_"
 "_ZNK8DgDiscRFI8DgResAddI8DgIVec2DE8DgDVec2DeE8setPointERK10DgLocationRS5_"
 "_ZNK8DgDiscRFI8DgResAddI8DgIVec2DE8DgDVec2DeE8setPointERKS2_R10DgLocation"
 "_ZNK8DgDiscRFI8DgResAddI8DgIVec2DE8DgDVec2DeE8setPointERKS2_RK8DgRFBaseR10DgLocation"
 "_ZNK8DgDiscRFI8DgResAddI8DgIVec2DE8DgDVec2DeE9makePointERK10DgLocation"
 "_ZNK8DgDiscRFI8DgResAddI8DgIVec2DE8DgDVec2DeE9makePointERKS2_"
 "_ZNK8DgIVec2DcvNSt7__cxx1112basic_stringIcSt11char_traitsIcESaIcEEEEv"
 "_ZNK8DgRFBase10vecAddressERK8DgDVec2D"
 "_ZNK8DgRFBase11vecLocationERK8DgDVec2D"
 "_ZNK8DgRFBase13getVecAddressERK13DgAddressBase"
 "_ZNK8DgRFBase14getVecLocationERK10DgLocation"
 "_ZNK8DgRFBase8undefLocEv"
 "_ZNK8DgRFBaseeqERKS_"
 "_ZNK8DgRFBaseneERKS_"
 "_ZNK8DgResAddI8DgIVec2DEcvNSt7__cxx1112basic_stringIcSt11char_traitsIcESaIcEEEEv"
 "_ZNK9DgAddressI8DgDVec2DE7writeToERSo"
 "_ZNK9DgAddressI8DgIVec2DE7writeToERSo"
 "_ZNK9DgAddressI8DgResAddI8DgIVec2DEE7writeToERSo"
 "_ZNK9DgDiscRFSI8DgIVec2D8DgDVec2DeE10setParentsERK8DgResAddIS0_ER11DgLocVector"
 "_ZNK9DgDiscRFSI8DgIVec2D8DgDVec2DeE10setParentsERK8DgResAddIS0_ERK8DgRFBaseR11DgLocVector"
 "_ZNK9DgDiscRFSI8DgIVec2D8DgDVec2DeE10setParentsEiRK10DgLocationR11DgLocVector"
 "_ZNK9DgDiscRFSI8DgIVec2D8DgDVec2DeE11invQuantifyERK8DgResAddIS0_E"
 "_ZNK9DgDiscRFSI8DgIVec2D8DgDVec2DeE11makeParentsERK8DgResAddIS0_E"
 "_ZNK9DgDiscRFSI8DgIVec2D8DgDVec2DeE11makeParentsEiRK10DgLocation"
 "_ZNK9DgDiscRFSI8DgIVec2D8DgDVec2DeE14setAddVerticesERK8DgResAddIS0_ER9DgPolygon"
 "_ZNK9DgDiscRFSI8DgIVec2D8DgDVec2DeE14setAllChildrenERK8DgResAddIS0_ER11DgLocVector"
 "_ZNK9DgDiscRFSI8DgIVec2D8DgDVec2DeE14setAllChildrenERK8DgResAddIS0_ERK8DgRFBaseR11DgLocVector"
 "_ZNK9DgDiscRFSI8DgIVec2D8DgDVec2DeE14setAllChildrenEiRK10DgLocationR11DgLocVector"
 "_ZNK9DgDiscRFSI8DgIVec2D8DgDVec2DeE15makeAllChildrenERK8DgResAddIS0_E"
 "_ZNK9DgDiscRFSI8DgIVec2D8DgDVec2DeE15makeAllChildrenEiRK10DgLocation"
 "_ZNK9DgDiscRFSI8DgIVec2D8DgDVec2DeE15setAddNeighborsERK8DgResAddIS0_ER11DgLocVector"
 "_ZNK9DgDiscRFSI8DgIVec2D8DgDVec2DeE19setBoundaryChildrenERK8DgResAddIS0_ER11DgLocVector"
 "_ZNK9DgDiscRFSI8DgIVec2D8DgDVec2DeE19setBoundaryChildrenERK8DgResAddIS0_ERK8DgRFBaseR11DgLocVector"
 "_ZNK9DgDiscRFSI8DgIVec2D8DgDVec2DeE19setBoundaryChildrenEiRK10DgLocationR11DgLocVector"
 "_ZNK9DgDiscRFSI8DgIVec2D8DgDVec2DeE19setInteriorChildrenERK8DgResAddIS0_ER11DgLocVector"
 "_ZNK9DgDiscRFSI8DgIVec2D8DgDVec2DeE19setInteriorChildrenERK8DgResAddIS0_ERK8DgRFBaseR11DgLocVector"
 "_ZNK9DgDiscRFSI8DgIVec2D8DgDVec2DeE19setInteriorChildrenEiRK10DgLocationR11DgLocVector"
 "_ZNK9DgDiscRFSI8DgIVec2D8DgDVec2DeE20makeBoundaryChildrenERK8DgResAddIS0_E"
 "_ZNK9DgDiscRFSI8DgIVec2D8DgDVec2DeE20makeBoundaryChildrenEiRK10DgLocation"
 "_ZNK9DgDiscRFSI8DgIVec2D8DgDVec2DeE20makeInteriorChildrenERK8DgResAddIS0_E"
 "_ZNK9DgDiscRFSI8DgIVec2D8DgDVec2DeE20makeInteriorChildrenEiRK10DgLocation"
 "_ZNK9DgDiscRFSI8DgIVec2D8DgDVec2DeE4distERK8DgResAddIS0_ES6_"
 "_ZNK9DgDiscRFSI8DgIVec2D8DgDVec2DeE7add2strB5cxx11ERK8DgResAddIS0_E"
 "_ZNK9DgDiscRFSI8DgIVec2D8DgDVec2DeE7add2strB5cxx11ERK8DgResAddIS0_Ec"
 "_ZNK9DgDiscRFSI8DgIVec2D8DgDVec2DeE7str2addEP8DgResAddIS0_EPKcc"
 "_ZNK9DgDiscRFSI8DgIVec2D8DgDVec2DeE8quantifyERKS1_"
 "_ZNSt6vectorIP13DgAddressBaseSaIS1_EE17_M_realloc_insertIJS1_EEEvN9__gnu_cxx17__normal_iteratorIPS1_S3_EEDpOT_"
 "_ZNSt6vectorIP8DgDiscRFI8DgIVec2D8DgDVec2DeESaIS4_EE17_M_default_appendEj"
 "_ZNSt7__cxx1112basic_stringIcSt11char_traitsIcESaIcEE12_M_constructIPKcEEvT_S8_St20forward_iterator_tag"
 "_ZNSt7__cxx1112basic_stringIcSt11char_traitsIcESaIcEE12_M_constructIPcEEvT_S7_St20forward_iterator_tag"
 "_ZNSt7__cxx1115basic_stringbufIcSt11char_traitsIcESaIcEED1Ev"
 "_ZStplIcSt11char_traitsIcESaIcEENSt7__cxx1112basic_stringIT_T0_T1_EEOS8_S9_"
 "_ZTI10DgDiscRF2D"
 "_ZTI10DgDistanceIeE"
 "_ZTI10DgDistanceIxE"
 "_ZTI11DgConverterI8DgDVec2De8DgIVec2DxE"
 "_ZTI11DgConverterI8DgDVec2De8DgResAddI8DgIVec2DExE"
 "_ZTI11DgConverterI8DgDVec2DeS0_eE"
 "_ZTI11DgConverterI8DgIVec2Dx8DgDVec2DeE"
 "_ZTI11DgConverterI8DgIVec2Dx8DgResAddIS0_ExE"
 "_ZTI11DgConverterI8DgResAddI8DgIVec2DEx8DgDVec2DeE"
 "_ZTI11DgConverterI8DgResAddI8DgIVec2DExS1_xE"
 "_ZTI11DgDiscRFS2D"
 "_ZTI11DgLocVector"
 "_ZTI12DgContCartRF"
 "_ZTI13DgAddressBase"
 "_ZTI14DgDistanceBase"
 "_ZTI14DgSqrD8Grid2DS"
 "_ZTI15DgConverterBase"
 "_ZTI17DgAddResConverterI8DgIVec2D8DgDVec2DeE"
 "_ZTI17DgResAddConverterI8DgIVec2D8DgDVec2DeE"
 "_ZTI21DgContAffineConverter"
 "_ZTI24DgContInvAffineConverter"
 "_ZTI4DgRFI8DgDVec2DeE"
 "_ZTI4DgRFI8DgIVec2DxE"
 "_ZTI4DgRFI8DgResAddI8DgIVec2DExE"
 "_ZTI8DgDiscRFI8DgIVec2D8DgDVec2DeE"
 "_ZTI8DgDiscRFI8DgResAddI8DgIVec2DE8DgDVec2DeE"
 "_ZTI8DgRFBase"
 "_ZTI9DgAddressI8DgDVec2DE"
 "_ZTI9DgAddressI8DgIVec2DE"
 "_ZTI9DgAddressI8DgResAddI8DgIVec2DEE"
 "_ZTI9DgDiscRFSI8DgIVec2D8DgDVec2DeE"
 "_ZTI9DgLocBase"
 "_ZTI9DgPolygon"
 "_ZTIN8DgDiscRFI8DgIVec2D8DgDVec2DeE16DgQuantConverterE"
 "_ZTIN8DgDiscRFI8DgIVec2D8DgDVec2DeE19DgInvQuantConverterE"
 "_ZTIN8DgDiscRFI8DgResAddI8DgIVec2DE8DgDVec2DeE16DgQuantConverterE"
 "_ZTIN8DgDiscRFI8DgResAddI8DgIVec2DE8DgDVec2DeE19DgInvQuantConverterE"
 "_ZTS10DgDiscRF2D"
 "_ZTS10DgDistanceIeE"
 "_ZTS10DgDistanceIxE"
 "_ZTS11DgConverterI8DgDVec2De8DgIVec2DxE"
 "_ZTS11DgConverterI8DgDVec2De8DgResAddI8DgIVec2DExE"
 "_ZTS11DgConverterI8DgDVec2DeS0_eE"
 "_ZTS11DgConverterI8DgIVec2Dx8DgDVec2DeE"
 "_ZTS11DgConverterI8DgIVec2Dx8DgResAddIS0_ExE"
 "_ZTS11DgConverterI8DgResAddI8DgIVec2DEx8DgDVec2DeE"
 "_ZTS11DgConverterI8DgResAddI8DgIVec2DExS1_xE"
 "_ZTS11DgDiscRFS2D"
 "_ZTS11DgLocVector"
 "_ZTS12DgContCartRF"
 "_ZTS13DgAddressBase"
 "_ZTS14DgDistanceBase"
 "_ZTS14DgSqrD8Grid2DS"
 "_ZTS15DgConverterBase"
 "_ZTS17DgAddResConverterI8DgIVec2D8DgDVec2DeE"
 "_ZTS17DgResAddConverterI8DgIVec2D8DgDVec2DeE"
 "_ZTS21DgContAffineConverter"
 "_ZTS24DgContInvAffineConverter"
 "_ZTS4DgRFI8DgDVec2DeE"
 "_ZTS4DgRFI8DgIVec2DxE"
 "_ZTS4DgRFI8DgResAddI8DgIVec2DExE"
 "_ZTS8DgDiscRFI8DgIVec2D8DgDVec2DeE"
 "_ZTS8DgDiscRFI8DgResAddI8DgIVec2DE8DgDVec2DeE"
 "_ZTS8DgRFBase"
 "_ZTS9DgAddressI8DgDVec2DE"
 "_ZTS9DgAddressI8DgIVec2DE"
 "_ZTS9DgAddressI8DgResAddI8DgIVec2DEE"
 "_ZTS9DgDiscRFSI8DgIVec2D8DgDVec2DeE"
 "_ZTS9DgLocBase"
 "_ZTS9DgPolygon"
 "_ZTSN8DgDiscRFI8DgIVec2D8DgDVec2DeE16DgQuantConverterE"
 "_ZTSN8DgDiscRFI8DgIVec2D8DgDVec2DeE19DgInvQuantConverterE"
 "_ZTSN8DgDiscRFI8DgResAddI8DgIVec2DE8DgDVec2DeE16DgQuantConverterE"
 "_ZTSN8DgDiscRFI8DgResAddI8DgIVec2DE8DgDVec2DeE19DgInvQuantConverterE"
 "_ZTV10DgDiscRF2D"
 "_ZTV10DgDistanceIeE"
 "_ZTV10DgDistanceIxE"
 "_ZTV11DgConverterI8DgDVec2De8DgIVec2DxE"
 "_ZTV11DgConverterI8DgDVec2De8DgResAddI8DgIVec2DExE"
 "_ZTV11DgConverterI8DgDVec2DeS0_eE"
 "_ZTV11DgConverterI8DgIVec2Dx8DgDVec2DeE"
 "_ZTV11DgConverterI8DgIVec2Dx8DgResAddIS0_ExE"
 "_ZTV11DgConverterI8DgResAddI8DgIVec2DEx8DgDVec2DeE"
 "_ZTV11DgConverterI8DgResAddI8DgIVec2DExS1_xE"
 "_ZTV11DgDiscRFS2D"
 "_ZTV12DgContCartRF"
 "_ZTV14DgSqrD8Grid2DS"
 "_ZTV17DgAddResConverterI8DgIVec2D8DgDVec2DeE"
 "_ZTV17DgResAddConverterI8DgIVec2D8DgDVec2DeE"
 "_ZTV21DgContAffineConverter"
 "_ZTV24DgContInvAffineConverter"
 "_ZTV4DgRFI8DgDVec2DeE"
 "_ZTV4DgRFI8DgIVec2DxE"
 "_ZTV4DgRFI8DgResAddI8DgIVec2DExE"
 "_ZTV8DgDiscRFI8DgIVec2D8DgDVec2DeE"
 "_ZTV8DgDiscRFI8DgResAddI8DgIVec2DE8DgDVec2DeE"
 "_ZTV9DgAddressI8DgDVec2DE"
 "_ZTV9DgAddressI8DgIVec2DE"
 "_ZTV9DgAddressI8DgResAddI8DgIVec2DEE"
 "_ZTV9DgDiscRFSI8DgIVec2D8DgDVec2DeE"
 "_ZTV9DgPolygon"
 "_ZTVN8DgDiscRFI8DgIVec2D8DgDVec2DeE16DgQuantConverterE"
 "_ZTVN8DgDiscRFI8DgIVec2D8DgDVec2DeE19DgInvQuantConverterE"
 "_ZTVN8DgDiscRFI8DgResAddI8DgIVec2DE8DgDVec2DeE16DgQuantConverterE"
 "_ZTVN8DgDiscRFI8DgResAddI8DgIVec2DE8DgDVec2DeE19DgInvQuantConverterE"
 "_ZZNK11DgDiscRFS2D12undefAddressEvE5undef"
 "_Z15actualRes2sfResi"
 "_Z15sfRes2actualResi"
 "_ZNSt7__cxx1112basic_stringIcSt11char_traitsIcESaIcEE12_M_constructIPKcEEvT_S8_St20forward_iterator_tag"
 "_ZN10DgDistanceIxED0Ev"
 "_ZN10DgDistanceIxED1Ev"
 "_ZN10DgLocation12clearAddressEv"
 "_ZN11DgLocVector9convertToERK8DgRFBase"
 "_ZN11DgTriGrid2DD0Ev"
 "_ZN11DgTriGrid2DD1Ev"
 "_ZN3dgg4util9to_stringIxEENSt7__cxx1112basic_stringIcSt11char_traitsIcESaIcEEERKT_"
 "_ZN4DgRFI8DgIVec2DxE6jumpRFEP10DgLocation"
 "_ZN9DgAddressI8DgDVec2DED0Ev"
 "_ZN9DgAddressI8DgDVec2DED1Ev"
 "_ZN9DgAddressI8DgIVec2DED0Ev"
 "_ZN9DgAddressI8DgIVec2DED1Ev"
 "_ZN9DgPolygonD0Ev"
 "_ZN9DgPolygonD1Ev"
 "_ZNK10DgDiscRF2D12undefAddressEv"
 "_ZNK10DgDiscRF2D7add2strB5cxx11ERK8DgIVec2D"
 "_ZNK10DgDiscRF2D7add2strB5cxx11ERK8DgIVec2Dc"
 "_ZNK10DgDiscRF2D7str2addEP8DgIVec2DPKcc"
 "_ZNK10DgLocation8asStringB5cxx11Ev"
 "_ZNK11DgLocVector11cardinalityEv"
 "_ZNK11DgLocVector15asAddressStringB5cxx11Ec"
 "_ZNK11DgLocVector15asAddressStringB5cxx11Ev"
 "_ZNK11DgLocVector8asStringB5cxx11Ec"
 "_ZNK11DgLocVector8asStringB5cxx11Ev"
 "_ZNK11DgTriGrid2D11invQuantifyERK8DgIVec2D"
 "_ZNK11DgTriGrid2D14setAddVerticesERK8DgIVec2DR9DgPolygon"
 "_ZNK11DgTriGrid2D15setAddNeighborsERK8DgIVec2DR11DgLocVector"
 "_ZNK11DgTriGrid2D4distERK8DgIVec2DS2_"
 "_ZNK11DgTriGrid2D8quantifyERK8DgDVec2D"
 "_ZNK4DgRFI8DgIVec2DxE10fromStringER10DgLocationPKcc"
 "_ZNK4DgRFI8DgIVec2DxE10getAddressERK10DgLocation"
 "_ZNK4DgRFI8DgIVec2DxE11copyAddressERK13DgAddressBasePS2_"
 "_ZNK4DgRFI8DgIVec2DxE12equalAddressERK13DgAddressBaseS4_"
 "_ZNK4DgRFI8DgIVec2DxE12makeLocationERKS0_"
 "_ZNK4DgRFI8DgIVec2DxE13createAddressERK13DgAddressBase"
 "_ZNK4DgRFI8DgIVec2DxE13createAddressEv"
 "_ZNK4DgRFI8DgIVec2DxE14createLocationERK10DgLocationb"
 "_ZNK4DgRFI8DgIVec2DxE15toAddressStringB5cxx11ERK10DgLocation"
 "_ZNK4DgRFI8DgIVec2DxE15toAddressStringB5cxx11ERK10DgLocationc"
 "_ZNK4DgRFI8DgIVec2DxE15toAddressStringB5cxx11ERK11DgLocVector"
 "_ZNK4DgRFI8DgIVec2DxE15toAddressStringB5cxx11ERK11DgLocVectorc"
 "_ZNK4DgRFI8DgIVec2DxE5toIntERK14DgDistanceBase"
 "_ZNK4DgRFI8DgIVec2DxE8distanceERK10DgLocationS4_b"
 "_ZNK4DgRFI8DgIVec2DxE8toDoubleERK14DgDistanceBase"
 "_ZNK4DgRFI8DgIVec2DxE8toStringB5cxx11ERK10DgLocation"
 "_ZNK4DgRFI8DgIVec2DxE8toStringB5cxx11ERK10DgLocationc"
 "_ZNK4DgRFI8DgIVec2DxE8toStringB5cxx11ERK11DgLocVector"
 "_ZNK4DgRFI8DgIVec2DxE8toStringB5cxx11ERK11DgLocVectorc"
 "_ZNK4DgRFI8DgIVec2DxE8toStringB5cxx11ERK14DgDistanceBase"
 "_ZNK8DgDiscRFI8DgIVec2D8DgDVec2DeE11setAddPointERKS0_R10DgLocation"
 "_ZNK8DgDiscRFI8DgIVec2D8DgDVec2DeE11setVerticesERK10DgLocationR9DgPolygon"
 "_ZNK8DgDiscRFI8DgIVec2D8DgDVec2DeE11setVerticesERK10DgLocationRK8DgRFBaseR9DgPolygon"
 "_ZNK8DgDiscRFI8DgIVec2D8DgDVec2DeE11setVerticesERKS0_R9DgPolygon"
 "_ZNK8DgDiscRFI8DgIVec2D8DgDVec2DeE11setVerticesERKS0_RK8DgRFBaseR9DgPolygon"
 "_ZNK8DgDiscRFI8DgIVec2D8DgDVec2DeE12makeVerticesERK10DgLocation"
 "_ZNK8DgDiscRFI8DgIVec2D8DgDVec2DeE12makeVerticesERKS0_"
 "_ZNK8DgDiscRFI8DgIVec2D8DgDVec2DeE12setNeighborsERK10DgLocationR11DgLocVector"
 "_ZNK8DgDiscRFI8DgIVec2D8DgDVec2DeE12setNeighborsERKS0_R11DgLocVector"
 "_ZNK8DgDiscRFI8DgIVec2D8DgDVec2DeE12setNeighborsERKS0_RK8DgRFBaseR11DgLocVector"
 "_ZNK8DgDiscRFI8DgIVec2D8DgDVec2DeE13makeNeighborsERK10DgLocation"
 "_ZNK8DgDiscRFI8DgIVec2D8DgDVec2DeE13makeNeighborsERKS0_"
 "_ZNK8DgDiscRFI8DgIVec2D8DgDVec2DeE8dist2dblERKx"
 "_ZNK8DgDiscRFI8DgIVec2D8DgDVec2DeE8dist2intERKx"
 "_ZNK8DgDiscRFI8DgIVec2D8DgDVec2DeE8dist2strB5cxx11ERKx"
 "_ZNK8DgDiscRFI8DgIVec2D8DgDVec2DeE8setPointERK10DgLocationRK8DgRFBaseRS3_"
 "_ZNK8DgDiscRFI8DgIVec2D8DgDVec2DeE8setPointERK10DgLocationRS3_"
 "_ZNK8DgDiscRFI8DgIVec2D8DgDVec2DeE8setPointERKS0_R10DgLocation"
 "_ZNK8DgDiscRFI8DgIVec2D8DgDVec2DeE8setPointERKS0_RK8DgRFBaseR10DgLocation"
 "_ZNK8DgDiscRFI8DgIVec2D8DgDVec2DeE9makePointERK10DgLocation"
 "_ZNK8DgDiscRFI8DgIVec2D8DgDVec2DeE9makePointERKS0_"
 "_ZNK8DgRFBase10vecAddressERK8DgDVec2D"
 "_ZNK8DgRFBase11vecLocationERK8DgDVec2D"
 "_ZNK8DgRFBase13getVecAddressERK13DgAddressBase"
 "_ZNK8DgRFBase14getVecLocationERK10DgLocation"
 "_ZNK8DgRFBase8undefLocEv"
 "_ZNK8DgRFBaseeqERKS_"
 "_ZNK8DgRFBaseneERKS_"
 "_ZNK9DgAddressI8DgDVec2DE7writeToERSo"
 "_ZNK9DgAddressI8DgIVec2DE7writeToERSo"
 "_ZNSt6vectorIP13DgAddressBaseSaIS1_EE12emplace_backIJS1_EEEvDpOT_"
 "_ZNSt6vectorIP13DgAddressBaseSaIS1_EE17_M_realloc_insertIJS1_EEEvN9__gnu_cxx17__normal_iteratorIPS1_S3_EEDpOT_"
 "_ZNSt7__cxx1112basic_stringIcSt11char_traitsIcESaIcEE12_M_constructIPKcEEvT_S8_St20forward_iterator_tag"
 "_ZNSt7__cxx1112basic_stringIcSt11char_traitsIcESaIcEE12_M_constructIPcEEvT_S7_St20forward_iterator_tag"
 "_ZTI10DgDiscRF2D"
 "_ZTI10DgDistanceIxE"
 "_ZTI11DgLocVector"
 "_ZTI11DgTriGrid2D"
 "_ZTI13DgAddressBase"
 "_ZTI14DgDistanceBase"
 "_ZTI4DgRFI8DgIVec2DxE"
 "_ZTI8DgDiscRFI8DgIVec2D8DgDVec2DeE"
 "_ZTI8DgRFBase"
 "_ZTI9DgAddressI8DgDVec2DE"
 "_ZTI9DgAddressI8DgIVec2DE"
 "_ZTI9DgLocBase"
 "_ZTI9DgPolygon"
 "_ZTS10DgDiscRF2D"
 "_ZTS10DgDistanceIxE"
 "_ZTS11DgLocVector"
 "_ZTS11DgTriGrid2D"
 "_ZTS13DgAddressBase"
 "_ZTS14DgDistanceBase"
 "_ZTS4DgRFI8DgIVec2DxE"
 "_ZTS8DgDiscRFI8DgIVec2D8DgDVec2DeE"
 "_ZTS8DgRFBase"
 "_ZTS9DgAddressI8DgDVec2DE"
 "_ZTS9DgAddressI8DgIVec2DE"
 "_ZTS9DgLocBase"
 "_ZTS9DgPolygon"
 "_ZTV10DgDistanceIxE"
 "_ZTV11DgTriGrid2D"
 "_ZTV4DgRFI8DgIVec2DxE"
 "_ZTV9DgAddressI8DgDVec2DE"
 "_ZTV9DgAddressI8DgIVec2DE"
 "_ZTV9DgPolygon"
 "_ZGVZNK11DgDiscRFS2D12undefAddressEvE5undef"
 "_ZN10DgDistanceIeED0Ev"
 "_ZN10DgDistanceIeED1Ev"
 "_ZN10DgDistanceIxED0Ev"
 "_ZN10DgDistanceIxED1Ev"
 "_ZN10DgLocation12clearAddressEv"
 "_ZN10DgLocationC1ERKS_"
 "_ZN11DgLocVector9convertToERK8DgRFBase"
 "_ZN12DgContCartRFD0Ev"
 "_ZN12DgContCartRFD1Ev"
 "_ZN12DgTriGrid2DSC1ER11DgRFNetworkRK4DgRFI8DgDVec2DeEijbbRKNSt7__cxx1112basic_stringIcSt11char_traitsIcESaIcEEE"
 "_ZN12DgTriGrid2DSC1ERKS_"
 "_ZN12DgTriGrid2DSC2ER11DgRFNetworkRK4DgRFI8DgDVec2DeEijbbRKNSt7__cxx1112basic_stringIcSt11char_traitsIcESaIcEEE"
 "_ZN12DgTriGrid2DSC2ERKS_"
 "_ZN12DgTriGrid2DSD0Ev"
 "_ZN12DgTriGrid2DSD1Ev"
 "_ZN12DgTriGrid2DSD2Ev"
 "_ZN12DgTriGrid2DSaSERKS_"
 "_ZN17DgAddResConverterI8DgIVec2D8DgDVec2DeED0Ev"
 "_ZN17DgAddResConverterI8DgIVec2D8DgDVec2DeED1Ev"
 "_ZN17DgResAddConverterI8DgIVec2D8DgDVec2DeED0Ev"
 "_ZN17DgResAddConverterI8DgIVec2D8DgDVec2DeED1Ev"
 "_ZN21DgContAffineConverterD0Ev"
 "_ZN21DgContAffineConverterD1Ev"
 "_ZN24DgContInvAffineConverterD0Ev"
 "_ZN24DgContInvAffineConverterD1Ev"
 "_ZN3dgg4util9to_stringIiEENSt7__cxx1112basic_stringIcSt11char_traitsIcESaIcEEERKT_"
 "_ZN3dgg4util9to_stringIxEENSt7__cxx1112basic_stringIcSt11char_traitsIcESaIcEEERKT_"
 "_ZN4DgRFI8DgDVec2DeE6jumpRFEP10DgLocation"
 "_ZN4DgRFI8DgIVec2DxE6jumpRFEP10DgLocation"
 "_ZN4DgRFI8DgResAddI8DgIVec2DExE6jumpRFEP10DgLocation"
 "_ZN8DgDiscRFI8DgIVec2D8DgDVec2DeE16DgQuantConverterD0Ev"
 "_ZN8DgDiscRFI8DgIVec2D8DgDVec2DeE16DgQuantConverterD1Ev"
 "_ZN8DgDiscRFI8DgIVec2D8DgDVec2DeE19DgInvQuantConverterD0Ev"
 "_ZN8DgDiscRFI8DgIVec2D8DgDVec2DeE19DgInvQuantConverterD1Ev"
 "_ZN8DgDiscRFI8DgResAddI8DgIVec2DE8DgDVec2DeE16DgQuantConverterD0Ev"
 "_ZN8DgDiscRFI8DgResAddI8DgIVec2DE8DgDVec2DeE16DgQuantConverterD1Ev"
 "_ZN8DgDiscRFI8DgResAddI8DgIVec2DE8DgDVec2DeE19DgInvQuantConverterD0Ev"
 "_ZN8DgDiscRFI8DgResAddI8DgIVec2DE8DgDVec2DeE19DgInvQuantConverterD1Ev"
 "_ZN8DgResAddI8DgIVec2DEaSERKS1_"
 "_ZN9DgAddressI8DgDVec2DED0Ev"
 "_ZN9DgAddressI8DgDVec2DED1Ev"
 "_ZN9DgAddressI8DgIVec2DED0Ev"
 "_ZN9DgAddressI8DgIVec2DED1Ev"
 "_ZN9DgAddressI8DgResAddI8DgIVec2DEED0Ev"
 "_ZN9DgAddressI8DgResAddI8DgIVec2DEED1Ev"
 "_ZN9DgPolygonD0Ev"
 "_ZN9DgPolygonD1Ev"
 "_ZNK10DgDiscRF2D12undefAddressEv"
 "_ZNK10DgDiscRF2D7add2strB5cxx11ERK8DgIVec2D"
 "_ZNK10DgDiscRF2D7add2strB5cxx11ERK8DgIVec2Dc"
 "_ZNK10DgDiscRF2D7str2addEP8DgIVec2DPKcc"
 "_ZNK10DgLocation8asStringB5cxx11Ev"
 "_ZNK11DgConverterI8DgDVec2De8DgIVec2DxE22createConvertedAddressERK13DgAddressBase"
 "_ZNK11DgConverterI8DgDVec2De8DgResAddI8DgIVec2DExE22createConvertedAddressERK13DgAddressBase"
 "_ZNK11DgConverterI8DgDVec2DeS0_eE22createConvertedAddressERK13DgAddressBase"
 "_ZNK11DgConverterI8DgIVec2Dx8DgDVec2DeE22createConvertedAddressERK13DgAddressBase"
 "_ZNK11DgConverterI8DgIVec2Dx8DgResAddIS0_ExE22createConvertedAddressERK13DgAddressBase"
 "_ZNK11DgConverterI8DgResAddI8DgIVec2DEx8DgDVec2DeE22createConvertedAddressERK13DgAddressBase"
 "_ZNK11DgConverterI8DgResAddI8DgIVec2DExS1_xE22createConvertedAddressERK13DgAddressBase"
 "_ZNK11DgDiscRFS2D12undefAddressEv"
 "_ZNK11DgLocVector11cardinalityEv"
 "_ZNK11DgLocVector15asAddressStringB5cxx11Ec"
 "_ZNK11DgLocVector15asAddressStringB5cxx11Ev"
 "_ZNK11DgLocVector8asStringB5cxx11Ec"
 "_ZNK11DgLocVector8asStringB5cxx11Ev"
 "_ZNK12DgContCartRF10vecAddressERK8DgDVec2D"
 "_ZNK12DgContCartRF11vecLocationERK8DgDVec2D"
 "_ZNK12DgContCartRF12undefAddressEv"
 "_ZNK12DgContCartRF13getVecAddressERK13DgAddressBase"
 "_ZNK12DgContCartRF14getVecLocationERK10DgLocation"
 "_ZNK12DgContCartRF4distERK8DgDVec2DS2_"
 "_ZNK12DgContCartRF7add2strB5cxx11ERK8DgDVec2D"
 "_ZNK12DgContCartRF7add2strB5cxx11ERK8DgDVec2Dc"
 "_ZNK12DgContCartRF7str2addEP8DgDVec2DPKcc"
 "_ZNK12DgContCartRF8dist2dblERKe"
 "_ZNK12DgContCartRF8dist2intERKe"
 "_ZNK12DgContCartRF8dist2strB5cxx11ERKe"
 "_ZNK12DgTriGrid2DS13setAddParentsERK8DgResAddI8DgIVec2DER11DgLocVector"
 "_ZNK12DgTriGrid2DS17setAddAllChildrenERK8DgResAddI8DgIVec2DER11DgLocVector"
 "_ZNK12DgTriGrid2DS22setAddBoundaryChildrenERK8DgResAddI8DgIVec2DER11DgLocVector"
 "_ZNK12DgTriGrid2DS22setAddInteriorChildrenERK8DgResAddI8DgIVec2DER11DgLocVector"
 "_ZNK17DgAddResConverterI8DgIVec2D8DgDVec2DeE19convertTypedAddressERKS0_"
 "_ZNK17DgResAddConverterI8DgIVec2D8DgDVec2DeE19convertTypedAddressERK8DgResAddIS0_E"
 "_ZNK21DgContAffineConverter19convertTypedAddressERK8DgDVec2D"
 "_ZNK24DgContInvAffineConverter19convertTypedAddressERK8DgDVec2D"
 "_ZNK4DgRFI8DgDVec2DeE10fromStringER10DgLocationPKcc"
 "_ZNK4DgRFI8DgDVec2DeE10getAddressERK10DgLocation"
 "_ZNK4DgRFI8DgDVec2DeE11copyAddressERK13DgAddressBasePS2_"
 "_ZNK4DgRFI8DgDVec2DeE12equalAddressERK13DgAddressBaseS4_"
 "_ZNK4DgRFI8DgDVec2DeE12makeLocationERKS0_"
 "_ZNK4DgRFI8DgDVec2DeE13createAddressERK13DgAddressBase"
 "_ZNK4DgRFI8DgDVec2DeE13createAddressEv"
 "_ZNK4DgRFI8DgDVec2DeE14createLocationERK10DgLocationb"
 "_ZNK4DgRFI8DgDVec2DeE15toAddressStringB5cxx11ERK10DgLocation"
 "_ZNK4DgRFI8DgDVec2DeE15toAddressStringB5cxx11ERK10DgLocationc"
 "_ZNK4DgRFI8DgDVec2DeE15toAddressStringB5cxx11ERK11DgLocVector"
 "_ZNK4DgRFI8DgDVec2DeE15toAddressStringB5cxx11ERK11DgLocVectorc"
 "_ZNK4DgRFI8DgDVec2DeE5toIntERK14DgDistanceBase"
 "_ZNK4DgRFI8DgDVec2DeE8distanceERK10DgLocationS4_b"
 "_ZNK4DgRFI8DgDVec2DeE8toDoubleERK14DgDistanceBase"
 "_ZNK4DgRFI8DgDVec2DeE8toStringB5cxx11ERK10DgLocation"
 "_ZNK4DgRFI8DgDVec2DeE8toStringB5cxx11ERK10DgLocationc"
 "_ZNK4DgRFI8DgDVec2DeE8toStringB5cxx11ERK11DgLocVector"
 "_ZNK4DgRFI8DgDVec2DeE8toStringB5cxx11ERK11DgLocVectorc"
 "_ZNK4DgRFI8DgDVec2DeE8toStringB5cxx11ERK14DgDistanceBase"
 "_ZNK4DgRFI8DgIVec2DxE10fromStringER10DgLocationPKcc"
 "_ZNK4DgRFI8DgIVec2DxE10getAddressERK10DgLocation"
 "_ZNK4DgRFI8DgIVec2DxE11copyAddressERK13DgAddressBasePS2_"
 "_ZNK4DgRFI8DgIVec2DxE12equalAddressERK13DgAddressBaseS4_"
 "_ZNK4DgRFI8DgIVec2DxE12makeLocationERKS0_"
 "_ZNK4DgRFI8DgIVec2DxE13createAddressERK13DgAddressBase"
 "_ZNK4DgRFI8DgIVec2DxE13createAddressEv"
 "_ZNK4DgRFI8DgIVec2DxE14createLocationERK10DgLocationb"
 "_ZNK4DgRFI8DgIVec2DxE15toAddressStringB5cxx11ERK10DgLocation"
 "_ZNK4DgRFI8DgIVec2DxE15toAddressStringB5cxx11ERK10DgLocationc"
 "_ZNK4DgRFI8DgIVec2DxE15toAddressStringB5cxx11ERK11DgLocVector"
 "_ZNK4DgRFI8DgIVec2DxE15toAddressStringB5cxx11ERK11DgLocVectorc"
 "_ZNK4DgRFI8DgIVec2DxE5toIntERK14DgDistanceBase"
 "_ZNK4DgRFI8DgIVec2DxE8distanceERK10DgLocationS4_b"
 "_ZNK4DgRFI8DgIVec2DxE8toDoubleERK14DgDistanceBase"
 "_ZNK4DgRFI8DgIVec2DxE8toStringB5cxx11ERK10DgLocation"
 "_ZNK4DgRFI8DgIVec2DxE8toStringB5cxx11ERK10DgLocationc"
 "_ZNK4DgRFI8DgIVec2DxE8toStringB5cxx11ERK11DgLocVector"
 "_ZNK4DgRFI8DgIVec2DxE8toStringB5cxx11ERK11DgLocVectorc"
 "_ZNK4DgRFI8DgIVec2DxE8toStringB5cxx11ERK14DgDistanceBase"
 "_ZNK4DgRFI8DgResAddI8DgIVec2DExE10fromStringER10DgLocationPKcc"
 "_ZNK4DgRFI8DgResAddI8DgIVec2DExE10getAddressERK10DgLocation"
 "_ZNK4DgRFI8DgResAddI8DgIVec2DExE11copyAddressERK13DgAddressBasePS4_"
 "_ZNK4DgRFI8DgResAddI8DgIVec2DExE12equalAddressERK13DgAddressBaseS6_"
 "_ZNK4DgRFI8DgResAddI8DgIVec2DExE12makeLocationERKS2_"
 "_ZNK4DgRFI8DgResAddI8DgIVec2DExE13createAddressERK13DgAddressBase"
 "_ZNK4DgRFI8DgResAddI8DgIVec2DExE13createAddressEv"
 "_ZNK4DgRFI8DgResAddI8DgIVec2DExE14createLocationERK10DgLocationb"
 "_ZNK4DgRFI8DgResAddI8DgIVec2DExE15toAddressStringB5cxx11ERK10DgLocation"
 "_ZNK4DgRFI8DgResAddI8DgIVec2DExE15toAddressStringB5cxx11ERK10DgLocationc"
 "_ZNK4DgRFI8DgResAddI8DgIVec2DExE15toAddressStringB5cxx11ERK11DgLocVector"
 "_ZNK4DgRFI8DgResAddI8DgIVec2DExE15toAddressStringB5cxx11ERK11DgLocVectorc"
 "_ZNK4DgRFI8DgResAddI8DgIVec2DExE5toIntERK14DgDistanceBase"
 "_ZNK4DgRFI8DgResAddI8DgIVec2DExE8distanceERK10DgLocationS6_b"
 "_ZNK4DgRFI8DgResAddI8DgIVec2DExE8toDoubleERK14DgDistanceBase"
 "_ZNK4DgRFI8DgResAddI8DgIVec2DExE8toStringB5cxx11ERK10DgLocation"
 "_ZNK4DgRFI8DgResAddI8DgIVec2DExE8toStringB5cxx11ERK10DgLocationc"
 "_ZNK4DgRFI8DgResAddI8DgIVec2DExE8toStringB5cxx11ERK11DgLocVector"
 "_ZNK4DgRFI8DgResAddI8DgIVec2DExE8toStringB5cxx11ERK11DgLocVectorc"
 "_ZNK4DgRFI8DgResAddI8DgIVec2DExE8toStringB5cxx11ERK14DgDistanceBase"
 "_ZNK8DgDVec2DcvNSt7__cxx1112basic_stringIcSt11char_traitsIcESaIcEEEEv"
 "_ZNK8DgDiscRFI8DgIVec2D8DgDVec2DeE11setAddPointERKS0_R10DgLocation"
 "_ZNK8DgDiscRFI8DgIVec2D8DgDVec2DeE11setVerticesERK10DgLocationR9DgPolygon"
 "_ZNK8DgDiscRFI8DgIVec2D8DgDVec2DeE11setVerticesERK10DgLocationRK8DgRFBaseR9DgPolygon"
 "_ZNK8DgDiscRFI8DgIVec2D8DgDVec2DeE11setVerticesERKS0_R9DgPolygon"
 "_ZNK8DgDiscRFI8DgIVec2D8DgDVec2DeE11setVerticesERKS0_RK8DgRFBaseR9DgPolygon"
 "_ZNK8DgDiscRFI8DgIVec2D8DgDVec2DeE12makeVerticesERK10DgLocation"
 "_ZNK8DgDiscRFI8DgIVec2D8DgDVec2DeE12makeVerticesERKS0_"
 "_ZNK8DgDiscRFI8DgIVec2D8DgDVec2DeE12setNeighborsERK10DgLocationR11DgLocVector"
 "_ZNK8DgDiscRFI8DgIVec2D8DgDVec2DeE12setNeighborsERKS0_R11DgLocVector"
 "_ZNK8DgDiscRFI8DgIVec2D8DgDVec2DeE12setNeighborsERKS0_RK8DgRFBaseR11DgLocVector"
 "_ZNK8DgDiscRFI8DgIVec2D8DgDVec2DeE13makeNeighborsERK10DgLocation"
 "_ZNK8DgDiscRFI8DgIVec2D8DgDVec2DeE13makeNeighborsERKS0_"
 "_ZNK8DgDiscRFI8DgIVec2D8DgDVec2DeE16DgQuantConverter19convertTypedAddressERKS1_"
 "_ZNK8DgDiscRFI8DgIVec2D8DgDVec2DeE19DgInvQuantConverter19convertTypedAddressERKS0_"
 "_ZNK8DgDiscRFI8DgIVec2D8DgDVec2DeE8dist2dblERKx"
 "_ZNK8DgDiscRFI8DgIVec2D8DgDVec2DeE8dist2intERKx"
 "_ZNK8DgDiscRFI8DgIVec2D8DgDVec2DeE8dist2strB5cxx11ERKx"
 "_ZNK8DgDiscRFI8DgIVec2D8DgDVec2DeE8setPointERK10DgLocationRK8DgRFBaseRS3_"
 "_ZNK8DgDiscRFI8DgIVec2D8DgDVec2DeE8setPointERK10DgLocationRS3_"
 "_ZNK8DgDiscRFI8DgIVec2D8DgDVec2DeE8setPointERKS0_R10DgLocation"
 "_ZNK8DgDiscRFI8DgIVec2D8DgDVec2DeE8setPointERKS0_RK8DgRFBaseR10DgLocation"
 "_ZNK8DgDiscRFI8DgIVec2D8DgDVec2DeE9makePointERK10DgLocation"
 "_ZNK8DgDiscRFI8DgIVec2D8DgDVec2DeE9makePointERKS0_"
 "_ZNK8DgDiscRFI8DgResAddI8DgIVec2DE8DgDVec2DeE11setAddPointERKS2_R10DgLocation"
 "_ZNK8DgDiscRFI8DgResAddI8DgIVec2DE8DgDVec2DeE11setVerticesERK10DgLocationR9DgPolygon"
 "_ZNK8DgDiscRFI8DgResAddI8DgIVec2DE8DgDVec2DeE11setVerticesERK10DgLocationRK8DgRFBaseR9DgPolygon"
 "_ZNK8DgDiscRFI8DgResAddI8DgIVec2DE8DgDVec2DeE11setVerticesERKS2_R9DgPolygon"
 "_ZNK8DgDiscRFI8DgResAddI8DgIVec2DE8DgDVec2DeE11setVerticesERKS2_RK8DgRFBaseR9DgPolygon"
 "_ZNK8DgDiscRFI8DgResAddI8DgIVec2DE8DgDVec2DeE12makeVerticesERK10DgLocation"
 "_ZNK8DgDiscRFI8DgResAddI8DgIVec2DE8DgDVec2DeE12makeVerticesERKS2_"
 "_ZNK8DgDiscRFI8DgResAddI8DgIVec2DE8DgDVec2DeE12setNeighborsERK10DgLocationR11DgLocVector"
 "_ZNK8DgDiscRFI8DgResAddI8DgIVec2DE8DgDVec2DeE12setNeighborsERKS2_R11DgLocVector"
 "_ZNK8DgDiscRFI8DgResAddI8DgIVec2DE8DgDVec2DeE12setNeighborsERKS2_RK8DgRFBaseR11DgLocVector"
 "_ZNK8DgDiscRFI8DgResAddI8DgIVec2DE8DgDVec2DeE13makeNeighborsERK10DgLocation"
 "_ZNK8DgDiscRFI8DgResAddI8DgIVec2DE8DgDVec2DeE13makeNeighborsERKS2_"
 "_ZNK8DgDiscRFI8DgResAddI8DgIVec2DE8DgDVec2DeE16DgQuantConverter19convertTypedAddressERKS3_"
 "_ZNK8DgDiscRFI8DgResAddI8DgIVec2DE8DgDVec2DeE19DgInvQuantConverter19convertTypedAddressERKS2_"
 "_ZNK8DgDiscRFI8DgResAddI8DgIVec2DE8DgDVec2DeE8dist2dblERKx"
 "_ZNK8DgDiscRFI8DgResAddI8DgIVec2DE8DgDVec2DeE8dist2intERKx"
 "_ZNK8DgDiscRFI8DgResAddI8DgIVec2DE8DgDVec2DeE8dist2strB5cxx11ERKx"
 "_ZNK8DgDiscRFI8DgResAddI8DgIVec2DE8DgDVec2DeE8setPointERK10DgLocationRK8DgRFBaseRS5_"
 "_ZNK8DgDiscRFI8DgResAddI8DgIVec2DE8DgDVec2DeE8setPointERK10DgLocationRS5_"
 "_ZNK8DgDiscRFI8DgResAddI8DgIVec2DE8DgDVec2DeE8setPointERKS2_R10DgLocation"
 "_ZNK8DgDiscRFI8DgResAddI8DgIVec2DE8DgDVec2DeE8setPointERKS2_RK8DgRFBaseR10DgLocation"
 "_ZNK8DgDiscRFI8DgResAddI8DgIVec2DE8DgDVec2DeE9makePointERK10DgLocation"
 "_ZNK8DgDiscRFI8DgResAddI8DgIVec2DE8DgDVec2DeE9makePointERKS2_"
 "_ZNK8DgIVec2DcvNSt7__cxx1112basic_stringIcSt11char_traitsIcESaIcEEEEv"
 "_ZNK8DgRFBase10vecAddressERK8DgDVec2D"
 "_ZNK8DgRFBase11vecLocationERK8DgDVec2D"
 "_ZNK8DgRFBase13getVecAddressERK13DgAddressBase"
 "_ZNK8DgRFBase14getVecLocationERK10DgLocation"
 "_ZNK8DgRFBase8undefLocEv"
 "_ZNK8DgRFBaseeqERKS_"
 "_ZNK8DgRFBaseneERKS_"
 "_ZNK8DgResAddI8DgIVec2DEcvNSt7__cxx1112basic_stringIcSt11char_traitsIcESaIcEEEEv"
 "_ZNK9DgAddressI8DgDVec2DE7writeToERSo"
 "_ZNK9DgAddressI8DgIVec2DE7writeToERSo"
 "_ZNK9DgAddressI8DgResAddI8DgIVec2DEE7writeToERSo"
 "_ZNK9DgDiscRFSI8DgIVec2D8DgDVec2DeE10setParentsERK8DgResAddIS0_ER11DgLocVector"
 "_ZNK9DgDiscRFSI8DgIVec2D8DgDVec2DeE10setParentsERK8DgResAddIS0_ERK8DgRFBaseR11DgLocVector"
 "_ZNK9DgDiscRFSI8DgIVec2D8DgDVec2DeE10setParentsEiRK10DgLocationR11DgLocVector"
 "_ZNK9DgDiscRFSI8DgIVec2D8DgDVec2DeE11invQuantifyERK8DgResAddIS0_E"
 "_ZNK9DgDiscRFSI8DgIVec2D8DgDVec2DeE11makeParentsERK8DgResAddIS0_E"
 "_ZNK9DgDiscRFSI8DgIVec2D8DgDVec2DeE11makeParentsEiRK10DgLocation"
 "_ZNK9DgDiscRFSI8DgIVec2D8DgDVec2DeE14setAddVerticesERK8DgResAddIS0_ER9DgPolygon"
 "_ZNK9DgDiscRFSI8DgIVec2D8DgDVec2DeE14setAllChildrenERK8DgResAddIS0_ER11DgLocVector"
 "_ZNK9DgDiscRFSI8DgIVec2D8DgDVec2DeE14setAllChildrenERK8DgResAddIS0_ERK8DgRFBaseR11DgLocVector"
 "_ZNK9DgDiscRFSI8DgIVec2D8DgDVec2DeE14setAllChildrenEiRK10DgLocationR11DgLocVector"
 "_ZNK9DgDiscRFSI8DgIVec2D8DgDVec2DeE15makeAllChildrenERK8DgResAddIS0_E"
 "_ZNK9DgDiscRFSI8DgIVec2D8DgDVec2DeE15makeAllChildrenEiRK10DgLocation"
 "_ZNK9DgDiscRFSI8DgIVec2D8DgDVec2DeE15setAddNeighborsERK8DgResAddIS0_ER11DgLocVector"
 "_ZNK9DgDiscRFSI8DgIVec2D8DgDVec2DeE19setBoundaryChildrenERK8DgResAddIS0_ER11DgLocVector"
 "_ZNK9DgDiscRFSI8DgIVec2D8DgDVec2DeE19setBoundaryChildrenERK8DgResAddIS0_ERK8DgRFBaseR11DgLocVector"
 "_ZNK9DgDiscRFSI8DgIVec2D8DgDVec2DeE19setBoundaryChildrenEiRK10DgLocationR11DgLocVector"
 "_ZNK9DgDiscRFSI8DgIVec2D8DgDVec2DeE19setInteriorChildrenERK8DgResAddIS0_ER11DgLocVector"
 "_ZNK9DgDiscRFSI8DgIVec2D8DgDVec2DeE19setInteriorChildrenERK8DgResAddIS0_ERK8DgRFBaseR11DgLocVector"
 "_ZNK9DgDiscRFSI8DgIVec2D8DgDVec2DeE19setInteriorChildrenEiRK10DgLocationR11DgLocVector"
 "_ZNK9DgDiscRFSI8DgIVec2D8DgDVec2DeE20makeBoundaryChildrenERK8DgResAddIS0_E"
 "_ZNK9DgDiscRFSI8DgIVec2D8DgDVec2DeE20makeBoundaryChildrenEiRK10DgLocation"
 "_ZNK9DgDiscRFSI8DgIVec2D8DgDVec2DeE20makeInteriorChildrenERK8DgResAddIS0_E"
 "_ZNK9DgDiscRFSI8DgIVec2D8DgDVec2DeE20makeInteriorChildrenEiRK10DgLocation"
 "_ZNK9DgDiscRFSI8DgIVec2D8DgDVec2DeE4distERK8DgResAddIS0_ES6_"
 "_ZNK9DgDiscRFSI8DgIVec2D8DgDVec2DeE7add2strB5cxx11ERK8DgResAddIS0_E"
 "_ZNK9DgDiscRFSI8DgIVec2D8DgDVec2DeE7add2strB5cxx11ERK8DgResAddIS0_Ec"
 "_ZNK9DgDiscRFSI8DgIVec2D8DgDVec2DeE7str2addEP8DgResAddIS0_EPKcc"
 "_ZNK9DgDiscRFSI8DgIVec2D8DgDVec2DeE8quantifyERKS1_"
 "_ZNSt6vectorIP13DgAddressBaseSaIS1_EE12emplace_backIJS1_EEEvDpOT_"
 "_ZNSt6vectorIP13DgAddressBaseSaIS1_EE17_M_realloc_insertIJS1_EEEvN9__gnu_cxx17__normal_iteratorIPS1_S3_EEDpOT_"
 "_ZNSt6vectorIP8DgDiscRFI8DgIVec2D8DgDVec2DeESaIS4_EE17_M_default_appendEj"
 "_ZNSt7__cxx1112basic_stringIcSt11char_traitsIcESaIcEE12_M_constructIPKcEEvT_S8_St20forward_iterator_tag"
 "_ZNSt7__cxx1112basic_stringIcSt11char_traitsIcESaIcEE12_M_constructIPcEEvT_S7_St20forward_iterator_tag"
 "_ZNSt7__cxx1115basic_stringbufIcSt11char_traitsIcESaIcEED1Ev"
 "_ZStplIcSt11char_traitsIcESaIcEENSt7__cxx1112basic_stringIT_T0_T1_EEOS8_S9_"
 "_ZTI10DgDiscRF2D"
 "_ZTI10DgDistanceIeE"
 "_ZTI10DgDistanceIxE"
 "_ZTI11DgConverterI8DgDVec2De8DgIVec2DxE"
 "_ZTI11DgConverterI8DgDVec2De8DgResAddI8DgIVec2DExE"
 "_ZTI11DgConverterI8DgDVec2DeS0_eE"
 "_ZTI11DgConverterI8DgIVec2Dx8DgDVec2DeE"
 "_ZTI11DgConverterI8DgIVec2Dx8DgResAddIS0_ExE"
 "_ZTI11DgConverterI8DgResAddI8DgIVec2DEx8DgDVec2DeE"
 "_ZTI11DgConverterI8DgResAddI8DgIVec2DExS1_xE"
 "_ZTI11DgDiscRFS2D"
 "_ZTI11DgLocVector"
 "_ZTI12DgContCartRF"
 "_ZTI12DgTriGrid2DS"
 "_ZTI13DgAddressBase"
 "_ZTI14DgDistanceBase"
 "_ZTI15DgConverterBase"
 "_ZTI17DgAddResConverterI8DgIVec2D8DgDVec2DeE"
 "_ZTI17DgResAddConverterI8DgIVec2D8DgDVec2DeE"
 "_ZTI21DgContAffineConverter"
 "_ZTI24DgContInvAffineConverter"
 "_ZTI4DgRFI8DgDVec2DeE"
 "_ZTI4DgRFI8DgIVec2DxE"
 "_ZTI4DgRFI8DgResAddI8DgIVec2DExE"
 "_ZTI8DgDiscRFI8DgIVec2D8DgDVec2DeE"
 "_ZTI8DgDiscRFI8DgResAddI8DgIVec2DE8DgDVec2DeE"
 "_ZTI8DgRFBase"
 "_ZTI9DgAddressI8DgDVec2DE"
 "_ZTI9DgAddressI8DgIVec2DE"
 "_ZTI9DgAddressI8DgResAddI8DgIVec2DEE"
 "_ZTI9DgDiscRFSI8DgIVec2D8DgDVec2DeE"
 "_ZTI9DgLocBase"
 "_ZTI9DgPolygon"
 "_ZTIN8DgDiscRFI8DgIVec2D8DgDVec2DeE16DgQuantConverterE"
 "_ZTIN8DgDiscRFI8DgIVec2D8DgDVec2DeE19DgInvQuantConverterE"
 "_ZTIN8DgDiscRFI8DgResAddI8DgIVec2DE8DgDVec2DeE16DgQuantConverterE"
 "_ZTIN8DgDiscRFI8DgResAddI8DgIVec2DE8DgDVec2DeE19DgInvQuantConverterE"
 "_ZTS10DgDiscRF2D"
 "_ZTS10DgDistanceIeE"
 "_ZTS10DgDistanceIxE"
 "_ZTS11DgConverterI8DgDVec2De8DgIVec2DxE"
 "_ZTS11DgConverterI8DgDVec2De8DgResAddI8DgIVec2DExE"
 "_ZTS11DgConverterI8DgDVec2DeS0_eE"
 "_ZTS11DgConverterI8DgIVec2Dx8DgDVec2DeE"
 "_ZTS11DgConverterI8DgIVec2Dx8DgResAddIS0_ExE"
 "_ZTS11DgConverterI8DgResAddI8DgIVec2DEx8DgDVec2DeE"
 "_ZTS11DgConverterI8DgResAddI8DgIVec2DExS1_xE"
 "_ZTS11DgDiscRFS2D"
 "_ZTS11DgLocVector"
 "_ZTS12DgContCartRF"
 "_ZTS12DgTriGrid2DS"
 "_ZTS13DgAddressBase"
 "_ZTS14DgDistanceBase"
 "_ZTS15DgConverterBase"
 "_ZTS17DgAddResConverterI8DgIVec2D8DgDVec2DeE"
 "_ZTS17DgResAddConverterI8DgIVec2D8DgDVec2DeE"
 "_ZTS21DgContAffineConverter"
 "_ZTS24DgContInvAffineConverter"
 "_ZTS4DgRFI8DgDVec2DeE"
 "_ZTS4DgRFI8DgIVec2DxE"
 "_ZTS4DgRFI8DgResAddI8DgIVec2DExE"
 "_ZTS8DgDiscRFI8DgIVec2D8DgDVec2DeE"
 "_ZTS8DgDiscRFI8DgResAddI8DgIVec2DE8DgDVec2DeE"
 "_ZTS8DgRFBase"
 "_ZTS9DgAddressI8DgDVec2DE"
 "_ZTS9DgAddressI8DgIVec2DE"
 "_ZTS9DgAddressI8DgResAddI8DgIVec2DEE"
 "_ZTS9DgDiscRFSI8DgIVec2D8DgDVec2DeE"
 "_ZTS9DgLocBase"
 "_ZTS9DgPolygon"
 "_ZTSN8DgDiscRFI8DgIVec2D8DgDVec2DeE16DgQuantConverterE"
 "_ZTSN8DgDiscRFI8DgIVec2D8DgDVec2DeE19DgInvQuantConverterE"
 "_ZTSN8DgDiscRFI8DgResAddI8DgIVec2DE8DgDVec2DeE16DgQuantConverterE"
 "_ZTSN8DgDiscRFI8DgResAddI8DgIVec2DE8DgDVec2DeE19DgInvQuantConverterE"
 "_ZTV10DgDiscRF2D"
 "_ZTV10DgDistanceIeE"
 "_ZTV10DgDistanceIxE"
 "_ZTV11DgConverterI8DgDVec2De8DgIVec2DxE"
 "_ZTV11DgConverterI8DgDVec2De8DgResAddI8DgIVec2DExE"
 "_ZTV11DgConverterI8DgDVec2DeS0_eE"
 "_ZTV11DgConverterI8DgIVec2Dx8DgDVec2DeE"
 "_ZTV11DgConverterI8DgIVec2Dx8DgResAddIS0_ExE"
 "_ZTV11DgConverterI8DgResAddI8DgIVec2DEx8DgDVec2DeE"
 "_ZTV11DgConverterI8DgResAddI8DgIVec2DExS1_xE"
 "_ZTV11DgDiscRFS2D"
 "_ZTV12DgContCartRF"
 "_ZTV12DgTriGrid2DS"
 "_ZTV17DgAddResConverterI8DgIVec2D8DgDVec2DeE"
 "_ZTV17DgResAddConverterI8DgIVec2D8DgDVec2DeE"
 "_ZTV21DgContAffineConverter"
 "_ZTV24DgContInvAffineConverter"
 "_ZTV4DgRFI8DgDVec2DeE"
 "_ZTV4DgRFI8DgIVec2DxE"
 "_ZTV4DgRFI8DgResAddI8DgIVec2DExE"
 "_ZTV8DgDiscRFI8DgIVec2D8DgDVec2DeE"
 "_ZTV8DgDiscRFI8DgResAddI8DgIVec2DE8DgDVec2DeE"
 "_ZTV9DgAddressI8DgDVec2DE"
 "_ZTV9DgAddressI8DgIVec2DE"
 "_ZTV9DgAddressI8DgResAddI8DgIVec2DEE"
 "_ZTV9DgDiscRFSI8DgIVec2D8DgDVec2DeE"
 "_ZTV9DgPolygon"
 "_ZTVN8DgDiscRFI8DgIVec2D8DgDVec2DeE16DgQuantConverterE"
 "_ZTVN8DgDiscRFI8DgIVec2D8DgDVec2DeE19DgInvQuantConverterE"
 "_ZTVN8DgDiscRFI8DgResAddI8DgIVec2DE8DgDVec2DeE16DgQuantConverterE"
 "_ZTVN8DgDiscRFI8DgResAddI8DgIVec2DE8DgDVec2DeE19DgInvQuantConverterE"
 "_ZZNK11DgDiscRFS2D12undefAddressEvE5undef"
 "_ZN3dgg4util4rintERKf"
 "R_init_dggridR"
 "_ZN4Rcpp10RstreambufILb0EE4syncEv"
 "_ZN4Rcpp10RstreambufILb0EE6xsputnEPKci"
 "_ZN4Rcpp10RstreambufILb0EE8overflowEi"
 "_ZN4Rcpp10RstreambufILb0EED0Ev"
 "_ZN4Rcpp10RstreambufILb0EED1Ev"
 "_ZN4Rcpp10RstreambufILb1EE4syncEv"
 "_ZN4Rcpp10RstreambufILb1EE6xsputnEPKci"
 "_ZN4Rcpp10RstreambufILb1EE8overflowEi"
 "_ZN4Rcpp10RstreambufILb1EED0Ev"
 "_ZN4Rcpp10RstreambufILb1EED1Ev"
 "_ZN4Rcpp8RostreamILb0EED0Ev"
 "_ZN4Rcpp8RostreamILb0EED1Ev"
 "_ZN4Rcpp8RostreamILb1EED0Ev"
 "_ZN4Rcpp8RostreamILb1EED1Ev"
 "_ZTCN4Rcpp8RostreamILb0EEE0_So"
 "_ZTCN4Rcpp8RostreamILb1EEE0_So"
 "_ZTIN4Rcpp10RstreambufILb0EEE"
 "_ZTIN4Rcpp10RstreambufILb1EEE"
 "_ZTIN4Rcpp8RostreamILb0EEE"
 "_ZTIN4Rcpp8RostreamILb1EEE"
 "_ZTSN4Rcpp10RstreambufILb0EEE"
 "_ZTSN4Rcpp10RstreambufILb1EEE"
 "_ZTSN4Rcpp8RostreamILb0EEE"
 "_ZTSN4Rcpp8RostreamILb1EEE"
 "_ZTTN4Rcpp8RostreamILb0EEE"
 "_ZTTN4Rcpp8RostreamILb1EEE"
 "_ZTVN4Rcpp10RstreambufILb0EEE"
 "_ZTVN4Rcpp10RstreambufILb1EEE"
 "_ZTVN4Rcpp8RostreamILb0EEE"
 "_ZTVN4Rcpp8RostreamILb1EEE"
 "_ZTv0_n12_N4Rcpp8RostreamILb0EED0Ev"
 "_ZTv0_n12_N4Rcpp8RostreamILb0EED1Ev"
 "_ZTv0_n12_N4Rcpp8RostreamILb1EED0Ev"
 "_ZTv0_n12_N4Rcpp8RostreamILb1EED1Ev"
 "_Z10GEO_to_GEOeeejiNSt7__cxx1112basic_stringIcSt11char_traitsIcESaIcEEES4_jN4Rcpp6VectorILi14ENS5_15PreserveStorageEEES8_S8_S8_"
 "_Z10GlobalGrideeejiNSt7__cxx1112basic_stringIcSt11char_traitsIcESaIcEEES4_"
 "_Z10SeqNumGrideeejiNSt7__cxx1112basic_stringIcSt11char_traitsIcESaIcEEES4_N4Rcpp6VectorILi14ENS5_15PreserveStorageEEE"
 "_Z11GEO_to_Q2DDeeejiNSt7__cxx1112basic_stringIcSt11char_traitsIcESaIcEEES4_jN4Rcpp6VectorILi14ENS5_15PreserveStorageEEES8_S8_S8_S8_"
 "_Z11GEO_to_Q2DIeeejiNSt7__cxx1112basic_stringIcSt11char_traitsIcESaIcEEES4_jN4Rcpp6VectorILi14ENS5_15PreserveStorageEEES8_S8_S8_S8_"
 "_Z11Q2DD_to_GEOeeejiNSt7__cxx1112basic_stringIcSt11char_traitsIcESaIcEEES4_jN4Rcpp6VectorILi14ENS5_15PreserveStorageEEES8_S8_S8_S8_"
 "_Z11Q2DI_to_GEOeeejiNSt7__cxx1112basic_stringIcSt11char_traitsIcESaIcEEES4_jN4Rcpp6VectorILi14ENS5_15PreserveStorageEEES8_S8_S8_S8_"
 "_Z12GEO_to_PLANEeeejiNSt7__cxx1112basic_stringIcSt11char_traitsIcESaIcEEES4_jN4Rcpp6VectorILi14ENS5_15PreserveStorageEEES8_S8_S8_"
 "_Z12GridStat_clsNSt7__cxx1112basic_stringIcSt11char_traitsIcESaIcEEES4_ii"
 "_Z12Q2DD_to_Q2DDeeejiNSt7__cxx1112basic_stringIcSt11char_traitsIcESaIcEEES4_jN4Rcpp6VectorILi14ENS5_15PreserveStorageEEES8_S8_S8_S8_S8_"
 "_Z12Q2DD_to_Q2DIeeejiNSt7__cxx1112basic_stringIcSt11char_traitsIcESaIcEEES4_jN4Rcpp6VectorILi14ENS5_15PreserveStorageEEES8_S8_S8_S8_S8_"
 "_Z12Q2DI_to_Q2DDeeejiNSt7__cxx1112basic_stringIcSt11char_traitsIcESaIcEEES4_jN4Rcpp6VectorILi14ENS5_15PreserveStorageEEES8_S8_S8_S8_S8_"
 "_Z12Q2DI_to_Q2DIeeejiNSt7__cxx1112basic_stringIcSt11char_traitsIcESaIcEEES4_jN4Rcpp6VectorILi14ENS5_15PreserveStorageEEES8_S8_S8_S8_S8_"
 "_Z13GEO_to_SEQNUMeeejiNSt7__cxx1112basic_stringIcSt11char_traitsIcESaIcEEES4_jN4Rcpp6VectorILi14ENS5_15PreserveStorageEEES8_S8_"
 "_Z13Q2DD_to_PLANEeeejiNSt7__cxx1112basic_stringIcSt11char_traitsIcESaIcEEES4_jN4Rcpp6VectorILi14ENS5_15PreserveStorageEEES8_S8_S8_S8_"
 "_Z13Q2DI_to_PLANEeeejiNSt7__cxx1112basic_stringIcSt11char_traitsIcESaIcEEES4_jN4Rcpp6VectorILi14ENS5_15PreserveStorageEEES8_S8_S8_S8_"
 "_Z13SEQNUM_to_GEOeeejiNSt7__cxx1112basic_stringIcSt11char_traitsIcESaIcEEES4_jN4Rcpp6VectorILi14ENS5_15PreserveStorageEEES8_S8_"
 "_Z13get_last_callv"
 "_Z14GEO_to_PROJTRIeeejiNSt7__cxx1112basic_stringIcSt11char_traitsIcESaIcEEES4_jN4Rcpp6VectorILi14ENS5_15PreserveStorageEEES8_S8_S8_S8_"
 "_Z14PROJTRI_to_GEOeeejiNSt7__cxx1112basic_stringIcSt11char_traitsIcESaIcEEES4_jN4Rcpp6VectorILi14ENS5_15PreserveStorageEEES8_S8_S8_S8_"
 "_Z14Q2DD_to_SEQNUMeeejiNSt7__cxx1112basic_stringIcSt11char_traitsIcESaIcEEES4_jN4Rcpp6VectorILi14ENS5_15PreserveStorageEEES8_S8_S8_"
 "_Z14Q2DI_to_SEQNUMeeejiNSt7__cxx1112basic_stringIcSt11char_traitsIcESaIcEEES4_jN4Rcpp6VectorILi14ENS5_15PreserveStorageEEES8_S8_S8_"
 "_Z14SEQNUM_to_Q2DDeeejiNSt7__cxx1112basic_stringIcSt11char_traitsIcESaIcEEES4_jN4Rcpp6VectorILi14ENS5_15PreserveStorageEEES8_S8_S8_"
 "_Z14SEQNUM_to_Q2DIeeejiNSt7__cxx1112basic_stringIcSt11char_traitsIcESaIcEEES4_jN4Rcpp6VectorILi14ENS5_15PreserveStorageEEES8_S8_S8_"
 "_Z14make_conditionRKNSt7__cxx1112basic_stringIcSt11char_traitsIcESaIcEEEP7SEXPRECS8_S8_"
 "_Z15GridStat_nCellsNSt7__cxx1112basic_stringIcSt11char_traitsIcESaIcEEES4_ii"
 "_Z15PROJTRI_to_Q2DDeeejiNSt7__cxx1112basic_stringIcSt11char_traitsIcESaIcEEES4_jN4Rcpp6VectorILi14ENS5_15PreserveStorageEEES8_S8_S8_S8_S8_"
 "_Z15PROJTRI_to_Q2DIeeejiNSt7__cxx1112basic_stringIcSt11char_traitsIcESaIcEEES4_jN4Rcpp6VectorILi14ENS5_15PreserveStorageEEES8_S8_S8_S8_S8_"
 "_Z15Q2DD_to_PROJTRIeeejiNSt7__cxx1112basic_stringIcSt11char_traitsIcESaIcEEES4_jN4Rcpp6VectorILi14ENS5_15PreserveStorageEEES8_S8_S8_S8_S8_"
 "_Z15Q2DI_to_PROJTRIeeejiNSt7__cxx1112basic_stringIcSt11char_traitsIcESaIcEEES4_jN4Rcpp6VectorILi14ENS5_15PreserveStorageEEES8_S8_S8_S8_S8_"
 "_Z15SEQNUM_to_PLANEeeejiNSt7__cxx1112basic_stringIcSt11char_traitsIcESaIcEEES4_jN4Rcpp6VectorILi14ENS5_15PreserveStorageEEES8_S8_"
 "_Z15getCurrentScopev"
 "_Z16PROJTRI_to_PLANEeeejiNSt7__cxx1112basic_stringIcSt11char_traitsIcESaIcEEES4_jN4Rcpp6VectorILi14ENS5_15PreserveStorageEEES8_S8_S8_S8_"
 "_Z16SEQNUM_to_SEQNUMeeejiNSt7__cxx1112basic_stringIcSt11char_traitsIcESaIcEEES4_jN4Rcpp6VectorILi14ENS5_15PreserveStorageEEES8_"
 "_Z17PROJTRI_to_SEQNUMeeejiNSt7__cxx1112basic_stringIcSt11char_traitsIcESaIcEEES4_jN4Rcpp6VectorILi14ENS5_15PreserveStorageEEES8_S8_S8_"
 "_Z17SEQNUM_to_PROJTRIeeejiNSt7__cxx1112basic_stringIcSt11char_traitsIcESaIcEEES4_jN4Rcpp6VectorILi14ENS5_15PreserveStorageEEES8_S8_S8_"
 "_Z18PROJTRI_to_PROJTRIeeejiNSt7__cxx1112basic_stringIcSt11char_traitsIcESaIcEEES4_jN4Rcpp6VectorILi14ENS5_15PreserveStorageEEES8_S8_S8_S8_S8_"
 "_Z19GridStat_cellAreaKMNSt7__cxx1112basic_stringIcSt11char_traitsIcESaIcEEES4_ii"
 "_Z19GridStat_cellDistKMNSt7__cxx1112basic_stringIcSt11char_traitsIcESaIcEEES4_ii"
 "_Z19string_to_try_errorRKNSt7__cxx1112basic_stringIcSt11char_traitsIcESaIcEEE"
 "_Z20rcpp_set_stack_traceP7SEXPREC"
 "_Z25_rcpp_module_dgfuncs_initv"
 "_Z26_rcpp_module_gridgens_initv"
 "_Z27_rcpp_module_gridstats_initv"
 "_Z31exception_to_condition_templateIN4Rcpp9exceptionEEP7SEXPRECRKT_b"
 "_Z31exception_to_condition_templateISt9exceptionEP7SEXPRECRKT_b"
 "_Z7dataptrP7SEXPREC"
 "_Z8demangleRKNSt7__cxx1112basic_stringIcSt11char_traitsIcESaIcEEE"
 "_ZGVZ15getCurrentScopevE3fun"
 "_ZGVZ15setCurrentScopePN4Rcpp6ModuleEE3fun"
 "_ZGVZ20rcpp_get_stack_tracevE3fun"
 "_ZGVZ20rcpp_set_stack_traceP7SEXPRECE3fun"
 "_ZGVZ7dataptrP7SEXPRECE3fun"
 "_ZGVZ8demangleRKNSt7__cxx1112basic_stringIcSt11char_traitsIcESaIcEEEE3funB5cxx11"
 "_ZGVZN4Rcpp12CppFunction4IdNSt7__cxx1112basic_stringIcSt11char_traitsIcESaIcEEES6_iiEclEPP7SEXPRECE8stop_sym"
 "_ZGVZN4Rcpp12CppFunction7INS_6VectorILi19ENS_15PreserveStorageEEEeeejiNSt7__cxx1112basic_stringIcSt11char_traitsIcESaIcEEES9_EclEPP7SEXPRECE8stop_sym"
 "_ZGVZN4Rcpp12CppFunction8INS_6VectorILi19ENS_15PreserveStorageEEEeeejiNSt7__cxx1112basic_stringIcSt11char_traitsIcESaIcEEES9_NS1_ILi14ES2_EEEclEPP7SEXPRECE8stop_sym"
 "_ZGVZN4Rcpp13CppFunction10IveeejiNSt7__cxx1112basic_stringIcSt11char_traitsIcESaIcEEES6_jNS_6VectorILi14ENS_15PreserveStorageEEES9_EclEPP7SEXPRECE8stop_sym"
 "_ZGVZN4Rcpp13CppFunction11IveeejiNSt7__cxx1112basic_stringIcSt11char_traitsIcESaIcEEES6_jNS_6VectorILi14ENS_15PreserveStorageEEES9_S9_EclEPP7SEXPRECE8stop_sym"
 "_ZGVZN4Rcpp13CppFunction12IveeejiNSt7__cxx1112basic_stringIcSt11char_traitsIcESaIcEEES6_jNS_6VectorILi14ENS_15PreserveStorageEEES9_S9_S9_EclEPP7SEXPRECE8stop_sym"
 "_ZGVZN4Rcpp13CppFunction13IveeejiNSt7__cxx1112basic_stringIcSt11char_traitsIcESaIcEEES6_jNS_6VectorILi14ENS_15PreserveStorageEEES9_S9_S9_S9_EclEPP7SEXPRECE8stop_sym"
 "_ZGVZN4Rcpp13CppFunction14IveeejiNSt7__cxx1112basic_stringIcSt11char_traitsIcESaIcEEES6_jNS_6VectorILi14ENS_15PreserveStorageEEES9_S9_S9_S9_S9_EclEPP7SEXPRECE8stop_sym"
 "_ZN10DgDistanceIeED0Ev"
 "_ZN10DgDistanceIeED1Ev"
 "_ZN10tinyformat6detail10formatImplERSoPKcPKNS0_9FormatArgEi"
 "_ZN10tinyformat6detail21streamStateFromFormatERSoRbRiPKcPKNS0_9FormatArgES3_i"
 "_ZN10tinyformat6detail9FormatArg10formatImplIPKcEEvRSoS4_S4_iPKv"
 "_ZN10tinyformat6detail9FormatArg10formatImplIiEEvRSoPKcS5_iPKv"
 "_ZN10tinyformat6detail9FormatArg9toIntImplIPKcEEiPKv"
 "_ZN10tinyformat6detail9FormatArg9toIntImplIiEEiPKv"
 "_ZN3dgg4util9to_stringIeEENSt7__cxx1112basic_stringIcSt11char_traitsIcESaIcEEERKT_"
 "_ZN4DgRFI10DgGeoCoordeE6jumpRFEP10DgLocation"
 "_ZN4DgRFI8DgDVec2DeE6jumpRFEP10DgLocation"
 "_ZN4Rcpp10RstreambufILb0EE4syncEv"
 "_ZN4Rcpp10RstreambufILb0EE6xsputnEPKci"
 "_ZN4Rcpp10RstreambufILb0EE8overflowEi"
 "_ZN4Rcpp10RstreambufILb0EED0Ev"
 "_ZN4Rcpp10RstreambufILb0EED1Ev"
 "_ZN4Rcpp10RstreambufILb1EE4syncEv"
 "_ZN4Rcpp10RstreambufILb1EE6xsputnEPKci"
 "_ZN4Rcpp10RstreambufILb1EE8overflowEi"
 "_ZN4Rcpp10RstreambufILb1EED0Ev"
 "_ZN4Rcpp10RstreambufILb1EED1Ev"
 "_ZN4Rcpp10eval_errorD0Ev"
 "_ZN4Rcpp10eval_errorD1Ev"
 "_ZN4Rcpp11CppFunction11get_formalsEv"
 "_ZN4Rcpp11CppFunction5nargsEv"
 "_ZN4Rcpp11CppFunction7is_voidEv"
 "_ZN4Rcpp11CppFunction9signatureERNSt7__cxx1112basic_stringIcSt11char_traitsIcESaIcEEEPKc"
 "_ZN4Rcpp12CppFunction4IdNSt7__cxx1112basic_stringIcSt11char_traitsIcESaIcEEES6_iiE16get_function_ptrEv"
 "_ZN4Rcpp12CppFunction4IdNSt7__cxx1112basic_stringIcSt11char_traitsIcESaIcEEES6_iiE5nargsEv"
 "_ZN4Rcpp12CppFunction4IdNSt7__cxx1112basic_stringIcSt11char_traitsIcESaIcEEES6_iiE9signatureERS6_PKc"
 "_ZN4Rcpp12CppFunction4IdNSt7__cxx1112basic_stringIcSt11char_traitsIcESaIcEEES6_iiED0Ev"
 "_ZN4Rcpp12CppFunction4IdNSt7__cxx1112basic_stringIcSt11char_traitsIcESaIcEEES6_iiED1Ev"
 "_ZN4Rcpp12CppFunction4IdNSt7__cxx1112basic_stringIcSt11char_traitsIcESaIcEEES6_iiEclEPP7SEXPREC"
 "_ZN4Rcpp12CppFunction7INS_6VectorILi19ENS_15PreserveStorageEEEeeejiNSt7__cxx1112basic_stringIcSt11char_traitsIcESaIcEEES9_E16get_function_ptrEv"
 "_ZN4Rcpp12CppFunction7INS_6VectorILi19ENS_15PreserveStorageEEEeeejiNSt7__cxx1112basic_stringIcSt11char_traitsIcESaIcEEES9_E5nargsEv"
 "_ZN4Rcpp12CppFunction7INS_6VectorILi19ENS_15PreserveStorageEEEeeejiNSt7__cxx1112basic_stringIcSt11char_traitsIcESaIcEEES9_E9signatureERS9_PKc"
 "_ZN4Rcpp12CppFunction7INS_6VectorILi19ENS_15PreserveStorageEEEeeejiNSt7__cxx1112basic_stringIcSt11char_traitsIcESaIcEEES9_ED0Ev"
 "_ZN4Rcpp12CppFunction7INS_6VectorILi19ENS_15PreserveStorageEEEeeejiNSt7__cxx1112basic_stringIcSt11char_traitsIcESaIcEEES9_ED1Ev"
 "_ZN4Rcpp12CppFunction7INS_6VectorILi19ENS_15PreserveStorageEEEeeejiNSt7__cxx1112basic_stringIcSt11char_traitsIcESaIcEEES9_EclEPP7SEXPREC"
 "_ZN4Rcpp12CppFunction8INS_6VectorILi19ENS_15PreserveStorageEEEeeejiNSt7__cxx1112basic_stringIcSt11char_traitsIcESaIcEEES9_NS1_ILi14ES2_EEE16get_function_ptrEv"
 "_ZN4Rcpp12CppFunction8INS_6VectorILi19ENS_15PreserveStorageEEEeeejiNSt7__cxx1112basic_stringIcSt11char_traitsIcESaIcEEES9_NS1_ILi14ES2_EEE5nargsEv"
 "_ZN4Rcpp12CppFunction8INS_6VectorILi19ENS_15PreserveStorageEEEeeejiNSt7__cxx1112basic_stringIcSt11char_traitsIcESaIcEEES9_NS1_ILi14ES2_EEE9signatureERS9_PKc"
 "_ZN4Rcpp12CppFunction8INS_6VectorILi19ENS_15PreserveStorageEEEeeejiNSt7__cxx1112basic_stringIcSt11char_traitsIcESaIcEEES9_NS1_ILi14ES2_EEED0Ev"
 "_ZN4Rcpp12CppFunction8INS_6VectorILi19ENS_15PreserveStorageEEEeeejiNSt7__cxx1112basic_stringIcSt11char_traitsIcESaIcEEES9_NS1_ILi14ES2_EEED1Ev"
 "_ZN4Rcpp12CppFunction8INS_6VectorILi19ENS_15PreserveStorageEEEeeejiNSt7__cxx1112basic_stringIcSt11char_traitsIcESaIcEEES9_NS1_ILi14ES2_EEEclEPP7SEXPREC"
 "_ZN4Rcpp13CppFunction10IveeejiNSt7__cxx1112basic_stringIcSt11char_traitsIcESaIcEEES6_jNS_6VectorILi14ENS_15PreserveStorageEEES9_E16get_function_ptrEv"
 "_ZN4Rcpp13CppFunction10IveeejiNSt7__cxx1112basic_stringIcSt11char_traitsIcESaIcEEES6_jNS_6VectorILi14ENS_15PreserveStorageEEES9_E5nargsEv"
 "_ZN4Rcpp13CppFunction10IveeejiNSt7__cxx1112basic_stringIcSt11char_traitsIcESaIcEEES6_jNS_6VectorILi14ENS_15PreserveStorageEEES9_E7is_voidEv"
 "_ZN4Rcpp13CppFunction10IveeejiNSt7__cxx1112basic_stringIcSt11char_traitsIcESaIcEEES6_jNS_6VectorILi14ENS_15PreserveStorageEEES9_E9signatureERS6_PKc"
 "_ZN4Rcpp13CppFunction10IveeejiNSt7__cxx1112basic_stringIcSt11char_traitsIcESaIcEEES6_jNS_6VectorILi14ENS_15PreserveStorageEEES9_ED0Ev"
 "_ZN4Rcpp13CppFunction10IveeejiNSt7__cxx1112basic_stringIcSt11char_traitsIcESaIcEEES6_jNS_6VectorILi14ENS_15PreserveStorageEEES9_ED1Ev"
 "_ZN4Rcpp13CppFunction10IveeejiNSt7__cxx1112basic_stringIcSt11char_traitsIcESaIcEEES6_jNS_6VectorILi14ENS_15PreserveStorageEEES9_EclEPP7SEXPREC"
 "_ZN4Rcpp13CppFunction11IveeejiNSt7__cxx1112basic_stringIcSt11char_traitsIcESaIcEEES6_jNS_6VectorILi14ENS_15PreserveStorageEEES9_S9_E16get_function_ptrEv"
 "_ZN4Rcpp13CppFunction11IveeejiNSt7__cxx1112basic_stringIcSt11char_traitsIcESaIcEEES6_jNS_6VectorILi14ENS_15PreserveStorageEEES9_S9_E5nargsEv"
 "_ZN4Rcpp13CppFunction11IveeejiNSt7__cxx1112basic_stringIcSt11char_traitsIcESaIcEEES6_jNS_6VectorILi14ENS_15PreserveStorageEEES9_S9_E7is_voidEv"
 "_ZN4Rcpp13CppFunction11IveeejiNSt7__cxx1112basic_stringIcSt11char_traitsIcESaIcEEES6_jNS_6VectorILi14ENS_15PreserveStorageEEES9_S9_E9signatureERS6_PKc"
 "_ZN4Rcpp13CppFunction11IveeejiNSt7__cxx1112basic_stringIcSt11char_traitsIcESaIcEEES6_jNS_6VectorILi14ENS_15PreserveStorageEEES9_S9_ED0Ev"
 "_ZN4Rcpp13CppFunction11IveeejiNSt7__cxx1112basic_stringIcSt11char_traitsIcESaIcEEES6_jNS_6VectorILi14ENS_15PreserveStorageEEES9_S9_ED1Ev"
 "_ZN4Rcpp13CppFunction11IveeejiNSt7__cxx1112basic_stringIcSt11char_traitsIcESaIcEEES6_jNS_6VectorILi14ENS_15PreserveStorageEEES9_S9_EclEPP7SEXPREC"
 "_ZN4Rcpp13CppFunction12IveeejiNSt7__cxx1112basic_stringIcSt11char_traitsIcESaIcEEES6_jNS_6VectorILi14ENS_15PreserveStorageEEES9_S9_S9_E16get_function_ptrEv"
 "_ZN4Rcpp13CppFunction12IveeejiNSt7__cxx1112basic_stringIcSt11char_traitsIcESaIcEEES6_jNS_6VectorILi14ENS_15PreserveStorageEEES9_S9_S9_E5nargsEv"
 "_ZN4Rcpp13CppFunction12IveeejiNSt7__cxx1112basic_stringIcSt11char_traitsIcESaIcEEES6_jNS_6VectorILi14ENS_15PreserveStorageEEES9_S9_S9_E7is_voidEv"
 "_ZN4Rcpp13CppFunction12IveeejiNSt7__cxx1112basic_stringIcSt11char_traitsIcESaIcEEES6_jNS_6VectorILi14ENS_15PreserveStorageEEES9_S9_S9_E9signatureERS6_PKc"
 "_ZN4Rcpp13CppFunction12IveeejiNSt7__cxx1112basic_stringIcSt11char_traitsIcESaIcEEES6_jNS_6VectorILi14ENS_15PreserveStorageEEES9_S9_S9_ED0Ev"
 "_ZN4Rcpp13CppFunction12IveeejiNSt7__cxx1112basic_stringIcSt11char_traitsIcESaIcEEES6_jNS_6VectorILi14ENS_15PreserveStorageEEES9_S9_S9_ED1Ev"
 "_ZN4Rcpp13CppFunction12IveeejiNSt7__cxx1112basic_stringIcSt11char_traitsIcESaIcEEES6_jNS_6VectorILi14ENS_15PreserveStorageEEES9_S9_S9_EclEPP7SEXPREC"
 "_ZN4Rcpp13CppFunction13IveeejiNSt7__cxx1112basic_stringIcSt11char_traitsIcESaIcEEES6_jNS_6VectorILi14ENS_15PreserveStorageEEES9_S9_S9_S9_E16get_function_ptrEv"
 "_ZN4Rcpp13CppFunction13IveeejiNSt7__cxx1112basic_stringIcSt11char_traitsIcESaIcEEES6_jNS_6VectorILi14ENS_15PreserveStorageEEES9_S9_S9_S9_E5nargsEv"
 "_ZN4Rcpp13CppFunction13IveeejiNSt7__cxx1112basic_stringIcSt11char_traitsIcESaIcEEES6_jNS_6VectorILi14ENS_15PreserveStorageEEES9_S9_S9_S9_E7is_voidEv"
 "_ZN4Rcpp13CppFunction13IveeejiNSt7__cxx1112basic_stringIcSt11char_traitsIcESaIcEEES6_jNS_6VectorILi14ENS_15PreserveStorageEEES9_S9_S9_S9_E9signatureERS6_PKc"
 "_ZN4Rcpp13CppFunction13IveeejiNSt7__cxx1112basic_stringIcSt11char_traitsIcESaIcEEES6_jNS_6VectorILi14ENS_15PreserveStorageEEES9_S9_S9_S9_ED0Ev"
 "_ZN4Rcpp13CppFunction13IveeejiNSt7__cxx1112basic_stringIcSt11char_traitsIcESaIcEEES6_jNS_6VectorILi14ENS_15PreserveStorageEEES9_S9_S9_S9_ED1Ev"
 "_ZN4Rcpp13CppFunction13IveeejiNSt7__cxx1112basic_stringIcSt11char_traitsIcESaIcEEES6_jNS_6VectorILi14ENS_15PreserveStorageEEES9_S9_S9_S9_EclEPP7SEXPREC"
 "_ZN4Rcpp13CppFunction14IveeejiNSt7__cxx1112basic_stringIcSt11char_traitsIcESaIcEEES6_jNS_6VectorILi14ENS_15PreserveStorageEEES9_S9_S9_S9_S9_E16get_function_ptrEv"
 "_ZN4Rcpp13CppFunction14IveeejiNSt7__cxx1112basic_stringIcSt11char_traitsIcESaIcEEES6_jNS_6VectorILi14ENS_15PreserveStorageEEES9_S9_S9_S9_S9_E5nargsEv"
 "_ZN4Rcpp13CppFunction14IveeejiNSt7__cxx1112basic_stringIcSt11char_traitsIcESaIcEEES6_jNS_6VectorILi14ENS_15PreserveStorageEEES9_S9_S9_S9_S9_E7is_voidEv"
 "_ZN4Rcpp13CppFunction14IveeejiNSt7__cxx1112basic_stringIcSt11char_traitsIcESaIcEEES6_jNS_6VectorILi14ENS_15PreserveStorageEEES9_S9_S9_S9_S9_E9signatureERS6_PKc"
 "_ZN4Rcpp13CppFunction14IveeejiNSt7__cxx1112basic_stringIcSt11char_traitsIcESaIcEEES6_jNS_6VectorILi14ENS_15PreserveStorageEEES9_S9_S9_S9_S9_ED0Ev"
 "_ZN4Rcpp13CppFunction14IveeejiNSt7__cxx1112basic_stringIcSt11char_traitsIcESaIcEEES6_jNS_6VectorILi14ENS_15PreserveStorageEEES9_S9_S9_S9_S9_ED1Ev"
 "_ZN4Rcpp13CppFunction14IveeejiNSt7__cxx1112basic_stringIcSt11char_traitsIcESaIcEEES6_jNS_6VectorILi14ENS_15PreserveStorageEEES9_S9_S9_S9_S9_EclEPP7SEXPREC"
 "_ZN4Rcpp14not_compatibleC1IJPKcEEES3_DpOT_"
 "_ZN4Rcpp14not_compatibleC1IJPKcS3_EEES3_DpOT_"
 "_ZN4Rcpp14not_compatibleC1IJPKciEEES3_DpOT_"
 "_ZN4Rcpp14not_compatibleC1IJiEEEPKcDpOT_"
 "_ZN4Rcpp14not_compatibleD0Ev"
 "_ZN4Rcpp14not_compatibleD1Ev"
 "_ZN4Rcpp15CppFunctionBaseclEPP7SEXPREC"
 "_ZN4Rcpp17finalizer_wrapperINS_6ModuleEXadL_ZNS_25standard_delete_finalizerIS1_EEvPT_EEEEvP7SEXPREC"
 "_ZN4Rcpp24get_return_type_dispatchINSt7__cxx1112basic_stringIcSt11char_traitsIcESaIcEEEEES6_NS_6traits17integral_constantIbLb0EEE"
 "_ZN4Rcpp24get_return_type_dispatchIeEENSt7__cxx1112basic_stringIcSt11char_traitsIcESaIcEEENS_6traits17integral_constantIbLb0EEE"
 "_ZN4Rcpp24get_return_type_dispatchIiEENSt7__cxx1112basic_stringIcSt11char_traitsIcESaIcEEENS_6traits17integral_constantIbLb0EEE"
 "_ZN4Rcpp24get_return_type_dispatchIjEENSt7__cxx1112basic_stringIcSt11char_traitsIcESaIcEEENS_6traits17integral_constantIbLb0EEE"
 "_ZN4Rcpp4stopERKNSt7__cxx1112basic_stringIcSt11char_traitsIcESaIcEEE"
 "_ZN4Rcpp4stopIJEEEvPKcDpOT_"
 "_ZN4Rcpp6ModuleC1EPKc"
 "_ZN4Rcpp6VectorILi19ENS_15PreserveStorageEE16create__dispatchINS_6traits12named_objectIP7SEXPRECEES8_S8_EES2_NS4_17integral_constantIbLb1EEERKT_RKT0_RKT1_"
 "_ZN4Rcpp6r_castILi14EEEP7SEXPRECS2_"
 "_ZN4Rcpp8RostreamILb0EED0Ev"
 "_ZN4Rcpp8RostreamILb0EED1Ev"
 "_ZN4Rcpp8RostreamILb1EED0Ev"
 "_ZN4Rcpp8RostreamILb1EED1Ev"
 "_ZN4Rcpp8functionIdNSt7__cxx1112basic_stringIcSt11char_traitsIcESaIcEEES6_iiEEvPKcPFT_T0_T1_T2_T3_ES8_"
 "_ZN4Rcpp8functionIveeejiNSt7__cxx1112basic_stringIcSt11char_traitsIcESaIcEEES6_jNS_6VectorILi14ENS_15PreserveStorageEEES9_S9_EEvPKcPFT_T0_T1_T2_T3_T4_T5_T6_T7_T8_T9_T10_ESB_"
 "_ZN4Rcpp8functionIveeejiNSt7__cxx1112basic_stringIcSt11char_traitsIcESaIcEEES6_jNS_6VectorILi14ENS_15PreserveStorageEEES9_S9_S9_EEvPKcPFT_T0_T1_T2_T3_T4_T5_T6_T7_T8_T9_T10_T11_ESB_"
 "_ZN4Rcpp8functionIveeejiNSt7__cxx1112basic_stringIcSt11char_traitsIcESaIcEEES6_jNS_6VectorILi14ENS_15PreserveStorageEEES9_S9_S9_S9_EEvPKcPFT_T0_T1_T2_T3_T4_T5_T6_T7_T8_T9_T10_T11_T12_ESB_"
 "_ZN4Rcpp8functionIveeejiNSt7__cxx1112basic_stringIcSt11char_traitsIcESaIcEEES6_jNS_6VectorILi14ENS_15PreserveStorageEEES9_S9_S9_S9_S9_EEvPKcPFT_T0_T1_T2_T3_T4_T5_T6_T7_T8_T9_T10_T11_T12_T13_ESB_"
 "_ZN4Rcpp8internal10basic_castILi13EEEP7SEXPRECS3_"
 "_ZN4Rcpp8internal10basic_castILi14EEEP7SEXPRECS3_"
 "_ZN4Rcpp8internal10resumeJumpEP7SEXPREC"
 "_ZN4Rcpp8internal12primitive_asIeEET_P7SEXPREC"
 "_ZN4Rcpp8internal12primitive_asIiEET_P7SEXPREC"
 "_ZN4Rcpp8internal12primitive_asIjEET_P7SEXPREC"
 "_ZN4Rcpp8internal19check_single_stringEP7SEXPREC"
 "_ZN4Rcpp8internal34primitive_range_wrap__impl__nocastIN9__gnu_cxx17__normal_iteratorIPKdSt6vectorIdSaIdEEEEdEEP7SEXPRECT_SC_St26random_access_iterator_tag"
 "_ZN4Rcpp8internal3nthEP7SEXPRECi"
 "_ZN4Rcpp9Rcpp_evalEP7SEXPRECS1_"
 "_ZN4Rcpp9exceptionD0Ev"
 "_ZN4Rcpp9exceptionD1Ev"
 "_ZN4Rcpp9signatureINS_6VectorILi19ENS_15PreserveStorageEEEeeejiNSt7__cxx1112basic_stringIcSt11char_traitsIcESaIcEEES9_EEvRS9_PKc"
 "_ZN4Rcpp9signatureINS_6VectorILi19ENS_15PreserveStorageEEEeeejiNSt7__cxx1112basic_stringIcSt11char_traitsIcESaIcEEES9_NS1_ILi14ES2_EEEEvRS9_PKc"
 "_ZN4Rcpp9signatureINS_9void_typeEeeejiNSt7__cxx1112basic_stringIcSt11char_traitsIcESaIcEEES7_jNS_6VectorILi14ENS_15PreserveStorageEEESA_EEvRS7_PKc"
 "_ZN4Rcpp9signatureINS_9void_typeEeeejiNSt7__cxx1112basic_stringIcSt11char_traitsIcESaIcEEES7_jNS_6VectorILi14ENS_15PreserveStorageEEESA_SA_EEvRS7_PKc"
 "_ZN4Rcpp9signatureINS_9void_typeEeeejiNSt7__cxx1112basic_stringIcSt11char_traitsIcESaIcEEES7_jNS_6VectorILi14ENS_15PreserveStorageEEESA_SA_SA_EEvRS7_PKc"
 "_ZN4Rcpp9signatureINS_9void_typeEeeejiNSt7__cxx1112basic_stringIcSt11char_traitsIcESaIcEEES7_jNS_6VectorILi14ENS_15PreserveStorageEEESA_SA_SA_SA_EEvRS7_PKc"
 "_ZN4Rcpp9signatureINS_9void_typeEeeejiNSt7__cxx1112basic_stringIcSt11char_traitsIcESaIcEEES7_jNS_6VectorILi14ENS_15PreserveStorageEEESA_SA_SA_SA_SA_EEvRS7_PKc"
 "_ZN5dglib9GridThingD1Ev"
 "_ZN5dglib9GridThingD2Ev"
 "_ZN9DgAddressI10DgGeoCoordED0Ev"
 "_ZN9DgAddressI10DgGeoCoordED1Ev"
 "_ZN9DgAddressI8DgDVec2DED0Ev"
 "_ZN9DgAddressI8DgDVec2DED1Ev"
 "_ZNK10DgGeoCoordcvNSt7__cxx1112basic_stringIcSt11char_traitsIcESaIcEEEEv"
 "_ZNK10DgLocation8asStringB5cxx11Ev"
 "_ZNK10tinyformat6detail9FormatArg5toIntEv"
 "_ZNK11DgLocVector8asStringB5cxx11Ev"
 "_ZNK13DgEllipsoidRF12undefAddressEv"
 "_ZNK13DgEllipsoidRF7add2strB5cxx11ERK10DgGeoCoord"
 "_ZNK13DgEllipsoidRF8dist2dblERKe"
 "_ZNK13DgEllipsoidRF8dist2intERKe"
 "_ZNK13DgEllipsoidRF8dist2strB5cxx11ERKe"
 "_ZNK4DgRFI10DgGeoCoordeE10fromStringER10DgLocationPKcc"
 "_ZNK4DgRFI10DgGeoCoordeE10getAddressERK10DgLocation"
 "_ZNK4DgRFI10DgGeoCoordeE11copyAddressERK13DgAddressBasePS2_"
 "_ZNK4DgRFI10DgGeoCoordeE12equalAddressERK13DgAddressBaseS4_"
 "_ZNK4DgRFI10DgGeoCoordeE12makeLocationERKS0_"
 "_ZNK4DgRFI10DgGeoCoordeE13createAddressERK13DgAddressBase"
 "_ZNK4DgRFI10DgGeoCoordeE13createAddressEv"
 "_ZNK4DgRFI10DgGeoCoordeE14createLocationERK10DgLocationb"
 "_ZNK4DgRFI10DgGeoCoordeE15toAddressStringB5cxx11ERK10DgLocation"
 "_ZNK4DgRFI10DgGeoCoordeE15toAddressStringB5cxx11ERK10DgLocationc"
 "_ZNK4DgRFI10DgGeoCoordeE15toAddressStringB5cxx11ERK11DgLocVector"
 "_ZNK4DgRFI10DgGeoCoordeE15toAddressStringB5cxx11ERK11DgLocVectorc"
 "_ZNK4DgRFI10DgGeoCoordeE5toIntERK14DgDistanceBase"
 "_ZNK4DgRFI10DgGeoCoordeE8distanceERK10DgLocationS4_b"
 "_ZNK4DgRFI10DgGeoCoordeE8toDoubleERK14DgDistanceBase"
 "_ZNK4DgRFI10DgGeoCoordeE8toStringB5cxx11ERK10DgLocation"
 "_ZNK4DgRFI10DgGeoCoordeE8toStringB5cxx11ERK10DgLocationc"
 "_ZNK4DgRFI10DgGeoCoordeE8toStringB5cxx11ERK11DgLocVector"
 "_ZNK4DgRFI10DgGeoCoordeE8toStringB5cxx11ERK11DgLocVectorc"
 "_ZNK4DgRFI10DgGeoCoordeE8toStringB5cxx11ERK14DgDistanceBase"
 "_ZNK4DgRFI8DgDVec2DeE10fromStringER10DgLocationPKcc"
 "_ZNK4DgRFI8DgDVec2DeE10getAddressERK10DgLocation"
 "_ZNK4DgRFI8DgDVec2DeE11copyAddressERK13DgAddressBasePS2_"
 "_ZNK4DgRFI8DgDVec2DeE12equalAddressERK13DgAddressBaseS4_"
 "_ZNK4DgRFI8DgDVec2DeE12makeLocationERKS0_"
 "_ZNK4DgRFI8DgDVec2DeE13createAddressERK13DgAddressBase"
 "_ZNK4DgRFI8DgDVec2DeE13createAddressEv"
 "_ZNK4DgRFI8DgDVec2DeE14createLocationERK10DgLocationb"
 "_ZNK4DgRFI8DgDVec2DeE15toAddressStringB5cxx11ERK10DgLocation"
 "_ZNK4DgRFI8DgDVec2DeE15toAddressStringB5cxx11ERK10DgLocationc"
 "_ZNK4DgRFI8DgDVec2DeE15toAddressStringB5cxx11ERK11DgLocVector"
 "_ZNK4DgRFI8DgDVec2DeE15toAddressStringB5cxx11ERK11DgLocVectorc"
 "_ZNK4DgRFI8DgDVec2DeE5toIntERK14DgDistanceBase"
 "_ZNK4DgRFI8DgDVec2DeE8distanceERK10DgLocationS4_b"
 "_ZNK4DgRFI8DgDVec2DeE8toDoubleERK14DgDistanceBase"
 "_ZNK4DgRFI8DgDVec2DeE8toStringB5cxx11ERK10DgLocation"
 "_ZNK4DgRFI8DgDVec2DeE8toStringB5cxx11ERK10DgLocationc"
 "_ZNK4DgRFI8DgDVec2DeE8toStringB5cxx11ERK11DgLocVector"
 "_ZNK4DgRFI8DgDVec2DeE8toStringB5cxx11ERK11DgLocVectorc"
 "_ZNK4DgRFI8DgDVec2DeE8toStringB5cxx11ERK14DgDistanceBase"
 "_ZNK4Rcpp10eval_error4whatEv"
 "_ZNK4Rcpp14not_compatible4whatEv"
 "_ZNK4Rcpp9exception21copy_stack_trace_to_rEv"
 "_ZNK4Rcpp9exception4whatEv"
 "_ZNK8DgDVec2DcvNSt7__cxx1112basic_stringIcSt11char_traitsIcESaIcEEEEv"
 "_ZNK8DgRFBase10vecAddressERK8DgDVec2D"
 "_ZNK8DgRFBase11vecLocationERK8DgDVec2D"
 "_ZNK8DgRFBase13getVecAddressERK13DgAddressBase"
 "_ZNK8DgRFBase14getVecLocationERK10DgLocation"
 "_ZNK8DgRFBase8undefLocEv"
 "_ZNK8DgRFBaseeqERKS_"
 "_ZNK8DgRFBaseneERKS_"
 "_ZNK9DgAddressI10DgGeoCoordE7writeToERSo"
 "_ZNK9DgAddressI8DgDVec2DE7writeToERSo"
 "_ZNKSt5ctypeIcE8do_widenEc"
 "_ZNSt15_Sp_counted_ptrIDnLN9__gnu_cxx12_Lock_policyE2EE10_M_disposeEv"
 "_ZNSt16_Sp_counted_baseILN9__gnu_cxx12_Lock_policyE2EE10_M_destroyEv"
 "_ZNSt16_Sp_counted_baseILN9__gnu_cxx12_Lock_policyE2EE10_M_releaseEv"
 "_ZNSt6vectorIdSaIdEE12emplace_backIJdEEEvDpOT_"
 "_ZNSt6vectorIdSaIdEE15_M_range_insertIN9__gnu_cxx17__normal_iteratorIPeS_IeSaIeEEEEEEvNS4_IPdS1_EET_SB_St20forward_iterator_tag"
 "_ZNSt6vectorIdSaIdEE17_M_realloc_insertIJdEEEvN9__gnu_cxx17__normal_iteratorIPdS1_EEDpOT_"
 "_ZNSt7__cxx1112basic_stringIcSt11char_traitsIcESaIcEE12_M_constructIPKcEEvT_S8_St20forward_iterator_tag"
 "_ZNSt8_Rb_treeINSt7__cxx1112basic_stringIcSt11char_traitsIcESaIcEEESt4pairIKS5_PN4Rcpp10class_BaseEESt10_Select1stISB_ESt4lessIS5_ESaISB_EE8_M_eraseEPSt13_Rb_tree_nodeISB_E"
 "_ZNSt8_Rb_treeINSt7__cxx1112basic_stringIcSt11char_traitsIcESaIcEEESt4pairIKS5_PN4Rcpp11CppFunctionEESt10_Select1stISB_ESt4lessIS5_ESaISB_EE16_M_insert_uniqueISB_EES6_ISt17_Rb_tree_iteratorISB_EbEOT_"
 "_ZNSt8_Rb_treeINSt7__cxx1112basic_stringIcSt11char_traitsIcESaIcEEESt4pairIKS5_PN4Rcpp11CppFunctionEESt10_Select1stISB_ESt4lessIS5_ESaISB_EE8_M_eraseEPSt13_Rb_tree_nodeISB_E"
 "_ZStplIcSt11char_traitsIcESaIcEENSt7__cxx1112basic_stringIT_T0_T1_EEOS8_S9_"
 "_ZTCN4Rcpp8RostreamILb0EEE0_So"
 "_ZTCN4Rcpp8RostreamILb1EEE0_So"
 "_ZTI10DgDistanceIeE"
 "_ZTI13DgAddressBase"
 "_ZTI14DgDistanceBase"
 "_ZTI4DgRFI10DgGeoCoordeE"
 "_ZTI4DgRFI8DgDVec2DeE"
 "_ZTI8DgRFBase"
 "_ZTI9DgAddressI10DgGeoCoordE"
 "_ZTI9DgAddressI8DgDVec2DE"
 "_ZTIN4Rcpp10RstreambufILb0EEE"
 "_ZTIN4Rcpp10RstreambufILb1EEE"
 "_ZTIN4Rcpp10eval_errorE"
 "_ZTIN4Rcpp11CppFunctionE"
 "_ZTIN4Rcpp12CppFunction4IdNSt7__cxx1112basic_stringIcSt11char_traitsIcESaIcEEES6_iiEE"
 "_ZTIN4Rcpp12CppFunction7INS_6VectorILi19ENS_15PreserveStorageEEEeeejiNSt7__cxx1112basic_stringIcSt11char_traitsIcESaIcEEES9_EE"
 "_ZTIN4Rcpp12CppFunction8INS_6VectorILi19ENS_15PreserveStorageEEEeeejiNSt7__cxx1112basic_stringIcSt11char_traitsIcESaIcEEES9_NS1_ILi14ES2_EEEE"
 "_ZTIN4Rcpp13CppFunction10IveeejiNSt7__cxx1112basic_stringIcSt11char_traitsIcESaIcEEES6_jNS_6VectorILi14ENS_15PreserveStorageEEES9_EE"
 "_ZTIN4Rcpp13CppFunction11IveeejiNSt7__cxx1112basic_stringIcSt11char_traitsIcESaIcEEES6_jNS_6VectorILi14ENS_15PreserveStorageEEES9_S9_EE"
 "_ZTIN4Rcpp13CppFunction12IveeejiNSt7__cxx1112basic_stringIcSt11char_traitsIcESaIcEEES6_jNS_6VectorILi14ENS_15PreserveStorageEEES9_S9_S9_EE"
 "_ZTIN4Rcpp13CppFunction13IveeejiNSt7__cxx1112basic_stringIcSt11char_traitsIcESaIcEEES6_jNS_6VectorILi14ENS_15PreserveStorageEEES9_S9_S9_S9_EE"
 "_ZTIN4Rcpp13CppFunction14IveeejiNSt7__cxx1112basic_stringIcSt11char_traitsIcESaIcEEES6_jNS_6VectorILi14ENS_15PreserveStorageEEES9_S9_S9_S9_S9_EE"
 "_ZTIN4Rcpp14not_compatibleE"
 "_ZTIN4Rcpp15CppFunctionBaseE"
 "_ZTIN4Rcpp17LongjumpExceptionE"
 "_ZTIN4Rcpp8RostreamILb0EEE"
 "_ZTIN4Rcpp8RostreamILb1EEE"
 "_ZTIN4Rcpp8internal20InterruptedExceptionE"
 "_ZTIN4Rcpp9exceptionE"
 "_ZTISt9exception"
 "_ZTS10DgDistanceIeE"
 "_ZTS13DgAddressBase"
 "_ZTS14DgDistanceBase"
 "_ZTS4DgRFI10DgGeoCoordeE"
 "_ZTS4DgRFI8DgDVec2DeE"
 "_ZTS8DgRFBase"
 "_ZTS9DgAddressI10DgGeoCoordE"
 "_ZTS9DgAddressI8DgDVec2DE"
 "_ZTSN4Rcpp10RstreambufILb0EEE"
 "_ZTSN4Rcpp10RstreambufILb1EEE"
 "_ZTSN4Rcpp10eval_errorE"
 "_ZTSN4Rcpp11CppFunctionE"
 "_ZTSN4Rcpp12CppFunction4IdNSt7__cxx1112basic_stringIcSt11char_traitsIcESaIcEEES6_iiEE"
 "_ZTSN4Rcpp12CppFunction7INS_6VectorILi19ENS_15PreserveStorageEEEeeejiNSt7__cxx1112basic_stringIcSt11char_traitsIcESaIcEEES9_EE"
 "_ZTSN4Rcpp12CppFunction8INS_6VectorILi19ENS_15PreserveStorageEEEeeejiNSt7__cxx1112basic_stringIcSt11char_traitsIcESaIcEEES9_NS1_ILi14ES2_EEEE"
 "_ZTSN4Rcpp13CppFunction10IveeejiNSt7__cxx1112basic_stringIcSt11char_traitsIcESaIcEEES6_jNS_6VectorILi14ENS_15PreserveStorageEEES9_EE"
 "_ZTSN4Rcpp13CppFunction11IveeejiNSt7__cxx1112basic_stringIcSt11char_traitsIcESaIcEEES6_jNS_6VectorILi14ENS_15PreserveStorageEEES9_S9_EE"
 "_ZTSN4Rcpp13CppFunction12IveeejiNSt7__cxx1112basic_stringIcSt11char_traitsIcESaIcEEES6_jNS_6VectorILi14ENS_15PreserveStorageEEES9_S9_S9_EE"
 "_ZTSN4Rcpp13CppFunction13IveeejiNSt7__cxx1112basic_stringIcSt11char_traitsIcESaIcEEES6_jNS_6VectorILi14ENS_15PreserveStorageEEES9_S9_S9_S9_EE"
 "_ZTSN4Rcpp13CppFunction14IveeejiNSt7__cxx1112basic_stringIcSt11char_traitsIcESaIcEEES6_jNS_6VectorILi14ENS_15PreserveStorageEEES9_S9_S9_S9_S9_EE"
 "_ZTSN4Rcpp14not_compatibleE"
 "_ZTSN4Rcpp15CppFunctionBaseE"
 "_ZTSN4Rcpp17LongjumpExceptionE"
 "_ZTSN4Rcpp8RostreamILb0EEE"
 "_ZTSN4Rcpp8RostreamILb1EEE"
 "_ZTSN4Rcpp8internal20InterruptedExceptionE"
 "_ZTSN4Rcpp9exceptionE"
 "_ZTSNSt7__cxx1112basic_stringIcSt11char_traitsIcESaIcEEE"
 "_ZTSSt9exception"
 "_ZTTN4Rcpp8RostreamILb0EEE"
 "_ZTTN4Rcpp8RostreamILb1EEE"
 "_ZTV10DgDistanceIeE"
 "_ZTV4DgRFI10DgGeoCoordeE"
 "_ZTV4DgRFI8DgDVec2DeE"
 "_ZTV9DgAddressI10DgGeoCoordE"
 "_ZTV9DgAddressI8DgDVec2DE"
 "_ZTVN4Rcpp10RstreambufILb0EEE"
 "_ZTVN4Rcpp10RstreambufILb1EEE"
 "_ZTVN4Rcpp10eval_errorE"
 "_ZTVN4Rcpp11CppFunctionE"
 "_ZTVN4Rcpp12CppFunction4IdNSt7__cxx1112basic_stringIcSt11char_traitsIcESaIcEEES6_iiEE"
 "_ZTVN4Rcpp12CppFunction7INS_6VectorILi19ENS_15PreserveStorageEEEeeejiNSt7__cxx1112basic_stringIcSt11char_traitsIcESaIcEEES9_EE"
 "_ZTVN4Rcpp12CppFunction8INS_6VectorILi19ENS_15PreserveStorageEEEeeejiNSt7__cxx1112basic_stringIcSt11char_traitsIcESaIcEEES9_NS1_ILi14ES2_EEEE"
 "_ZTVN4Rcpp13CppFunction10IveeejiNSt7__cxx1112basic_stringIcSt11char_traitsIcESaIcEEES6_jNS_6VectorILi14ENS_15PreserveStorageEEES9_EE"
 "_ZTVN4Rcpp13CppFunction11IveeejiNSt7__cxx1112basic_stringIcSt11char_traitsIcESaIcEEES6_jNS_6VectorILi14ENS_15PreserveStorageEEES9_S9_EE"
 "_ZTVN4Rcpp13CppFunction12IveeejiNSt7__cxx1112basic_stringIcSt11char_traitsIcESaIcEEES6_jNS_6VectorILi14ENS_15PreserveStorageEEES9_S9_S9_EE"
 "_ZTVN4Rcpp13CppFunction13IveeejiNSt7__cxx1112basic_stringIcSt11char_traitsIcESaIcEEES6_jNS_6VectorILi14ENS_15PreserveStorageEEES9_S9_S9_S9_EE"
 "_ZTVN4Rcpp13CppFunction14IveeejiNSt7__cxx1112basic_stringIcSt11char_traitsIcESaIcEEES6_jNS_6VectorILi14ENS_15PreserveStorageEEES9_S9_S9_S9_S9_EE"
 "_ZTVN4Rcpp14not_compatibleE"
 "_ZTVN4Rcpp8RostreamILb0EEE"
 "_ZTVN4Rcpp8RostreamILb1EEE"
 "_ZTVN4Rcpp9exceptionE"
 "_ZTv0_n12_N4Rcpp8RostreamILb0EED0Ev"
 "_ZTv0_n12_N4Rcpp8RostreamILb0EED1Ev"
 "_ZTv0_n12_N4Rcpp8RostreamILb1EED0Ev"
 "_ZTv0_n12_N4Rcpp8RostreamILb1EED1Ev"
 "_ZZ15getCurrentScopevE3fun"
 "_ZZ15setCurrentScopePN4Rcpp6ModuleEE3fun"
 "_ZZ20rcpp_get_stack_tracevE3fun"
 "_ZZ20rcpp_set_stack_traceP7SEXPRECE3fun"
 "_ZZ7dataptrP7SEXPRECE3fun"
 "_ZZ8demangleRKNSt7__cxx1112basic_stringIcSt11char_traitsIcESaIcEEEE3funB5cxx11"
 "_ZZN4Rcpp12CppFunction4IdNSt7__cxx1112basic_stringIcSt11char_traitsIcESaIcEEES6_iiEclEPP7SEXPRECE8stop_sym"
 "_ZZN4Rcpp12CppFunction7INS_6VectorILi19ENS_15PreserveStorageEEEeeejiNSt7__cxx1112basic_stringIcSt11char_traitsIcESaIcEEES9_EclEPP7SEXPRECE8stop_sym"
 "_ZZN4Rcpp12CppFunction8INS_6VectorILi19ENS_15PreserveStorageEEEeeejiNSt7__cxx1112basic_stringIcSt11char_traitsIcESaIcEEES9_NS1_ILi14ES2_EEEclEPP7SEXPRECE8stop_sym"
 "_ZZN4Rcpp13CppFunction10IveeejiNSt7__cxx1112basic_stringIcSt11char_traitsIcESaIcEEES6_jNS_6VectorILi14ENS_15PreserveStorageEEES9_EclEPP7SEXPRECE8stop_sym"
 "_ZZN4Rcpp13CppFunction11IveeejiNSt7__cxx1112basic_stringIcSt11char_traitsIcESaIcEEES6_jNS_6VectorILi14ENS_15PreserveStorageEEES9_S9_EclEPP7SEXPRECE8stop_sym"
 "_ZZN4Rcpp13CppFunction12IveeejiNSt7__cxx1112basic_stringIcSt11char_traitsIcESaIcEEES6_jNS_6VectorILi14ENS_15PreserveStorageEEES9_S9_S9_EclEPP7SEXPRECE8stop_sym"
 "_ZZN4Rcpp13CppFunction13IveeejiNSt7__cxx1112basic_stringIcSt11char_traitsIcESaIcEEES6_jNS_6VectorILi14ENS_15PreserveStorageEEES9_S9_S9_S9_EclEPP7SEXPRECE8stop_sym"
 "_ZZN4Rcpp13CppFunction14IveeejiNSt7__cxx1112basic_stringIcSt11char_traitsIcESaIcEEES6_jNS_6VectorILi14ENS_15PreserveStorageEEES9_S9_S9_S9_S9_EclEPP7SEXPRECE8stop_sym"
 "_rcpp_module_boot_dgfuncs"
 "_rcpp_module_boot_gridgens"
 "_rcpp_module_boot_gridstats"
 "_Z6adjlone"
 "_ZN10ClipperLib10GetOverlapExxxxRxS0_"
 "_ZN10ClipperLib10PointCountEPNS_5OutPtE"
 "_ZN10ClipperLib10RemoveEdgeEPNS_5TEdgeE"
 "_ZN10ClipperLib10SwapPointsERNS_8IntPointES1_"
 "_ZN10ClipperLib11ClipperBase12ProcessBoundEPNS_5TEdgeEb"
 "_ZN10ClipperLib11ClipperBase14PopLocalMinimaEv"
 "_ZN10ClipperLib11ClipperBase22DisposeLocalMinimaListEv"
 "_ZN10ClipperLib11ClipperBase5ClearEv"
 "_ZN10ClipperLib11ClipperBase5ResetEv"
 "_ZN10ClipperLib11ClipperBase7AddPathERKSt6vectorINS_8IntPointESaIS2_EENS_8PolyTypeEb"
 "_ZN10ClipperLib11ClipperBase8AddPathsERKSt6vectorIS1_INS_8IntPointESaIS2_EESaIS4_EENS_8PolyTypeEb"
 "_ZN10ClipperLib11ClipperBase9GetBoundsEv"
 "_ZN10ClipperLib11ClipperBaseC1Ev"
 "_ZN10ClipperLib11ClipperBaseC2Ev"
 "_ZN10ClipperLib11ClipperBaseD0Ev"
 "_ZN10ClipperLib11ClipperBaseD1Ev"
 "_ZN10ClipperLib11ClipperBaseD2Ev"
 "_ZN10ClipperLib11GetBottomPtEPNS_5OutPtE"
 "_ZN10ClipperLib11OrientationERKSt6vectorINS_8IntPointESaIS1_EE"
 "_ZN10ClipperLib11ReversePathERSt6vectorINS_8IntPointESaIS1_EE"
 "_ZN10ClipperLib11SlopesEqualENS_8IntPointES0_S0_S0_b"
 "_ZN10ClipperLib11SlopesEqualENS_8IntPointES0_S0_b"
 "_ZN10ClipperLib11SlopesEqualERKNS_5TEdgeES2_b"
 "_ZN10ClipperLib12CleanPolygonERKSt6vectorINS_8IntPointESaIS1_EERS3_d"
 "_ZN10ClipperLib12CleanPolygonERSt6vectorINS_8IntPointESaIS1_EEd"
 "_ZN10ClipperLib12GetNextInAELEPNS_5TEdgeENS_9DirectionE"
 "_ZN10ClipperLib12MinkowskiSumERKSt6vectorINS_8IntPointESaIS1_EERKS0_IS3_SaIS3_EERS7_b"
 "_ZN10ClipperLib12MinkowskiSumERKSt6vectorINS_8IntPointESaIS1_EES5_RS0_IS3_SaIS3_EEb"
 "_ZN10ClipperLib12ReversePathsERSt6vectorIS0_INS_8IntPointESaIS1_EESaIS3_EE"
 "_ZN10ClipperLib13CleanPolygonsERKSt6vectorIS0_INS_8IntPointESaIS1_EESaIS3_EERS5_d"
 "_ZN10ClipperLib13CleanPolygonsERSt6vectorIS0_INS_8IntPointESaIS1_EESaIS3_EEd"
 "_ZN10ClipperLib13ClipperOffset11OffsetPointEiRiNS_8JoinTypeE"
 "_ZN10ClipperLib13ClipperOffset15FixOrientationsEv"
 "_ZN10ClipperLib13ClipperOffset5ClearEv"
 "_ZN10ClipperLib13ClipperOffset7AddPathERKSt6vectorINS_8IntPointESaIS2_EENS_8JoinTypeENS_7EndTypeE"
 "_ZN10ClipperLib13ClipperOffset7DoMiterEiid"
 "_ZN10ClipperLib13ClipperOffset7DoRoundEii"
 "_ZN10ClipperLib13ClipperOffset7ExecuteERNS_8PolyTreeEd"
 "_ZN10ClipperLib13ClipperOffset7ExecuteERSt6vectorIS1_INS_8IntPointESaIS2_EESaIS4_EEd"
 "_ZN10ClipperLib13ClipperOffset8AddPathsERKSt6vectorIS1_INS_8IntPointESaIS2_EESaIS4_EENS_8JoinTypeENS_7EndTypeE"
 "_ZN10ClipperLib13ClipperOffset8DoOffsetEd"
 "_ZN10ClipperLib13ClipperOffset8DoSquareEii"
 "_ZN10ClipperLib13ClipperOffsetC1Edd"
 "_ZN10ClipperLib13ClipperOffsetC2Edd"
 "_ZN10ClipperLib13ClipperOffsetD1Ev"
 "_ZN10ClipperLib13ClipperOffsetD2Ev"
 "_ZN10ClipperLib13DisposeOutPtsERPNS_5OutPtE"
 "_ZN10ClipperLib13GetMaximaPairEPNS_5TEdgeE"
 "_ZN10ClipperLib13GetUnitNormalERKNS_8IntPointES2_"
 "_ZN10ClipperLib13MinkowskiDiffERKSt6vectorINS_8IntPointESaIS1_EES5_RS0_IS3_SaIS3_EE"
 "_ZN10ClipperLib13PointIsVertexERKNS_8IntPointEPNS_5OutPtE"
 "_ZN10ClipperLib13TranslatePathERKSt6vectorINS_8IntPointESaIS1_EERS3_S1_"
 "_ZN10ClipperLib14FindNextLocMinEPNS_5TEdgeE"
 "_ZN10ClipperLib14IntersectPointERNS_5TEdgeES1_RNS_8IntPointE"
 "_ZN10ClipperLib14ParseFirstLeftEPNS_6OutRecE"
 "_ZN10ClipperLib14PointInPolygonERKNS_8IntPointEPNS_5OutPtE"
 "_ZN10ClipperLib14PointInPolygonERKNS_8IntPointERKSt6vectorIS0_SaIS0_EE"
 "_ZN10ClipperLib14PointsAreCloseENS_8IntPointES0_d"
 "_ZN10ClipperLib15FirstIsBottomPtEPKNS_5OutPtES2_"
 "_ZN10ClipperLib15GetLowermostRecEPNS_6OutRecES1_"
 "_ZN10ClipperLib15PolyTreeToPathsERKNS_8PolyTreeERSt6vectorIS3_INS_8IntPointESaIS4_EESaIS6_EE"
 "_ZN10ClipperLib15SimplifyPolygonERKSt6vectorINS_8IntPointESaIS1_EERS0_IS3_SaIS3_EENS_12PolyFillTypeE"
 "_ZN10ClipperLib16GetHorzDirectionERNS_5TEdgeERNS_9DirectionERxS4_"
 "_ZN10ClipperLib16SimplifyPolygonsERKSt6vectorIS0_INS_8IntPointESaIS1_EESaIS3_EERS5_NS_12PolyFillTypeE"
 "_ZN10ClipperLib16SimplifyPolygonsERSt6vectorIS0_INS_8IntPointESaIS1_EESaIS3_EENS_12PolyFillTypeE"
 "_ZN10ClipperLib16clipperExceptionC1EPKc"
 "_ZN10ClipperLib16clipperExceptionD0Ev"
 "_ZN10ClipperLib16clipperExceptionD1Ev"
 "_ZN10ClipperLib17GetOverlapSegmentENS_8IntPointES0_S0_S0_RS0_S1_"
 "_ZN10ClipperLib17IntersectListSortEPNS_13IntersectNodeES1_"
 "_ZN10ClipperLib18AddPolyNodeToPathsERKNS_8PolyNodeENS_8NodeTypeERSt6vectorIS4_INS_8IntPointESaIS5_EESaIS7_EE"
 "_ZN10ClipperLib18Poly2ContainsPoly1EPNS_5OutPtES1_"
 "_ZN10ClipperLib18ReversePolyPtLinksEPNS_5OutPtE"
 "_ZN10ClipperLib18SwapIntersectNodesERNS_13IntersectNodeES1_"
 "_ZN10ClipperLib19HorzSegmentsOverlapExxxx"
 "_ZN10ClipperLib19Param1RightOfParam2EPNS_6OutRecES1_"
 "_ZN10ClipperLib19SlopesNearCollinearERKNS_8IntPointES2_S2_d"
 "_ZN10ClipperLib20DistanceFromLineSqrdERKNS_8IntPointES2_S2_"
 "_ZN10ClipperLib21OpenPathsFromPolyTreeERNS_8PolyTreeERSt6vectorIS2_INS_8IntPointESaIS3_EESaIS5_EE"
 "_ZN10ClipperLib21Pt2IsBetweenPt1AndPt3ENS_8IntPointES0_S0_"
 "_ZN10ClipperLib23ClosedPathsFromPolyTreeERKNS_8PolyTreeERSt6vectorIS3_INS_8IntPointESaIS4_EESaIS6_EE"
 "_ZN10ClipperLib4AreaERKNS_6OutRecE"
 "_ZN10ClipperLib4AreaERKSt6vectorINS_8IntPointESaIS1_EE"
 "_ZN10ClipperLib4SwapERxS0_"
 "_ZN10ClipperLib7Clipper10ClearJoinsEv"
 "_ZN10ClipperLib7Clipper10JoinPointsEPNS_4JoinEPNS_6OutRecES4_"
 "_ZN10ClipperLib7Clipper11BuildResultERSt6vectorIS1_INS_8IntPointESaIS2_EESaIS4_EE"
 "_ZN10ClipperLib7Clipper11PopScanbeamEv"
 "_ZN10ClipperLib7Clipper12AddEdgeToSELEPNS_5TEdgeE"
 "_ZN10ClipperLib7Clipper12AddGhostJoinEPNS_5OutPtENS_8IntPointE"
 "_ZN10ClipperLib7Clipper12BuildResult2ERNS_8PolyTreeE"
 "_ZN10ClipperLib7Clipper12CopyAELToSELEv"
 "_ZN10ClipperLib7Clipper12CreateOutRecEv"
 "_ZN10ClipperLib7Clipper12SetHoleStateEPNS_5TEdgeEPNS_6OutRecE"
 "_ZN10ClipperLib7Clipper13AppendPolygonEPNS_5TEdgeES2_"
 "_ZN10ClipperLib7Clipper13DeleteFromAELEPNS_5TEdgeE"
 "_ZN10ClipperLib7Clipper13DeleteFromSELEPNS_5TEdgeE"
 "_ZN10ClipperLib7Clipper13DisposeOutRecEj"
 "_ZN10ClipperLib7Clipper14FixHoleLinkageERNS_6OutRecE"
 "_ZN10ClipperLib7Clipper14InsertScanbeamEx"
 "_ZN10ClipperLib7Clipper14IntersectEdgesEPNS_5TEdgeES2_RNS_8IntPointE"
 "_ZN10ClipperLib7Clipper15AddLocalMaxPolyEPNS_5TEdgeES2_RKNS_8IntPointE"
 "_ZN10ClipperLib7Clipper15AddLocalMinPolyEPNS_5TEdgeES2_RKNS_8IntPointE"
 "_ZN10ClipperLib7Clipper15ClearGhostJoinsEv"
 "_ZN10ClipperLib7Clipper15ExecuteInternalEv"
 "_ZN10ClipperLib7Clipper15FixupOutPolygonERNS_6OutRecE"
 "_ZN10ClipperLib7Clipper15JoinCommonEdgesEv"
 "_ZN10ClipperLib7Clipper15SetWindingCountERNS_5TEdgeE"
 "_ZN10ClipperLib7Clipper16DoSimplePolygonsEv"
 "_ZN10ClipperLib7Clipper16FixupFirstLefts1EPNS_6OutRecES2_"
 "_ZN10ClipperLib7Clipper16FixupFirstLefts2EPNS_6OutRecES2_"
 "_ZN10ClipperLib7Clipper17DisposeAllOutRecsEv"
 "_ZN10ClipperLib7Clipper17InsertEdgeIntoAELEPNS_5TEdgeES2_"
 "_ZN10ClipperLib7Clipper17ProcessHorizontalEPNS_5TEdgeEb"
 "_ZN10ClipperLib7Clipper17UpdateEdgeIntoAELERPNS_5TEdgeE"
 "_ZN10ClipperLib7Clipper18BuildIntersectListEx"
 "_ZN10ClipperLib7Clipper18ProcessHorizontalsEb"
 "_ZN10ClipperLib7Clipper18SwapPositionsInAELEPNS_5TEdgeES2_"
 "_ZN10ClipperLib7Clipper18SwapPositionsInSELEPNS_5TEdgeES2_"
 "_ZN10ClipperLib7Clipper20ProcessIntersectListEv"
 "_ZN10ClipperLib7Clipper20ProcessIntersectionsEx"
 "_ZN10ClipperLib7Clipper21DisposeIntersectNodesEv"
 "_ZN10ClipperLib7Clipper22FixupIntersectionOrderEv"
 "_ZN10ClipperLib7Clipper24InsertLocalMinimaIntoAELEx"
 "_ZN10ClipperLib7Clipper27ProcessEdgesAtTopOfScanbeamEx"
 "_ZN10ClipperLib7Clipper5ResetEv"
 "_ZN10ClipperLib7Clipper7AddJoinEPNS_5OutPtES2_NS_8IntPointE"
 "_ZN10ClipperLib7Clipper7ExecuteENS_8ClipTypeERNS_8PolyTreeENS_12PolyFillTypeES4_"
 "_ZN10ClipperLib7Clipper7ExecuteENS_8ClipTypeERSt6vectorIS2_INS_8IntPointESaIS3_EESaIS5_EENS_12PolyFillTypeES9_"
 "_ZN10ClipperLib7Clipper8AddOutPtEPNS_5TEdgeERKNS_8IntPointE"
 "_ZN10ClipperLib7Clipper8DoMaximaEPNS_5TEdgeE"
 "_ZN10ClipperLib7Clipper9GetOutRecEi"
 "_ZN10ClipperLib7ClipperC1Ei"
 "_ZN10ClipperLib7ClipperC2Ei"
 "_ZN10ClipperLib7ClipperD0Ev"
 "_ZN10ClipperLib7ClipperD1Ev"
 "_ZN10ClipperLib7ClipperD2Ev"
 "_ZN10ClipperLib8DupOutPtEPNS_5OutPtEb"
 "_ZN10ClipperLib8JoinHorzEPNS_5OutPtES1_S1_S1_NS_8IntPointEb"
 "_ZN10ClipperLib8PolyNode8AddChildERS0_"
 "_ZN10ClipperLib8PolyNodeC1Ev"
 "_ZN10ClipperLib8PolyNodeC2Ev"
 "_ZN10ClipperLib8PolyNodeD0Ev"
 "_ZN10ClipperLib8PolyNodeD1Ev"
 "_ZN10ClipperLib8PolyTree5ClearEv"
 "_ZN10ClipperLib9ExcludeOpEPNS_5OutPtE"
 "_ZN10ClipperLib9InitEdge2ERNS_5TEdgeENS_8PolyTypeE"
 "_ZN10ClipperLib9Int128MulExx"
 "_ZN10ClipperLib9MinkowskiERKSt6vectorINS_8IntPointESaIS1_EES5_RS0_IS3_SaIS3_EEbb"
 "_ZN10ClipperLib9RangeTestERKNS_8IntPointERb"
 "_ZN10ClipperLiblsERSoRKNS_8IntPointE"
 "_ZN10ClipperLiblsERSoRKSt6vectorINS_8IntPointESaIS2_EE"
 "_ZN10ClipperLiblsERSoRKSt6vectorIS1_INS_8IntPointESaIS2_EESaIS4_EE"
 "_ZNK10ClipperLib16clipperException4whatEv"
 "_ZNK10ClipperLib7Clipper14IsContributingERKNS_5TEdgeE"
 "_ZNK10ClipperLib7Clipper17IsEvenOddFillTypeERKNS_5TEdgeE"
 "_ZNK10ClipperLib7Clipper20IsEvenOddAltFillTypeERKNS_5TEdgeE"
 "_ZNK10ClipperLib8PolyNode10ChildCountEv"
 "_ZNK10ClipperLib8PolyNode16GetNextSiblingUpEv"
 "_ZNK10ClipperLib8PolyNode6IsHoleEv"
 "_ZNK10ClipperLib8PolyNode6IsOpenEv"
 "_ZNK10ClipperLib8PolyNode7GetNextEv"
 "_ZNK10ClipperLib8PolyTree5TotalEv"
 "_ZNK10ClipperLib8PolyTree8GetFirstEv"
 "_ZNSt6vectorIN10ClipperLib11DoublePointESaIS1_EE12emplace_backIJS1_EEEvDpOT_"
 "_ZNSt6vectorIN10ClipperLib11DoublePointESaIS1_EE17_M_realloc_insertIJS1_EEEvN9__gnu_cxx17__normal_iteratorIPS1_S3_EEDpOT_"
 "_ZNSt6vectorIN10ClipperLib11DoublePointESaIS1_EE7reserveEj"
 "_ZNSt6vectorIN10ClipperLib12LocalMinimumESaIS1_EE17_M_realloc_insertIJRKS1_EEEvN9__gnu_cxx17__normal_iteratorIPS1_S3_EEDpOT_"
 "_ZNSt6vectorIN10ClipperLib8IntPointESaIS1_EE12emplace_backIJS1_EEEvDpOT_"
 "_ZNSt6vectorIN10ClipperLib8IntPointESaIS1_EE17_M_default_appendEj"
 "_ZNSt6vectorIN10ClipperLib8IntPointESaIS1_EE17_M_realloc_insertIJRKS1_EEEvN9__gnu_cxx17__normal_iteratorIPS1_S3_EEDpOT_"
 "_ZNSt6vectorIN10ClipperLib8IntPointESaIS1_EE17_M_realloc_insertIJS1_EEEvN9__gnu_cxx17__normal_iteratorIPS1_S3_EEDpOT_"
 "_ZNSt6vectorIN10ClipperLib8IntPointESaIS1_EE7reserveEj"
 "_ZNSt6vectorIN10ClipperLib8IntPointESaIS1_EEaSERKS3_"
 "_ZNSt6vectorIPN10ClipperLib13IntersectNodeESaIS2_EE17_M_realloc_insertIJRKS2_EEEvN9__gnu_cxx17__normal_iteratorIPS2_S4_EEDpOT_"
 "_ZNSt6vectorIPN10ClipperLib4JoinESaIS2_EE17_M_default_appendEj"
 "_ZNSt6vectorIPN10ClipperLib4JoinESaIS2_EE17_M_realloc_insertIJRKS2_EEEvN9__gnu_cxx17__normal_iteratorIPS2_S4_EEDpOT_"
 "_ZNSt6vectorIPN10ClipperLib5TEdgeESaIS2_EE17_M_realloc_insertIJRKS2_EEEvN9__gnu_cxx17__normal_iteratorIPS2_S4_EEDpOT_"
 "_ZNSt6vectorIPN10ClipperLib6OutRecESaIS2_EE17_M_realloc_insertIJRKS2_EEEvN9__gnu_cxx17__normal_iteratorIPS2_S4_EEDpOT_"
 "_ZNSt6vectorIPN10ClipperLib8PolyNodeESaIS2_EE12emplace_backIJS2_EEEvDpOT_"
 "_ZNSt6vectorIPN10ClipperLib8PolyNodeESaIS2_EE17_M_default_appendEj"
 "_ZNSt6vectorIPN10ClipperLib8PolyNodeESaIS2_EE7reserveEj"
 "_ZNSt6vectorIS_IN10ClipperLib8IntPointESaIS1_EESaIS3_EE17_M_default_appendEj"
 "_ZNSt6vectorIS_IN10ClipperLib8IntPointESaIS1_EESaIS3_EE17_M_realloc_insertIJRKS3_EEEvN9__gnu_cxx17__normal_iteratorIPS3_S5_EEDpOT_"
 "_ZNSt6vectorIS_IN10ClipperLib8IntPointESaIS1_EESaIS3_EE7reserveEj"
 "_ZNSt6vectorIS_IN10ClipperLib8IntPointESaIS1_EESaIS3_EED1Ev"
 "_ZNSt6vectorIxSaIxEE17_M_realloc_insertIJRKxEEEvN9__gnu_cxx17__normal_iteratorIPxS1_EEDpOT_"
 "_ZSt13__adjust_heapIN9__gnu_cxx17__normal_iteratorIPN10ClipperLib12LocalMinimumESt6vectorIS3_SaIS3_EEEEiS3_NS0_5__ops15_Iter_comp_iterINS2_12LocMinSorterEEEEvT_T0_SE_T1_T2_"
 "_ZSt13__adjust_heapIN9__gnu_cxx17__normal_iteratorIPPN10ClipperLib13IntersectNodeESt6vectorIS4_SaIS4_EEEEiS4_NS0_5__ops15_Iter_comp_iterIPFbS4_S4_EEEEvT_T0_SG_T1_T2_"
 "_ZSt13__adjust_heapIN9__gnu_cxx17__normal_iteratorIPxSt6vectorIxSaIxEEEEixNS0_5__ops15_Iter_comp_iterISt4lessIxEEEEvT_T0_SD_T1_T2_"
 "_ZSt16__insertion_sortIN9__gnu_cxx17__normal_iteratorIPN10ClipperLib12LocalMinimumESt6vectorIS3_SaIS3_EEEENS0_5__ops15_Iter_comp_iterINS2_12LocMinSorterEEEEvT_SD_T0_"
 "_ZSt16__insertion_sortIN9__gnu_cxx17__normal_iteratorIPPN10ClipperLib13IntersectNodeESt6vectorIS4_SaIS4_EEEENS0_5__ops15_Iter_comp_iterIPFbS4_S4_EEEEvT_SF_T0_"
 "_ZSt16__introsort_loopIN9__gnu_cxx17__normal_iteratorIPN10ClipperLib12LocalMinimumESt6vectorIS3_SaIS3_EEEEiNS0_5__ops15_Iter_comp_iterINS2_12LocMinSorterEEEEvT_SD_T0_T1_"
 "_ZSt16__introsort_loopIN9__gnu_cxx17__normal_iteratorIPPN10ClipperLib13IntersectNodeESt6vectorIS4_SaIS4_EEEEiNS0_5__ops15_Iter_comp_iterIPFbS4_S4_EEEEvT_SF_T0_T1_"
 "_ZSt22__move_median_to_firstIN9__gnu_cxx17__normal_iteratorIPN10ClipperLib12LocalMinimumESt6vectorIS3_SaIS3_EEEENS0_5__ops15_Iter_comp_iterINS2_12LocMinSorterEEEEvT_SD_SD_SD_T0_"
 "_ZSt25__unguarded_linear_insertIN9__gnu_cxx17__normal_iteratorIPN10ClipperLib12LocalMinimumESt6vectorIS3_SaIS3_EEEENS0_5__ops14_Val_comp_iterINS2_12LocMinSorterEEEEvT_T0_"
 "_ZSt9__reverseIN9__gnu_cxx17__normal_iteratorIPN10ClipperLib8IntPointESt6vectorIS3_SaIS3_EEEEEvT_S9_St26random_access_iterator_tag"
 "_ZTIN10ClipperLib11ClipperBaseE"
 "_ZTIN10ClipperLib16clipperExceptionE"
 "_ZTIN10ClipperLib7ClipperE"
 "_ZTIN10ClipperLib8PolyNodeE"
 "_ZTISt9exception"
 "_ZTSN10ClipperLib11ClipperBaseE"
 "_ZTSN10ClipperLib16clipperExceptionE"
 "_ZTSN10ClipperLib7ClipperE"
 "_ZTSN10ClipperLib8PolyNodeE"
 "_ZTSSt9exception"
 "_ZTTN10ClipperLib7ClipperE"
 "_ZTVN10ClipperLib11ClipperBaseE"
 "_ZTVN10ClipperLib16clipperExceptionE"
 "_ZTVN10ClipperLib7ClipperE"
 "_ZTVN10ClipperLib8PolyNodeE"
 "_ZTv0_n12_N10ClipperLib7ClipperD0Ev"
 "_ZTv0_n12_N10ClipperLib7ClipperD1Ev"
 "_ZTv0_n20_N10ClipperLib7Clipper5ResetEv"
 "DBFAddField"
 "DBFAddNativeFieldType"
 "DBFAlterFieldDefn"
 "DBFCloneEmpty"
 "DBFClose"
 "DBFCreate"
 "DBFCreateEx"
 "DBFCreateLL"
 "DBFDeleteField"
 "DBFGetCodePage"
 "DBFGetFieldCount"
 "DBFGetFieldIndex"
 "DBFGetFieldInfo"
 "DBFGetNativeFieldType"
 "DBFGetRecordCount"
 "DBFIsAttributeNULL"
 "DBFIsRecordDeleted"
 "DBFMarkRecordDeleted"
 "DBFOpen"
 "DBFOpenLL"
 "DBFReadDoubleAttribute"
 "DBFReadIntegerAttribute"
 "DBFReadLogicalAttribute"
 "DBFReadStringAttribute"
 "DBFReadTuple"
 "DBFReorderFields"
 "DBFSetLastModifiedDate"
 "DBFSetWriteEndOfFileChar"
 "DBFUpdateHeader"
 "DBFWriteAttributeDirectly"
 "DBFWriteDoubleAttribute"
 "DBFWriteIntegerAttribute"
 "DBFWriteLogicalAttribute"
 "DBFWriteNULLAttribute"
 "DBFWriteStringAttribute"
 "DBFWriteTuple"
 "_ZN10DgDistanceIeED0Ev"
 "_ZN10DgDistanceIeED1Ev"
 "_ZN10DgGeoSphRFD0Ev"
 "_ZN10DgGeoSphRFD1Ev"
 "_ZN11DgLocVector9convertToERK8DgRFBase"
 "_ZN11DgLocVectorD2Ev"
 "_ZN3dgg4util9to_stringIeEENSt7__cxx1112basic_stringIcSt11char_traitsIcESaIcEEERKT_"
 "_ZN3dgg4util9to_stringIiEENSt7__cxx1112basic_stringIcSt11char_traitsIcESaIcEEERKT_"
 "_ZN3dgg4util9to_stringIxEENSt7__cxx1112basic_stringIcSt11char_traitsIcESaIcEEERKT_"
 "_ZN4DgRFI10DgGeoCoordeE6jumpRFEP10DgLocation"
 "_ZN4DgRFI8DgDVec2DeE6jumpRFEP10DgLocation"
 "_ZN5dglib11Transformer10outPROJTRIESt10shared_ptrI10DgLocationERyReS5_"
 "_ZN5dglib11Transformer5inGEOEee"
 "_ZN5dglib11Transformer6inQ2DDEyee"
 "_ZN5dglib11Transformer6inQ2DIEyee"
 "_ZN5dglib11Transformer6outGEOESt10shared_ptrI10DgLocationEReS4_"
 "_ZN5dglib11Transformer7outQ2DDESt10shared_ptrI10DgLocationERyReS5_"
 "_ZN5dglib11Transformer7outQ2DIESt10shared_ptrI10DgLocationERyReS5_"
 "_ZN5dglib11Transformer8inSEQNUMEy"
 "_ZN5dglib11Transformer8outPLANEESt10shared_ptrI10DgLocationEReS4_"
 "_ZN5dglib11Transformer9inPROJTRIEyee"
 "_ZN5dglib11Transformer9outSEQNUMESt10shared_ptrI10DgLocationERy"
 "_ZN5dglib11TransformerC1ERKNS_8DgParamsE"
 "_ZN5dglib11TransformerC1EeeejiNSt7__cxx1112basic_stringIcSt11char_traitsIcESaIcEEES6_"
 "_ZN5dglib11TransformerC2ERKNS_8DgParamsE"
 "_ZN5dglib11TransformerC2EeeejiNSt7__cxx1112basic_stringIcSt11char_traitsIcESaIcEEES6_"
 "_ZN5dglib19GlobalGridGenerator4initEv"
 "_ZN5dglib19GlobalGridGeneratorC1ERKNS_8DgParamsE"
 "_ZN5dglib19GlobalGridGeneratorC1EeeejiNSt7__cxx1112basic_stringIcSt11char_traitsIcESaIcEEES6_"
 "_ZN5dglib19GlobalGridGeneratorC2ERKNS_8DgParamsE"
 "_ZN5dglib19GlobalGridGeneratorC2EeeejiNSt7__cxx1112basic_stringIcSt11char_traitsIcESaIcEEES6_"
 "_ZN5dglib19GlobalGridGeneratorclERSt6vectorIeSaIeEES4_"
 "_ZN5dglib19SeqNumGridGenerator4initERKSt6vectorIySaIyEE"
 "_ZN5dglib19SeqNumGridGeneratorC1ERKNS_8DgParamsERKSt6vectorIySaIyEE"
 "_ZN5dglib19SeqNumGridGeneratorC1EeeejiNSt7__cxx1112basic_stringIcSt11char_traitsIcESaIcEEES6_RKSt6vectorIySaIyEE"
 "_ZN5dglib19SeqNumGridGeneratorC2ERKNS_8DgParamsERKSt6vectorIySaIyEE"
 "_ZN5dglib19SeqNumGridGeneratorC2EeeejiNSt7__cxx1112basic_stringIcSt11char_traitsIcESaIcEEES6_RKSt6vectorIySaIyEE"
 "_ZN5dglib19SeqNumGridGeneratorclERSt6vectorIeSaIeEES4_"
 "_ZN5dglib9GridThing4initEeeejiNSt7__cxx1112basic_stringIcSt11char_traitsIcESaIcEEES6_"
 "_ZN5dglib9GridThingC1ERKNS_8DgParamsE"
 "_ZN5dglib9GridThingC1EeeejiNSt7__cxx1112basic_stringIcSt11char_traitsIcESaIcEEES6_"
 "_ZN5dglib9GridThingC2ERKNS_8DgParamsE"
 "_ZN5dglib9GridThingC2EeeejiNSt7__cxx1112basic_stringIcSt11char_traitsIcESaIcEEES6_"
 "_ZN5dglib9GridThingD2Ev"
 "_ZN9DgAddressI10DgGeoCoordED0Ev"
 "_ZN9DgAddressI10DgGeoCoordED1Ev"
 "_ZN9DgAddressI11DgQ2DDCoordED0Ev"
 "_ZN9DgAddressI11DgQ2DDCoordED1Ev"
 "_ZN9DgAddressI11DgQ2DICoordED0Ev"
 "_ZN9DgAddressI11DgQ2DICoordED1Ev"
 "_ZN9DgAddressI14DgProjTriCoordED0Ev"
 "_ZN9DgAddressI14DgProjTriCoordED1Ev"
 "_ZN9DgAddressI8DgDVec2DED0Ev"
 "_ZN9DgAddressI8DgDVec2DED1Ev"
 "_ZN9DgPolygonD0Ev"
 "_ZN9DgPolygonD1Ev"
 "_ZNK10DgGeoCoordcvNSt7__cxx1112basic_stringIcSt11char_traitsIcESaIcEEEEv"
 "_ZNK10DgGeoSphRF4distERK10DgGeoCoordS2_"
 "_ZNK10DgLocation8asStringB5cxx11Ev"
 "_ZNK11DgLocVector11cardinalityEv"
 "_ZNK11DgLocVector15asAddressStringB5cxx11Ec"
 "_ZNK11DgLocVector15asAddressStringB5cxx11Ev"
 "_ZNK11DgLocVector8asStringB5cxx11Ec"
 "_ZNK11DgLocVector8asStringB5cxx11Ev"
 "_ZNK13DgEllipsoidRF10vecAddressERK8DgDVec2D"
 "_ZNK13DgEllipsoidRF11vecLocationERK8DgDVec2D"
 "_ZNK13DgEllipsoidRF12undefAddressEv"
 "_ZNK13DgEllipsoidRF13getVecAddressERK13DgAddressBase"
 "_ZNK13DgEllipsoidRF14getVecLocationERK10DgLocation"
 "_ZNK13DgEllipsoidRF7add2strB5cxx11ERK10DgGeoCoord"
 "_ZNK13DgEllipsoidRF7add2strB5cxx11ERK10DgGeoCoordc"
 "_ZNK13DgEllipsoidRF8dist2dblERKe"
 "_ZNK13DgEllipsoidRF8dist2intERKe"
 "_ZNK13DgEllipsoidRF8dist2strB5cxx11ERKe"
 "_ZNK4DgRFI10DgGeoCoordeE10fromStringER10DgLocationPKcc"
 "_ZNK4DgRFI10DgGeoCoordeE10getAddressERK10DgLocation"
 "_ZNK4DgRFI10DgGeoCoordeE11copyAddressERK13DgAddressBasePS2_"
 "_ZNK4DgRFI10DgGeoCoordeE12equalAddressERK13DgAddressBaseS4_"
 "_ZNK4DgRFI10DgGeoCoordeE12makeLocationERKS0_"
 "_ZNK4DgRFI10DgGeoCoordeE13createAddressERK13DgAddressBase"
 "_ZNK4DgRFI10DgGeoCoordeE13createAddressEv"
 "_ZNK4DgRFI10DgGeoCoordeE14createLocationERK10DgLocationb"
 "_ZNK4DgRFI10DgGeoCoordeE15toAddressStringB5cxx11ERK10DgLocation"
 "_ZNK4DgRFI10DgGeoCoordeE15toAddressStringB5cxx11ERK10DgLocationc"
 "_ZNK4DgRFI10DgGeoCoordeE15toAddressStringB5cxx11ERK11DgLocVector"
 "_ZNK4DgRFI10DgGeoCoordeE15toAddressStringB5cxx11ERK11DgLocVectorc"
 "_ZNK4DgRFI10DgGeoCoordeE5toIntERK14DgDistanceBase"
 "_ZNK4DgRFI10DgGeoCoordeE8distanceERK10DgLocationS4_b"
 "_ZNK4DgRFI10DgGeoCoordeE8toDoubleERK14DgDistanceBase"
 "_ZNK4DgRFI10DgGeoCoordeE8toStringB5cxx11ERK10DgLocation"
 "_ZNK4DgRFI10DgGeoCoordeE8toStringB5cxx11ERK10DgLocationc"
 "_ZNK4DgRFI10DgGeoCoordeE8toStringB5cxx11ERK11DgLocVector"
 "_ZNK4DgRFI10DgGeoCoordeE8toStringB5cxx11ERK11DgLocVectorc"
 "_ZNK4DgRFI10DgGeoCoordeE8toStringB5cxx11ERK14DgDistanceBase"
 "_ZNK4DgRFI8DgDVec2DeE10fromStringER10DgLocationPKcc"
 "_ZNK4DgRFI8DgDVec2DeE10getAddressERK10DgLocation"
 "_ZNK4DgRFI8DgDVec2DeE11copyAddressERK13DgAddressBasePS2_"
 "_ZNK4DgRFI8DgDVec2DeE12equalAddressERK13DgAddressBaseS4_"
 "_ZNK4DgRFI8DgDVec2DeE12makeLocationERKS0_"
 "_ZNK4DgRFI8DgDVec2DeE13createAddressERK13DgAddressBase"
 "_ZNK4DgRFI8DgDVec2DeE13createAddressEv"
 "_ZNK4DgRFI8DgDVec2DeE14createLocationERK10DgLocationb"
 "_ZNK4DgRFI8DgDVec2DeE15toAddressStringB5cxx11ERK10DgLocation"
 "_ZNK4DgRFI8DgDVec2DeE15toAddressStringB5cxx11ERK10DgLocationc"
 "_ZNK4DgRFI8DgDVec2DeE15toAddressStringB5cxx11ERK11DgLocVector"
 "_ZNK4DgRFI8DgDVec2DeE15toAddressStringB5cxx11ERK11DgLocVectorc"
 "_ZNK4DgRFI8DgDVec2DeE5toIntERK14DgDistanceBase"
 "_ZNK4DgRFI8DgDVec2DeE8distanceERK10DgLocationS4_b"
 "_ZNK4DgRFI8DgDVec2DeE8toDoubleERK14DgDistanceBase"
 "_ZNK4DgRFI8DgDVec2DeE8toStringB5cxx11ERK10DgLocation"
 "_ZNK4DgRFI8DgDVec2DeE8toStringB5cxx11ERK10DgLocationc"
 "_ZNK4DgRFI8DgDVec2DeE8toStringB5cxx11ERK11DgLocVector"
 "_ZNK4DgRFI8DgDVec2DeE8toStringB5cxx11ERK11DgLocVectorc"
 "_ZNK4DgRFI8DgDVec2DeE8toStringB5cxx11ERK14DgDistanceBase"
 "_ZNK5dglib19GlobalGridGenerator4goodEv"
 "_ZNK5dglib19SeqNumGridGenerator4goodEv"
 "_ZNK5dglib9GridThing10cellAreaKMEi"
 "_ZNK5dglib9GridThing10cellAreaKMEv"
 "_ZNK5dglib9GridThing10cellDistKMEi"
 "_ZNK5dglib9GridThing10cellDistKMEv"
 "_ZNK5dglib9GridThing3clsEi"
 "_ZNK5dglib9GridThing3clsEv"
 "_ZNK5dglib9GridThing6nCellsEi"
 "_ZNK5dglib9GridThing6nCellsEv"
 "_ZNK8DgDVec2DcvNSt7__cxx1112basic_stringIcSt11char_traitsIcESaIcEEEEv"
 "_ZNK8DgRFBase10vecAddressERK8DgDVec2D"
 "_ZNK8DgRFBase11vecLocationERK8DgDVec2D"
 "_ZNK8DgRFBase13getVecAddressERK13DgAddressBase"
 "_ZNK8DgRFBase14getVecLocationERK10DgLocation"
 "_ZNK8DgRFBase8undefLocEv"
 "_ZNK8DgRFBaseeqERKS_"
 "_ZNK8DgRFBaseneERKS_"
 "_ZNK9DgAddressI10DgGeoCoordE7writeToERSo"
 "_ZNK9DgAddressI11DgQ2DDCoordE7writeToERSo"
 "_ZNK9DgAddressI11DgQ2DICoordE7writeToERSo"
 "_ZNK9DgAddressI14DgProjTriCoordE7writeToERSo"
 "_ZNK9DgAddressI8DgDVec2DE7writeToERSo"
 "_ZNSt15_Sp_counted_ptrIP10DgLocationLN9__gnu_cxx12_Lock_policyE2EE10_M_destroyEv"
 "_ZNSt15_Sp_counted_ptrIP10DgLocationLN9__gnu_cxx12_Lock_policyE2EE10_M_disposeEv"
 "_ZNSt15_Sp_counted_ptrIP10DgLocationLN9__gnu_cxx12_Lock_policyE2EE14_M_get_deleterERKSt9type_info"
 "_ZNSt15_Sp_counted_ptrIP10DgLocationLN9__gnu_cxx12_Lock_policyE2EED0Ev"
 "_ZNSt15_Sp_counted_ptrIP10DgLocationLN9__gnu_cxx12_Lock_policyE2EED1Ev"
 "_ZNSt23_Sp_counted_ptr_inplaceI10DgLocationSaIS0_ELN9__gnu_cxx12_Lock_policyE2EE10_M_destroyEv"
 "_ZNSt23_Sp_counted_ptr_inplaceI10DgLocationSaIS0_ELN9__gnu_cxx12_Lock_policyE2EE10_M_disposeEv"
 "_ZNSt23_Sp_counted_ptr_inplaceI10DgLocationSaIS0_ELN9__gnu_cxx12_Lock_policyE2EE14_M_get_deleterERKSt9type_info"
 "_ZNSt23_Sp_counted_ptr_inplaceI10DgLocationSaIS0_ELN9__gnu_cxx12_Lock_policyE2EED0Ev"
 "_ZNSt23_Sp_counted_ptr_inplaceI10DgLocationSaIS0_ELN9__gnu_cxx12_Lock_policyE2EED1Ev"
 "_ZNSt6vectorIP13DgAddressBaseSaIS1_EE14_M_fill_insertEN9__gnu_cxx17__normal_iteratorIPS1_S3_EEjRKS1_"
 "_ZNSt6vectorIS_IP15DgConverterBaseSaIS1_EESaIS3_EED1Ev"
 "_ZNSt6vectorIeSaIeEE17_M_default_appendEj"
 "_ZNSt6vectorIySaIyEEaSERKS1_"
 "_ZNSt7__cxx1112basic_stringIcSt11char_traitsIcESaIcEE12_M_constructIPKcEEvT_S8_St20forward_iterator_tag"
 "_ZNSt7__cxx1112basic_stringIcSt11char_traitsIcESaIcEE12_M_constructIPcEEvT_S7_St20forward_iterator_tag"
 "_ZNSt7__cxx1115basic_stringbufIcSt11char_traitsIcESaIcEED1Ev"
 "_ZStplIcSt11char_traitsIcESaIcEENSt7__cxx1112basic_stringIT_T0_T1_EEOS8_S9_"
 "_ZTI10DgDistanceIeE"
 "_ZTI10DgGeoSphRF"
 "_ZTI11DgLocVector"
 "_ZTI12DgGeoDatumRFI10DgGeoCoordeE"
 "_ZTI13DgAddressBase"
 "_ZTI13DgEllipsoidRF"
 "_ZTI14DgDistanceBase"
 "_ZTI4DgRFI10DgGeoCoordeE"
 "_ZTI4DgRFI8DgDVec2DeE"
 "_ZTI8DgRFBase"
 "_ZTI9DgAddressI10DgGeoCoordE"
 "_ZTI9DgAddressI11DgQ2DDCoordE"
 "_ZTI9DgAddressI11DgQ2DICoordE"
 "_ZTI9DgAddressI14DgProjTriCoordE"
 "_ZTI9DgAddressI8DgDVec2DE"
 "_ZTI9DgLocBase"
 "_ZTI9DgPolygon"
 "_ZTISt11_Mutex_baseILN9__gnu_cxx12_Lock_policyE2EE"
 "_ZTISt13runtime_error"
 "_ZTISt15_Sp_counted_ptrIP10DgLocationLN9__gnu_cxx12_Lock_policyE2EE"
 "_ZTISt16_Sp_counted_baseILN9__gnu_cxx12_Lock_policyE2EE"
 "_ZTISt19_Sp_make_shared_tag"
 "_ZTISt23_Sp_counted_ptr_inplaceI10DgLocationSaIS0_ELN9__gnu_cxx12_Lock_policyE2EE"
 "_ZTISt9exception"
 "_ZTS10DgDistanceIeE"
 "_ZTS10DgGeoSphRF"
 "_ZTS11DgLocVector"
 "_ZTS12DgGeoDatumRFI10DgGeoCoordeE"
 "_ZTS13DgAddressBase"
 "_ZTS13DgEllipsoidRF"
 "_ZTS14DgDistanceBase"
 "_ZTS4DgRFI10DgGeoCoordeE"
 "_ZTS4DgRFI8DgDVec2DeE"
 "_ZTS8DgRFBase"
 "_ZTS9DgAddressI10DgGeoCoordE"
 "_ZTS9DgAddressI11DgQ2DDCoordE"
 "_ZTS9DgAddressI11DgQ2DICoordE"
 "_ZTS9DgAddressI14DgProjTriCoordE"
 "_ZTS9DgAddressI8DgDVec2DE"
 "_ZTS9DgLocBase"
 "_ZTS9DgPolygon"
 "_ZTSSt11_Mutex_baseILN9__gnu_cxx12_Lock_policyE2EE"
 "_ZTSSt13runtime_error"
 "_ZTSSt15_Sp_counted_ptrIP10DgLocationLN9__gnu_cxx12_Lock_policyE2EE"
 "_ZTSSt16_Sp_counted_baseILN9__gnu_cxx12_Lock_policyE2EE"
 "_ZTSSt19_Sp_make_shared_tag"
 "_ZTSSt23_Sp_counted_ptr_inplaceI10DgLocationSaIS0_ELN9__gnu_cxx12_Lock_policyE2EE"
 "_ZTSSt9exception"
 "_ZTV10DgDistanceIeE"
 "_ZTV10DgGeoSphRF"
 "_ZTV4DgRFI10DgGeoCoordeE"
 "_ZTV4DgRFI8DgDVec2DeE"
 "_ZTV9DgAddressI10DgGeoCoordE"
 "_ZTV9DgAddressI11DgQ2DDCoordE"
 "_ZTV9DgAddressI11DgQ2DICoordE"
 "_ZTV9DgAddressI14DgProjTriCoordE"
 "_ZTV9DgAddressI8DgDVec2DE"
 "_ZTV9DgPolygon"
 "_ZTVSt15_Sp_counted_ptrIP10DgLocationLN9__gnu_cxx12_Lock_policyE2EE"
 "_ZTVSt23_Sp_counted_ptr_inplaceI10DgLocationSaIS0_ELN9__gnu_cxx12_Lock_policyE2EE"
 "_ZZNSt19_Sp_make_shared_tag5_S_tiEvE5__tag"
 "_Z10usgs_hypotee"
 "_Z10pj_authlatePe"
 "_Z10pj_authsete"
 "_Z11pj_inv_mlfneePe"
 "_Z7pj_enfne"
 "_Z7pj_mlfneeePe"
 "_Z7pj_msfneee"
 "_Z7pj_phi2ee"
 "_Z7pj_qsfneee"
 "_Z7pj_tsfneee"
 "SADError"
 "SADFClose"
 "SADFFlush"
 "SADFOpen"
 "SADFRead"
 "SADFSeek"
 "SADFTell"
 "SADFWrite"
 "SADRemove"
 "SASetupDefaultHooks"
 "SASetupUtf8Hooks"
 "SAUtf8WFOpen"
 "SAUtf8WRemove"
 "Utf8ToWideChar"
 "SBNCloseDiskTree"
 "SBNOpenDiskTree"
 "SBNSearchDiskTree"
 "SBNSearchDiskTreeInteger"
 "SBNSearchFreeIds"
 "SHPClose"
 "SHPComputeExtents"
 "SHPCreate"
 "SHPCreateLL"
 "SHPCreateObject"
 "SHPCreateSimpleObject"
 "SHPDestroyObject"
 "SHPGetInfo"
 "SHPOpen"
 "SHPOpenLL"
 "SHPOpenLLEx"
 "SHPPartTypeName"
 "SHPReadObject"
 "SHPRestoreSHX"
 "SHPRewindObject"
 "SHPSetFastModeReadObject"
 "SHPTypeName"
 "SHPWriteHeader"
 "SHPWriteObject"
 "SHPCheckBoundsOverlap"
 "SHPCloseDiskTree"
 "SHPCreateTree"
 "SHPDestroyTree"
 "SHPOpenDiskTree"
 "SHPSearchDiskTree"
 "SHPSearchDiskTreeEx"
 "SHPTreeAddShapeId"
 "SHPTreeFindLikelyShapes"
 "SHPTreeTrimExtraNodes"
 "SHPWriteTree"
 "SHPWriteTreeLL"
 "_ZN3dgg4util6ssplitEPKcRSt6vectorINSt7__cxx1112basic_stringIcSt11char_traitsIcESaIcEEESaIS9_EES2_"
 "_ZN3dgg4util6ssplitERKNSt7__cxx1112basic_stringIcSt11char_traitsIcESaIcEEERSt6vectorIS6_SaIS6_EEPKc"
 "_ZNSt6vectorINSt7__cxx1112basic_stringIcSt11char_traitsIcESaIcEEESaIS5_EE17_M_realloc_insertIJS5_EEEvN9__gnu_cxx17__normal_iteratorIPS5_S7_EEDpOT_"
 "_ZNSt7__cxx1112basic_stringIcSt11char_traitsIcESaIcEE12_M_constructIPKcEEvT_S8_St20forward_iterator_tag"
